                              1 ;--------------------------------------------------------
                              2 ; File Created by SDCC : free open source ANSI-C Compiler
                              3 ; Version 3.3.0 #8604 (May 11 2013) (Linux)
                              4 ; This file was generated Sun Nov 24 17:43:06 2013
                              5 ;--------------------------------------------------------
                              6 	.module golay
                              7 	.optsdcc -mmcs51 --model-large
                              8 	
                              9 ;--------------------------------------------------------
                             10 ; Public variables in this module
                             11 ;--------------------------------------------------------
                             12 	.globl _golay_decode
                             13 	.globl _golay_encode
                             14 	.globl _SDN
                             15 	.globl _NSS1
                             16 	.globl _IRQ
                             17 	.globl _BUTTON_DOWN
                             18 	.globl _BUTTON_UP
                             19 	.globl _BUTTON_ENTER
                             20 	.globl _LED_GREEN
                             21 	.globl _LED_RED
                             22 	.globl _SPI0EN
                             23 	.globl _TXBMT0
                             24 	.globl _NSS0MD0
                             25 	.globl _NSS0MD1
                             26 	.globl _RXOVRN0
                             27 	.globl _MODF0
                             28 	.globl _WCOL0
                             29 	.globl _SPIF0
                             30 	.globl _AD0CM0
                             31 	.globl _AD0CM1
                             32 	.globl _AD0CM2
                             33 	.globl _AD0WINT
                             34 	.globl _AD0BUSY
                             35 	.globl _AD0INT
                             36 	.globl _BURSTEN
                             37 	.globl _AD0EN
                             38 	.globl _CCF0
                             39 	.globl _CCF1
                             40 	.globl _CCF2
                             41 	.globl _CCF3
                             42 	.globl _CCF4
                             43 	.globl _CCF5
                             44 	.globl _CR
                             45 	.globl _CF
                             46 	.globl _P
                             47 	.globl _F1
                             48 	.globl _OV
                             49 	.globl _RS0
                             50 	.globl _RS1
                             51 	.globl _F0
                             52 	.globl _AC
                             53 	.globl _CY
                             54 	.globl _T2XCLK
                             55 	.globl _T2RCLK
                             56 	.globl _TR2
                             57 	.globl _T2SPLIT
                             58 	.globl _TF2CEN
                             59 	.globl _TF2LEN
                             60 	.globl _TF2L
                             61 	.globl _TF2H
                             62 	.globl _SI
                             63 	.globl _ACK
                             64 	.globl _ARBLOST
                             65 	.globl _ACKRQ
                             66 	.globl _STO
                             67 	.globl _STA
                             68 	.globl _TXMODE
                             69 	.globl _MASTER
                             70 	.globl _PX0
                             71 	.globl _PT0
                             72 	.globl _PX1
                             73 	.globl _PT1
                             74 	.globl _PS0
                             75 	.globl _PT2
                             76 	.globl _PSPI0
                             77 	.globl _SPI1EN
                             78 	.globl _TXBMT1
                             79 	.globl _NSS1MD0
                             80 	.globl _NSS1MD1
                             81 	.globl _RXOVRN1
                             82 	.globl _MODF1
                             83 	.globl _WCOL1
                             84 	.globl _SPIF1
                             85 	.globl _EX0
                             86 	.globl _ET0
                             87 	.globl _EX1
                             88 	.globl _ET1
                             89 	.globl _ES0
                             90 	.globl _ET2
                             91 	.globl _ESPI0
                             92 	.globl _EA
                             93 	.globl _RI0
                             94 	.globl _TI0
                             95 	.globl _RB80
                             96 	.globl _TB80
                             97 	.globl _REN0
                             98 	.globl _MCE0
                             99 	.globl _S0MODE
                            100 	.globl _CRC0VAL
                            101 	.globl _CRC0INIT
                            102 	.globl _CRC0SEL
                            103 	.globl _IT0
                            104 	.globl _IE0
                            105 	.globl _IT1
                            106 	.globl _IE1
                            107 	.globl _TR0
                            108 	.globl _TF0
                            109 	.globl _TR1
                            110 	.globl _TF1
                            111 	.globl _PCA0CP4
                            112 	.globl _PCA0CP0
                            113 	.globl _PCA0
                            114 	.globl _PCA0CP3
                            115 	.globl _PCA0CP2
                            116 	.globl _PCA0CP1
                            117 	.globl _PCA0CP5
                            118 	.globl _TMR2
                            119 	.globl _TMR2RL
                            120 	.globl _ADC0LT
                            121 	.globl _ADC0GT
                            122 	.globl _ADC0
                            123 	.globl _TMR3
                            124 	.globl _TMR3RL
                            125 	.globl _TOFF
                            126 	.globl _DP
                            127 	.globl _VDM0CN
                            128 	.globl _PCA0CPH4
                            129 	.globl _PCA0CPL4
                            130 	.globl _PCA0CPH0
                            131 	.globl _PCA0CPL0
                            132 	.globl _PCA0H
                            133 	.globl _PCA0L
                            134 	.globl _SPI0CN
                            135 	.globl _EIP2
                            136 	.globl _EIP1
                            137 	.globl _SMB0ADM
                            138 	.globl _SMB0ADR
                            139 	.globl _P2MDIN
                            140 	.globl _P1MDIN
                            141 	.globl _P0MDIN
                            142 	.globl _B
                            143 	.globl _RSTSRC
                            144 	.globl _PCA0CPH3
                            145 	.globl _PCA0CPL3
                            146 	.globl _PCA0CPH2
                            147 	.globl _PCA0CPL2
                            148 	.globl _PCA0CPH1
                            149 	.globl _PCA0CPL1
                            150 	.globl _ADC0CN
                            151 	.globl _EIE2
                            152 	.globl _EIE1
                            153 	.globl _FLWR
                            154 	.globl _IT01CF
                            155 	.globl _XBR2
                            156 	.globl _XBR1
                            157 	.globl _XBR0
                            158 	.globl _ACC
                            159 	.globl _PCA0PWM
                            160 	.globl _PCA0CPM4
                            161 	.globl _PCA0CPM3
                            162 	.globl _PCA0CPM2
                            163 	.globl _PCA0CPM1
                            164 	.globl _PCA0CPM0
                            165 	.globl _PCA0MD
                            166 	.globl _PCA0CN
                            167 	.globl _P0MAT
                            168 	.globl _P2SKIP
                            169 	.globl _P1SKIP
                            170 	.globl _P0SKIP
                            171 	.globl _PCA0CPH5
                            172 	.globl _PCA0CPL5
                            173 	.globl _REF0CN
                            174 	.globl _PSW
                            175 	.globl _P1MAT
                            176 	.globl _PCA0CPM5
                            177 	.globl _TMR2H
                            178 	.globl _TMR2L
                            179 	.globl _TMR2RLH
                            180 	.globl _TMR2RLL
                            181 	.globl _REG0CN
                            182 	.globl _TMR2CN
                            183 	.globl _P0MASK
                            184 	.globl _ADC0LTH
                            185 	.globl _ADC0LTL
                            186 	.globl _ADC0GTH
                            187 	.globl _ADC0GTL
                            188 	.globl _SMB0DAT
                            189 	.globl _SMB0CF
                            190 	.globl _SMB0CN
                            191 	.globl _P1MASK
                            192 	.globl _ADC0H
                            193 	.globl _ADC0L
                            194 	.globl _ADC0TK
                            195 	.globl _ADC0CF
                            196 	.globl _ADC0MX
                            197 	.globl _ADC0PWR
                            198 	.globl _ADC0AC
                            199 	.globl _IREF0CN
                            200 	.globl _IP
                            201 	.globl _FLKEY
                            202 	.globl _FLSCL
                            203 	.globl _PMU0CF
                            204 	.globl _OSCICL
                            205 	.globl _OSCICN
                            206 	.globl _OSCXCN
                            207 	.globl _SPI1CN
                            208 	.globl _ONESHOT
                            209 	.globl _EMI0TC
                            210 	.globl _RTC0KEY
                            211 	.globl _RTC0DAT
                            212 	.globl _RTC0ADR
                            213 	.globl _EMI0CF
                            214 	.globl _EMI0CN
                            215 	.globl _CLKSEL
                            216 	.globl _IE
                            217 	.globl _SFRPAGE
                            218 	.globl _P2DRV
                            219 	.globl _P2MDOUT
                            220 	.globl _P1DRV
                            221 	.globl _P1MDOUT
                            222 	.globl _P0DRV
                            223 	.globl _P0MDOUT
                            224 	.globl _SPI0DAT
                            225 	.globl _SPI0CKR
                            226 	.globl _SPI0CFG
                            227 	.globl _P2
                            228 	.globl _CPT0MX
                            229 	.globl _CPT1MX
                            230 	.globl _CPT0MD
                            231 	.globl _CPT1MD
                            232 	.globl _CPT0CN
                            233 	.globl _CPT1CN
                            234 	.globl _SBUF0
                            235 	.globl _SCON0
                            236 	.globl _CRC0CNT
                            237 	.globl _DC0CN
                            238 	.globl _CRC0AUTO
                            239 	.globl _DC0CF
                            240 	.globl _TMR3H
                            241 	.globl _CRC0FLIP
                            242 	.globl _TMR3L
                            243 	.globl _CRC0IN
                            244 	.globl _TMR3RLH
                            245 	.globl _CRC0CN
                            246 	.globl _TMR3RLL
                            247 	.globl _CRC0DAT
                            248 	.globl _TMR3CN
                            249 	.globl _P1
                            250 	.globl _PSCTL
                            251 	.globl _CKCON
                            252 	.globl _TH1
                            253 	.globl _TH0
                            254 	.globl _TL1
                            255 	.globl _TL0
                            256 	.globl _TMOD
                            257 	.globl _TCON
                            258 	.globl _PCON
                            259 	.globl _TOFFH
                            260 	.globl _SPI1DAT
                            261 	.globl _TOFFL
                            262 	.globl _SPI1CKR
                            263 	.globl _SPI1CFG
                            264 	.globl _DPH
                            265 	.globl _DPL
                            266 	.globl _SP
                            267 	.globl _P0
                            268 	.globl _golay_decode_PARM_3
                            269 	.globl _golay_decode_PARM_2
                            270 	.globl _golay_encode_PARM_3
                            271 	.globl _golay_encode_PARM_2
                            272 ;--------------------------------------------------------
                            273 ; special function registers
                            274 ;--------------------------------------------------------
                            275 	.area RSEG    (ABS,DATA)
   0000                     276 	.org 0x0000
                     0080   277 _P0	=	0x0080
                     0081   278 _SP	=	0x0081
                     0082   279 _DPL	=	0x0082
                     0083   280 _DPH	=	0x0083
                     0084   281 _SPI1CFG	=	0x0084
                     0085   282 _SPI1CKR	=	0x0085
                     0085   283 _TOFFL	=	0x0085
                     0086   284 _SPI1DAT	=	0x0086
                     0086   285 _TOFFH	=	0x0086
                     0087   286 _PCON	=	0x0087
                     0088   287 _TCON	=	0x0088
                     0089   288 _TMOD	=	0x0089
                     008A   289 _TL0	=	0x008a
                     008B   290 _TL1	=	0x008b
                     008C   291 _TH0	=	0x008c
                     008D   292 _TH1	=	0x008d
                     008E   293 _CKCON	=	0x008e
                     008F   294 _PSCTL	=	0x008f
                     0090   295 _P1	=	0x0090
                     0091   296 _TMR3CN	=	0x0091
                     0091   297 _CRC0DAT	=	0x0091
                     0092   298 _TMR3RLL	=	0x0092
                     0092   299 _CRC0CN	=	0x0092
                     0093   300 _TMR3RLH	=	0x0093
                     0093   301 _CRC0IN	=	0x0093
                     0094   302 _TMR3L	=	0x0094
                     0095   303 _CRC0FLIP	=	0x0095
                     0095   304 _TMR3H	=	0x0095
                     0096   305 _DC0CF	=	0x0096
                     0096   306 _CRC0AUTO	=	0x0096
                     0097   307 _DC0CN	=	0x0097
                     0097   308 _CRC0CNT	=	0x0097
                     0098   309 _SCON0	=	0x0098
                     0099   310 _SBUF0	=	0x0099
                     009A   311 _CPT1CN	=	0x009a
                     009B   312 _CPT0CN	=	0x009b
                     009C   313 _CPT1MD	=	0x009c
                     009D   314 _CPT0MD	=	0x009d
                     009E   315 _CPT1MX	=	0x009e
                     009F   316 _CPT0MX	=	0x009f
                     00A0   317 _P2	=	0x00a0
                     00A1   318 _SPI0CFG	=	0x00a1
                     00A2   319 _SPI0CKR	=	0x00a2
                     00A3   320 _SPI0DAT	=	0x00a3
                     00A4   321 _P0MDOUT	=	0x00a4
                     00A4   322 _P0DRV	=	0x00a4
                     00A5   323 _P1MDOUT	=	0x00a5
                     00A5   324 _P1DRV	=	0x00a5
                     00A6   325 _P2MDOUT	=	0x00a6
                     00A6   326 _P2DRV	=	0x00a6
                     00A7   327 _SFRPAGE	=	0x00a7
                     00A8   328 _IE	=	0x00a8
                     00A9   329 _CLKSEL	=	0x00a9
                     00AA   330 _EMI0CN	=	0x00aa
                     00AB   331 _EMI0CF	=	0x00ab
                     00AC   332 _RTC0ADR	=	0x00ac
                     00AD   333 _RTC0DAT	=	0x00ad
                     00AE   334 _RTC0KEY	=	0x00ae
                     00AF   335 _EMI0TC	=	0x00af
                     00AF   336 _ONESHOT	=	0x00af
                     00B0   337 _SPI1CN	=	0x00b0
                     00B1   338 _OSCXCN	=	0x00b1
                     00B2   339 _OSCICN	=	0x00b2
                     00B3   340 _OSCICL	=	0x00b3
                     00B5   341 _PMU0CF	=	0x00b5
                     00B6   342 _FLSCL	=	0x00b6
                     00B7   343 _FLKEY	=	0x00b7
                     00B8   344 _IP	=	0x00b8
                     00B9   345 _IREF0CN	=	0x00b9
                     00BA   346 _ADC0AC	=	0x00ba
                     00BA   347 _ADC0PWR	=	0x00ba
                     00BB   348 _ADC0MX	=	0x00bb
                     00BC   349 _ADC0CF	=	0x00bc
                     00BD   350 _ADC0TK	=	0x00bd
                     00BD   351 _ADC0L	=	0x00bd
                     00BE   352 _ADC0H	=	0x00be
                     00BF   353 _P1MASK	=	0x00bf
                     00C0   354 _SMB0CN	=	0x00c0
                     00C1   355 _SMB0CF	=	0x00c1
                     00C2   356 _SMB0DAT	=	0x00c2
                     00C3   357 _ADC0GTL	=	0x00c3
                     00C4   358 _ADC0GTH	=	0x00c4
                     00C5   359 _ADC0LTL	=	0x00c5
                     00C6   360 _ADC0LTH	=	0x00c6
                     00C7   361 _P0MASK	=	0x00c7
                     00C8   362 _TMR2CN	=	0x00c8
                     00C9   363 _REG0CN	=	0x00c9
                     00CA   364 _TMR2RLL	=	0x00ca
                     00CB   365 _TMR2RLH	=	0x00cb
                     00CC   366 _TMR2L	=	0x00cc
                     00CD   367 _TMR2H	=	0x00cd
                     00CE   368 _PCA0CPM5	=	0x00ce
                     00CF   369 _P1MAT	=	0x00cf
                     00D0   370 _PSW	=	0x00d0
                     00D1   371 _REF0CN	=	0x00d1
                     00D2   372 _PCA0CPL5	=	0x00d2
                     00D3   373 _PCA0CPH5	=	0x00d3
                     00D4   374 _P0SKIP	=	0x00d4
                     00D5   375 _P1SKIP	=	0x00d5
                     00D6   376 _P2SKIP	=	0x00d6
                     00D7   377 _P0MAT	=	0x00d7
                     00D8   378 _PCA0CN	=	0x00d8
                     00D9   379 _PCA0MD	=	0x00d9
                     00DA   380 _PCA0CPM0	=	0x00da
                     00DB   381 _PCA0CPM1	=	0x00db
                     00DC   382 _PCA0CPM2	=	0x00dc
                     00DD   383 _PCA0CPM3	=	0x00dd
                     00DE   384 _PCA0CPM4	=	0x00de
                     00DF   385 _PCA0PWM	=	0x00df
                     00E0   386 _ACC	=	0x00e0
                     00E1   387 _XBR0	=	0x00e1
                     00E2   388 _XBR1	=	0x00e2
                     00E3   389 _XBR2	=	0x00e3
                     00E4   390 _IT01CF	=	0x00e4
                     00E5   391 _FLWR	=	0x00e5
                     00E6   392 _EIE1	=	0x00e6
                     00E7   393 _EIE2	=	0x00e7
                     00E8   394 _ADC0CN	=	0x00e8
                     00E9   395 _PCA0CPL1	=	0x00e9
                     00EA   396 _PCA0CPH1	=	0x00ea
                     00EB   397 _PCA0CPL2	=	0x00eb
                     00EC   398 _PCA0CPH2	=	0x00ec
                     00ED   399 _PCA0CPL3	=	0x00ed
                     00EE   400 _PCA0CPH3	=	0x00ee
                     00EF   401 _RSTSRC	=	0x00ef
                     00F0   402 _B	=	0x00f0
                     00F1   403 _P0MDIN	=	0x00f1
                     00F2   404 _P1MDIN	=	0x00f2
                     00F3   405 _P2MDIN	=	0x00f3
                     00F4   406 _SMB0ADR	=	0x00f4
                     00F5   407 _SMB0ADM	=	0x00f5
                     00F6   408 _EIP1	=	0x00f6
                     00F7   409 _EIP2	=	0x00f7
                     00F8   410 _SPI0CN	=	0x00f8
                     00F9   411 _PCA0L	=	0x00f9
                     00FA   412 _PCA0H	=	0x00fa
                     00FB   413 _PCA0CPL0	=	0x00fb
                     00FC   414 _PCA0CPH0	=	0x00fc
                     00FD   415 _PCA0CPL4	=	0x00fd
                     00FE   416 _PCA0CPH4	=	0x00fe
                     00FF   417 _VDM0CN	=	0x00ff
                     8382   418 _DP	=	0x8382
                     8685   419 _TOFF	=	0x8685
                     9392   420 _TMR3RL	=	0x9392
                     9594   421 _TMR3	=	0x9594
                     BEBD   422 _ADC0	=	0xbebd
                     C4C3   423 _ADC0GT	=	0xc4c3
                     C6C5   424 _ADC0LT	=	0xc6c5
                     CBCA   425 _TMR2RL	=	0xcbca
                     CDCC   426 _TMR2	=	0xcdcc
                     D3D2   427 _PCA0CP5	=	0xd3d2
                     EAE9   428 _PCA0CP1	=	0xeae9
                     ECEB   429 _PCA0CP2	=	0xeceb
                     EEED   430 _PCA0CP3	=	0xeeed
                     FAF9   431 _PCA0	=	0xfaf9
                     FCFB   432 _PCA0CP0	=	0xfcfb
                     FEFD   433 _PCA0CP4	=	0xfefd
                            434 ;--------------------------------------------------------
                            435 ; special function bits
                            436 ;--------------------------------------------------------
                            437 	.area RSEG    (ABS,DATA)
   0000                     438 	.org 0x0000
                     008F   439 _TF1	=	0x008f
                     008E   440 _TR1	=	0x008e
                     008D   441 _TF0	=	0x008d
                     008C   442 _TR0	=	0x008c
                     008B   443 _IE1	=	0x008b
                     008A   444 _IT1	=	0x008a
                     0089   445 _IE0	=	0x0089
                     0088   446 _IT0	=	0x0088
                     0096   447 _CRC0SEL	=	0x0096
                     0095   448 _CRC0INIT	=	0x0095
                     0094   449 _CRC0VAL	=	0x0094
                     009F   450 _S0MODE	=	0x009f
                     009D   451 _MCE0	=	0x009d
                     009C   452 _REN0	=	0x009c
                     009B   453 _TB80	=	0x009b
                     009A   454 _RB80	=	0x009a
                     0099   455 _TI0	=	0x0099
                     0098   456 _RI0	=	0x0098
                     00AF   457 _EA	=	0x00af
                     00AE   458 _ESPI0	=	0x00ae
                     00AD   459 _ET2	=	0x00ad
                     00AC   460 _ES0	=	0x00ac
                     00AB   461 _ET1	=	0x00ab
                     00AA   462 _EX1	=	0x00aa
                     00A9   463 _ET0	=	0x00a9
                     00A8   464 _EX0	=	0x00a8
                     00B7   465 _SPIF1	=	0x00b7
                     00B6   466 _WCOL1	=	0x00b6
                     00B5   467 _MODF1	=	0x00b5
                     00B4   468 _RXOVRN1	=	0x00b4
                     00B3   469 _NSS1MD1	=	0x00b3
                     00B2   470 _NSS1MD0	=	0x00b2
                     00B1   471 _TXBMT1	=	0x00b1
                     00B0   472 _SPI1EN	=	0x00b0
                     00BE   473 _PSPI0	=	0x00be
                     00BD   474 _PT2	=	0x00bd
                     00BC   475 _PS0	=	0x00bc
                     00BB   476 _PT1	=	0x00bb
                     00BA   477 _PX1	=	0x00ba
                     00B9   478 _PT0	=	0x00b9
                     00B8   479 _PX0	=	0x00b8
                     00C7   480 _MASTER	=	0x00c7
                     00C6   481 _TXMODE	=	0x00c6
                     00C5   482 _STA	=	0x00c5
                     00C4   483 _STO	=	0x00c4
                     00C3   484 _ACKRQ	=	0x00c3
                     00C2   485 _ARBLOST	=	0x00c2
                     00C1   486 _ACK	=	0x00c1
                     00C0   487 _SI	=	0x00c0
                     00CF   488 _TF2H	=	0x00cf
                     00CE   489 _TF2L	=	0x00ce
                     00CD   490 _TF2LEN	=	0x00cd
                     00CC   491 _TF2CEN	=	0x00cc
                     00CB   492 _T2SPLIT	=	0x00cb
                     00CA   493 _TR2	=	0x00ca
                     00C9   494 _T2RCLK	=	0x00c9
                     00C8   495 _T2XCLK	=	0x00c8
                     00D7   496 _CY	=	0x00d7
                     00D6   497 _AC	=	0x00d6
                     00D5   498 _F0	=	0x00d5
                     00D4   499 _RS1	=	0x00d4
                     00D3   500 _RS0	=	0x00d3
                     00D2   501 _OV	=	0x00d2
                     00D1   502 _F1	=	0x00d1
                     00D0   503 _P	=	0x00d0
                     00DF   504 _CF	=	0x00df
                     00DE   505 _CR	=	0x00de
                     00DD   506 _CCF5	=	0x00dd
                     00DC   507 _CCF4	=	0x00dc
                     00DB   508 _CCF3	=	0x00db
                     00DA   509 _CCF2	=	0x00da
                     00D9   510 _CCF1	=	0x00d9
                     00D8   511 _CCF0	=	0x00d8
                     00EF   512 _AD0EN	=	0x00ef
                     00EE   513 _BURSTEN	=	0x00ee
                     00ED   514 _AD0INT	=	0x00ed
                     00EC   515 _AD0BUSY	=	0x00ec
                     00EB   516 _AD0WINT	=	0x00eb
                     00EA   517 _AD0CM2	=	0x00ea
                     00E9   518 _AD0CM1	=	0x00e9
                     00E8   519 _AD0CM0	=	0x00e8
                     00FF   520 _SPIF0	=	0x00ff
                     00FE   521 _WCOL0	=	0x00fe
                     00FD   522 _MODF0	=	0x00fd
                     00FC   523 _RXOVRN0	=	0x00fc
                     00FB   524 _NSS0MD1	=	0x00fb
                     00FA   525 _NSS0MD0	=	0x00fa
                     00F9   526 _TXBMT0	=	0x00f9
                     00F8   527 _SPI0EN	=	0x00f8
                     00A0   528 _LED_RED	=	0x00a0
                     00A5   529 _LED_GREEN	=	0x00a5
                     0086   530 _BUTTON_ENTER	=	0x0086
                     0095   531 _BUTTON_UP	=	0x0095
                     0096   532 _BUTTON_DOWN	=	0x0096
                     0087   533 _IRQ	=	0x0087
                     0094   534 _NSS1	=	0x0094
                     00A6   535 _SDN	=	0x00a6
                            536 ;--------------------------------------------------------
                            537 ; overlayable register banks
                            538 ;--------------------------------------------------------
                            539 	.area REG_BANK_0	(REL,OVR,DATA)
   0000                     540 	.ds 8
                            541 ;--------------------------------------------------------
                            542 ; internal ram data
                            543 ;--------------------------------------------------------
                            544 	.area DSEG    (DATA)
   0010                     545 _golay_decode24_v0_1_126:
   0010                     546 	.ds 2
   0012                     547 _golay_decode24_codeword_1_126:
   0012                     548 	.ds 4
   0016                     549 _golay_decode24_sloc0_1_0:
   0016                     550 	.ds 4
   001A                     551 _golay_decode24_sloc1_1_0:
   001A                     552 	.ds 4
                            553 ;--------------------------------------------------------
                            554 ; overlayable items in internal ram 
                            555 ;--------------------------------------------------------
                            556 	.area	OSEG    (OVR,DATA)
   0077                     557 _golay_syndrome_codeword_1_116:
   0077                     558 	.ds 4
   007B                     559 _golay_syndrome_shift_1_117:
   007B                     560 	.ds 4
   007F                     561 _golay_syndrome_shiftcount_1_117:
   007F                     562 	.ds 1
                            563 ;--------------------------------------------------------
                            564 ; indirectly addressable internal ram data
                            565 ;--------------------------------------------------------
                            566 	.area ISEG    (DATA)
                            567 ;--------------------------------------------------------
                            568 ; absolute internal ram data
                            569 ;--------------------------------------------------------
                            570 	.area IABS    (ABS,DATA)
                            571 	.area IABS    (ABS,DATA)
                            572 ;--------------------------------------------------------
                            573 ; bit data
                            574 ;--------------------------------------------------------
                            575 	.area BSEG    (BIT)
                            576 ;--------------------------------------------------------
                            577 ; paged external ram data
                            578 ;--------------------------------------------------------
                            579 	.area PSEG    (PAG,XDATA)
   001B                     580 _g3:
   001B                     581 	.ds 3
   001E                     582 _g6:
   001E                     583 	.ds 6
   0024                     584 _golay_encode24_codeword_1_121:
   0024                     585 	.ds 4
   0028                     586 _golay_encode_PARM_2:
   0028                     587 	.ds 2
   002A                     588 _golay_encode_PARM_3:
   002A                     589 	.ds 2
   002C                     590 _golay_decode24_errcount_1_126:
   002C                     591 	.ds 1
   002D                     592 _golay_decode_PARM_2:
   002D                     593 	.ds 2
   002F                     594 _golay_decode_PARM_3:
   002F                     595 	.ds 2
   0031                     596 _golay_decode_errcount_1_130:
   0031                     597 	.ds 1
                            598 ;--------------------------------------------------------
                            599 ; external ram data
                            600 ;--------------------------------------------------------
                            601 	.area XSEG    (XDATA)
                            602 ;--------------------------------------------------------
                            603 ; absolute external ram data
                            604 ;--------------------------------------------------------
                            605 	.area XABS    (ABS,XDATA)
                            606 ;--------------------------------------------------------
                            607 ; external initialized ram data
                            608 ;--------------------------------------------------------
                            609 	.area XISEG   (XDATA)
                            610 	.area HOME    (CODE)
                            611 	.area GSINIT0 (CODE)
                            612 	.area GSINIT1 (CODE)
                            613 	.area GSINIT2 (CODE)
                            614 	.area GSINIT3 (CODE)
                            615 	.area GSINIT4 (CODE)
                            616 	.area GSINIT5 (CODE)
                            617 	.area GSINIT  (CODE)
                            618 	.area GSFINAL (CODE)
                            619 	.area CSEG    (CODE)
                            620 ;--------------------------------------------------------
                            621 ; global & static initialisations
                            622 ;--------------------------------------------------------
                            623 	.area HOME    (CODE)
                            624 	.area GSINIT  (CODE)
                            625 	.area GSFINAL (CODE)
                            626 	.area GSINIT  (CODE)
                            627 ;--------------------------------------------------------
                            628 ; Home
                            629 ;--------------------------------------------------------
                            630 	.area HOME    (CODE)
                            631 	.area HOME    (CODE)
                            632 ;--------------------------------------------------------
                            633 ; code
                            634 ;--------------------------------------------------------
                            635 	.area CSEG    (CODE)
                            636 ;------------------------------------------------------------
                            637 ;Allocation info for local variables in function 'golay_syndrome'
                            638 ;------------------------------------------------------------
                            639 ;codeword                  Allocated with name '_golay_syndrome_codeword_1_116'
                            640 ;shift                     Allocated with name '_golay_syndrome_shift_1_117'
                            641 ;shiftcount                Allocated with name '_golay_syndrome_shiftcount_1_117'
                            642 ;------------------------------------------------------------
                            643 ;	radio/golay.c:63: golay_syndrome(__data uint32_t codeword)
                            644 ;	-----------------------------------------
                            645 ;	 function golay_syndrome
                            646 ;	-----------------------------------------
   0CB9                     647 _golay_syndrome:
                     0007   648 	ar7 = 0x07
                     0006   649 	ar6 = 0x06
                     0005   650 	ar5 = 0x05
                     0004   651 	ar4 = 0x04
                     0003   652 	ar3 = 0x03
                     0002   653 	ar2 = 0x02
                     0001   654 	ar1 = 0x01
                     0000   655 	ar0 = 0x00
   0CB9 85 82 77      [24]  656 	mov	_golay_syndrome_codeword_1_116,dpl
   0CBC 85 83 78      [24]  657 	mov	(_golay_syndrome_codeword_1_116 + 1),dph
   0CBF 85 F0 79      [24]  658 	mov	(_golay_syndrome_codeword_1_116 + 2),b
   0CC2 F5 7A         [12]  659 	mov	(_golay_syndrome_codeword_1_116 + 3),a
                            660 ;	radio/golay.c:65: __data uint32_t shift = (1UL<<22);
   0CC4 E4            [12]  661 	clr	a
   0CC5 F5 7B         [12]  662 	mov	_golay_syndrome_shift_1_117,a
   0CC7 F5 7C         [12]  663 	mov	(_golay_syndrome_shift_1_117 + 1),a
   0CC9 75 7D 40      [24]  664 	mov	(_golay_syndrome_shift_1_117 + 2),#0x40
   0CCC F5 7E         [12]  665 	mov	(_golay_syndrome_shift_1_117 + 3),a
                            666 ;	radio/golay.c:66: __data uint8_t shiftcount = 11;
   0CCE 75 7F 0B      [24]  667 	mov	_golay_syndrome_shiftcount_1_117,#0x0B
                            668 ;	radio/golay.c:68: while (codeword >= (1UL<<11)) {
   0CD1                     669 00104$:
   0CD1 E5 78         [12]  670 	mov	a,(_golay_syndrome_codeword_1_116 + 1)
   0CD3 54 F8         [12]  671 	anl	a,#0xF8
   0CD5 70 08         [24]  672 	jnz	00121$
   0CD7 E5 79         [12]  673 	mov	a,(_golay_syndrome_codeword_1_116 + 2)
   0CD9 70 04         [24]  674 	jnz	00121$
   0CDB E5 7A         [12]  675 	mov	a,(_golay_syndrome_codeword_1_116 + 3)
   0CDD 60 62         [24]  676 	jz	00106$
   0CDF                     677 00121$:
                            678 ;	radio/golay.c:69: while ((shift & codeword) == 0) {
   0CDF AB 7F         [24]  679 	mov	r3,_golay_syndrome_shiftcount_1_117
   0CE1                     680 00101$:
   0CE1 E5 77         [12]  681 	mov	a,_golay_syndrome_codeword_1_116
   0CE3 55 7B         [12]  682 	anl	a,_golay_syndrome_shift_1_117
   0CE5 F8            [12]  683 	mov	r0,a
   0CE6 E5 78         [12]  684 	mov	a,(_golay_syndrome_codeword_1_116 + 1)
   0CE8 55 7C         [12]  685 	anl	a,(_golay_syndrome_shift_1_117 + 1)
   0CEA F9            [12]  686 	mov	r1,a
   0CEB E5 79         [12]  687 	mov	a,(_golay_syndrome_codeword_1_116 + 2)
   0CED 55 7D         [12]  688 	anl	a,(_golay_syndrome_shift_1_117 + 2)
   0CEF FA            [12]  689 	mov	r2,a
   0CF0 E5 7A         [12]  690 	mov	a,(_golay_syndrome_codeword_1_116 + 3)
   0CF2 55 7E         [12]  691 	anl	a,(_golay_syndrome_shift_1_117 + 3)
   0CF4 FF            [12]  692 	mov	r7,a
   0CF5 E8            [12]  693 	mov	a,r0
   0CF6 49            [12]  694 	orl	a,r1
   0CF7 4A            [12]  695 	orl	a,r2
   0CF8 4F            [12]  696 	orl	a,r7
   0CF9 70 18         [24]  697 	jnz	00112$
                            698 ;	radio/golay.c:70: shift >>= 1;
   0CFB E5 7E         [12]  699 	mov	a,(_golay_syndrome_shift_1_117 + 3)
   0CFD C3            [12]  700 	clr	c
   0CFE 13            [12]  701 	rrc	a
   0CFF F5 7E         [12]  702 	mov	(_golay_syndrome_shift_1_117 + 3),a
   0D01 E5 7D         [12]  703 	mov	a,(_golay_syndrome_shift_1_117 + 2)
   0D03 13            [12]  704 	rrc	a
   0D04 F5 7D         [12]  705 	mov	(_golay_syndrome_shift_1_117 + 2),a
   0D06 E5 7C         [12]  706 	mov	a,(_golay_syndrome_shift_1_117 + 1)
   0D08 13            [12]  707 	rrc	a
   0D09 F5 7C         [12]  708 	mov	(_golay_syndrome_shift_1_117 + 1),a
   0D0B E5 7B         [12]  709 	mov	a,_golay_syndrome_shift_1_117
   0D0D 13            [12]  710 	rrc	a
   0D0E F5 7B         [12]  711 	mov	_golay_syndrome_shift_1_117,a
                            712 ;	radio/golay.c:71: shiftcount--;
   0D10 1B            [12]  713 	dec	r3
   0D11 80 CE         [24]  714 	sjmp	00101$
   0D13                     715 00112$:
                            716 ;	radio/golay.c:73: codeword ^= shift_table[shiftcount];
   0D13 EB            [12]  717 	mov	a,r3
   0D14 F5 7F         [12]  718 	mov	_golay_syndrome_shiftcount_1_117,a
   0D16 75 F0 04      [24]  719 	mov	b,#0x04
   0D19 A4            [48]  720 	mul	ab
   0D1A 24 6C         [12]  721 	add	a,#_shift_table
   0D1C F5 82         [12]  722 	mov	dpl,a
   0D1E 74 C7         [12]  723 	mov	a,#(_shift_table >> 8)
   0D20 35 F0         [12]  724 	addc	a,b
   0D22 F5 83         [12]  725 	mov	dph,a
   0D24 E4            [12]  726 	clr	a
   0D25 93            [24]  727 	movc	a,@a+dptr
   0D26 FC            [12]  728 	mov	r4,a
   0D27 A3            [24]  729 	inc	dptr
   0D28 E4            [12]  730 	clr	a
   0D29 93            [24]  731 	movc	a,@a+dptr
   0D2A FD            [12]  732 	mov	r5,a
   0D2B A3            [24]  733 	inc	dptr
   0D2C E4            [12]  734 	clr	a
   0D2D 93            [24]  735 	movc	a,@a+dptr
   0D2E FE            [12]  736 	mov	r6,a
   0D2F A3            [24]  737 	inc	dptr
   0D30 E4            [12]  738 	clr	a
   0D31 93            [24]  739 	movc	a,@a+dptr
   0D32 FF            [12]  740 	mov	r7,a
   0D33 EC            [12]  741 	mov	a,r4
   0D34 62 77         [12]  742 	xrl	_golay_syndrome_codeword_1_116,a
   0D36 ED            [12]  743 	mov	a,r5
   0D37 62 78         [12]  744 	xrl	(_golay_syndrome_codeword_1_116 + 1),a
   0D39 EE            [12]  745 	mov	a,r6
   0D3A 62 79         [12]  746 	xrl	(_golay_syndrome_codeword_1_116 + 2),a
   0D3C EF            [12]  747 	mov	a,r7
   0D3D 62 7A         [12]  748 	xrl	(_golay_syndrome_codeword_1_116 + 3),a
   0D3F 80 90         [24]  749 	sjmp	00104$
   0D41                     750 00106$:
                            751 ;	radio/golay.c:75: return codeword;
   0D41 AC 77         [24]  752 	mov	r4,_golay_syndrome_codeword_1_116
   0D43 AD 78         [24]  753 	mov	r5,(_golay_syndrome_codeword_1_116 + 1)
   0D45 8C 82         [24]  754 	mov	dpl,r4
   0D47 8D 83         [24]  755 	mov	dph,r5
   0D49 22            [24]  756 	ret
                            757 ;------------------------------------------------------------
                            758 ;Allocation info for local variables in function 'golay_encode24'
                            759 ;------------------------------------------------------------
                            760 ;	radio/golay.c:82: golay_encode24(void)
                            761 ;	-----------------------------------------
                            762 ;	 function golay_encode24
                            763 ;	-----------------------------------------
   0D4A                     764 _golay_encode24:
                            765 ;	radio/golay.c:87: v = g3[0] | ((uint16_t)g3[1]&0xF)<<8;
   0D4A 78 1B         [12]  766 	mov	r0,#_g3
   0D4C E2            [24]  767 	movx	a,@r0
   0D4D FF            [12]  768 	mov	r7,a
   0D4E 78 1C         [12]  769 	mov	r0,#(_g3 + 0x0001)
   0D50 E2            [24]  770 	movx	a,@r0
   0D51 FE            [12]  771 	mov	r6,a
   0D52 53 06 0F      [24]  772 	anl	ar6,#0x0F
   0D55 8E 05         [24]  773 	mov	ar5,r6
   0D57 E4            [12]  774 	clr	a
   0D58 FE            [12]  775 	mov	r6,a
   0D59 FC            [12]  776 	mov	r4,a
   0D5A EF            [12]  777 	mov	a,r7
   0D5B 42 06         [12]  778 	orl	ar6,a
   0D5D EC            [12]  779 	mov	a,r4
   0D5E 42 05         [12]  780 	orl	ar5,a
                            781 ;	radio/golay.c:88: codeword = golay23_encode[v];
   0D60 8E 04         [24]  782 	mov	ar4,r6
   0D62 ED            [12]  783 	mov	a,r5
   0D63 CC            [12]  784 	xch	a,r4
   0D64 25 E0         [12]  785 	add	a,acc
   0D66 CC            [12]  786 	xch	a,r4
   0D67 33            [12]  787 	rlc	a
   0D68 CC            [12]  788 	xch	a,r4
   0D69 25 E0         [12]  789 	add	a,acc
   0D6B CC            [12]  790 	xch	a,r4
   0D6C 33            [12]  791 	rlc	a
   0D6D FF            [12]  792 	mov	r7,a
   0D6E EC            [12]  793 	mov	a,r4
   0D6F 24 6C         [12]  794 	add	a,#_golay23_encode
   0D71 F5 82         [12]  795 	mov	dpl,a
   0D73 EF            [12]  796 	mov	a,r7
   0D74 34 67         [12]  797 	addc	a,#(_golay23_encode >> 8)
   0D76 F5 83         [12]  798 	mov	dph,a
   0D78 78 24         [12]  799 	mov	r0,#_golay_encode24_codeword_1_121
   0D7A E4            [12]  800 	clr	a
   0D7B 93            [24]  801 	movc	a,@a+dptr
   0D7C F2            [24]  802 	movx	@r0,a
   0D7D A3            [24]  803 	inc	dptr
   0D7E E4            [12]  804 	clr	a
   0D7F 93            [24]  805 	movc	a,@a+dptr
   0D80 08            [12]  806 	inc	r0
   0D81 F2            [24]  807 	movx	@r0,a
   0D82 A3            [24]  808 	inc	dptr
   0D83 E4            [12]  809 	clr	a
   0D84 93            [24]  810 	movc	a,@a+dptr
   0D85 08            [12]  811 	inc	r0
   0D86 F2            [24]  812 	movx	@r0,a
   0D87 A3            [24]  813 	inc	dptr
   0D88 E4            [12]  814 	clr	a
   0D89 93            [24]  815 	movc	a,@a+dptr
   0D8A 08            [12]  816 	inc	r0
   0D8B F2            [24]  817 	movx	@r0,a
                            818 ;	radio/golay.c:89: g6[0] = codeword & 0xFF;
   0D8C 78 24         [12]  819 	mov	r0,#_golay_encode24_codeword_1_121
   0D8E E2            [24]  820 	movx	a,@r0
   0D8F 54 FF         [12]  821 	anl	a,#0xFF
   0D91 FA            [12]  822 	mov	r2,a
   0D92 08            [12]  823 	inc	r0
   0D93 E2            [24]  824 	movx	a,@r0
   0D94 54 00         [12]  825 	anl	a,#0x00
   0D96 08            [12]  826 	inc	r0
   0D97 E2            [24]  827 	movx	a,@r0
   0D98 54 00         [12]  828 	anl	a,#0x00
   0D9A 08            [12]  829 	inc	r0
   0D9B E2            [24]  830 	movx	a,@r0
   0D9C 54 00         [12]  831 	anl	a,#0x00
   0D9E 78 1E         [12]  832 	mov	r0,#_g6
   0DA0 EA            [12]  833 	mov	a,r2
   0DA1 F2            [24]  834 	movx	@r0,a
                            835 ;	radio/golay.c:90: g6[1] = (codeword >> 8) & 0xFF;
   0DA2 78 25         [12]  836 	mov	r0,#(_golay_encode24_codeword_1_121 + 1)
   0DA4 E2            [24]  837 	movx	a,@r0
   0DA5 78 1F         [12]  838 	mov	r0,#(_g6 + 0x0001)
   0DA7 F2            [24]  839 	movx	@r0,a
                            840 ;	radio/golay.c:91: g6[2] = (codeword >> 16) & 0xFF;
   0DA8 78 26         [12]  841 	mov	r0,#(_golay_encode24_codeword_1_121 + 2)
   0DAA E2            [24]  842 	movx	a,@r0
   0DAB 78 20         [12]  843 	mov	r0,#(_g6 + 0x0002)
   0DAD F2            [24]  844 	movx	@r0,a
                            845 ;	radio/golay.c:93: v = g3[2] | ((uint16_t)g3[1]&0xF0)<<4;
   0DAE 78 1D         [12]  846 	mov	r0,#(_g3 + 0x0002)
   0DB0 E2            [24]  847 	movx	a,@r0
   0DB1 FF            [12]  848 	mov	r7,a
   0DB2 78 1C         [12]  849 	mov	r0,#(_g3 + 0x0001)
   0DB4 E2            [24]  850 	movx	a,@r0
   0DB5 FC            [12]  851 	mov	r4,a
   0DB6 53 04 F0      [24]  852 	anl	ar4,#0xF0
   0DB9 E4            [12]  853 	clr	a
   0DBA CC            [12]  854 	xch	a,r4
   0DBB C4            [12]  855 	swap	a
   0DBC CC            [12]  856 	xch	a,r4
   0DBD 6C            [12]  857 	xrl	a,r4
   0DBE CC            [12]  858 	xch	a,r4
   0DBF 54 F0         [12]  859 	anl	a,#0xF0
   0DC1 CC            [12]  860 	xch	a,r4
   0DC2 6C            [12]  861 	xrl	a,r4
   0DC3 FB            [12]  862 	mov	r3,a
   0DC4 7A 00         [12]  863 	mov	r2,#0x00
   0DC6 EC            [12]  864 	mov	a,r4
   0DC7 4F            [12]  865 	orl	a,r7
   0DC8 FE            [12]  866 	mov	r6,a
   0DC9 EB            [12]  867 	mov	a,r3
   0DCA 4A            [12]  868 	orl	a,r2
                            869 ;	radio/golay.c:94: codeword = golay23_encode[v];
   0DCB CE            [12]  870 	xch	a,r6
   0DCC 25 E0         [12]  871 	add	a,acc
   0DCE CE            [12]  872 	xch	a,r6
   0DCF 33            [12]  873 	rlc	a
   0DD0 CE            [12]  874 	xch	a,r6
   0DD1 25 E0         [12]  875 	add	a,acc
   0DD3 CE            [12]  876 	xch	a,r6
   0DD4 33            [12]  877 	rlc	a
   0DD5 FD            [12]  878 	mov	r5,a
   0DD6 EE            [12]  879 	mov	a,r6
   0DD7 24 6C         [12]  880 	add	a,#_golay23_encode
   0DD9 F5 82         [12]  881 	mov	dpl,a
   0DDB ED            [12]  882 	mov	a,r5
   0DDC 34 67         [12]  883 	addc	a,#(_golay23_encode >> 8)
   0DDE F5 83         [12]  884 	mov	dph,a
   0DE0 78 24         [12]  885 	mov	r0,#_golay_encode24_codeword_1_121
   0DE2 E4            [12]  886 	clr	a
   0DE3 93            [24]  887 	movc	a,@a+dptr
   0DE4 F2            [24]  888 	movx	@r0,a
   0DE5 A3            [24]  889 	inc	dptr
   0DE6 E4            [12]  890 	clr	a
   0DE7 93            [24]  891 	movc	a,@a+dptr
   0DE8 08            [12]  892 	inc	r0
   0DE9 F2            [24]  893 	movx	@r0,a
   0DEA A3            [24]  894 	inc	dptr
   0DEB E4            [12]  895 	clr	a
   0DEC 93            [24]  896 	movc	a,@a+dptr
   0DED 08            [12]  897 	inc	r0
   0DEE F2            [24]  898 	movx	@r0,a
   0DEF A3            [24]  899 	inc	dptr
   0DF0 E4            [12]  900 	clr	a
   0DF1 93            [24]  901 	movc	a,@a+dptr
   0DF2 08            [12]  902 	inc	r0
   0DF3 F2            [24]  903 	movx	@r0,a
                            904 ;	radio/golay.c:95: g6[3] = codeword & 0xFF;
   0DF4 78 24         [12]  905 	mov	r0,#_golay_encode24_codeword_1_121
   0DF6 E2            [24]  906 	movx	a,@r0
   0DF7 54 FF         [12]  907 	anl	a,#0xFF
   0DF9 FC            [12]  908 	mov	r4,a
   0DFA 08            [12]  909 	inc	r0
   0DFB E2            [24]  910 	movx	a,@r0
   0DFC 54 00         [12]  911 	anl	a,#0x00
   0DFE 08            [12]  912 	inc	r0
   0DFF E2            [24]  913 	movx	a,@r0
   0E00 54 00         [12]  914 	anl	a,#0x00
   0E02 08            [12]  915 	inc	r0
   0E03 E2            [24]  916 	movx	a,@r0
   0E04 54 00         [12]  917 	anl	a,#0x00
   0E06 78 21         [12]  918 	mov	r0,#(_g6 + 0x0003)
   0E08 EC            [12]  919 	mov	a,r4
   0E09 F2            [24]  920 	movx	@r0,a
                            921 ;	radio/golay.c:96: g6[4] = (codeword >> 8) & 0xFF;
   0E0A 78 25         [12]  922 	mov	r0,#(_golay_encode24_codeword_1_121 + 1)
   0E0C E2            [24]  923 	movx	a,@r0
   0E0D 78 22         [12]  924 	mov	r0,#(_g6 + 0x0004)
   0E0F F2            [24]  925 	movx	@r0,a
                            926 ;	radio/golay.c:97: g6[5] = (codeword >> 16) & 0xFF;
   0E10 78 26         [12]  927 	mov	r0,#(_golay_encode24_codeword_1_121 + 2)
   0E12 E2            [24]  928 	movx	a,@r0
   0E13 78 23         [12]  929 	mov	r0,#(_g6 + 0x0005)
   0E15 F2            [24]  930 	movx	@r0,a
   0E16 22            [24]  931 	ret
                            932 ;------------------------------------------------------------
                            933 ;Allocation info for local variables in function 'golay_encode'
                            934 ;------------------------------------------------------------
                            935 ;	radio/golay.c:103: golay_encode(__pdata uint8_t n, __xdata uint8_t * __pdata in, __xdata uint8_t * __pdata out)
                            936 ;	-----------------------------------------
                            937 ;	 function golay_encode
                            938 ;	-----------------------------------------
   0E17                     939 _golay_encode:
   0E17 AF 82         [24]  940 	mov	r7,dpl
                            941 ;	radio/golay.c:105: while (n >= 3) {
   0E19 78 28         [12]  942 	mov	r0,#_golay_encode_PARM_2
   0E1B E2            [24]  943 	movx	a,@r0
   0E1C FD            [12]  944 	mov	r5,a
   0E1D 08            [12]  945 	inc	r0
   0E1E E2            [24]  946 	movx	a,@r0
   0E1F FE            [12]  947 	mov	r6,a
   0E20 78 2A         [12]  948 	mov	r0,#_golay_encode_PARM_3
   0E22 E2            [24]  949 	movx	a,@r0
   0E23 FB            [12]  950 	mov	r3,a
   0E24 08            [12]  951 	inc	r0
   0E25 E2            [24]  952 	movx	a,@r0
   0E26 FC            [12]  953 	mov	r4,a
   0E27                     954 00101$:
   0E27 BF 03 00      [24]  955 	cjne	r7,#0x03,00113$
   0E2A                     956 00113$:
   0E2A 50 01         [24]  957 	jnc	00114$
   0E2C 22            [24]  958 	ret
   0E2D                     959 00114$:
                            960 ;	radio/golay.c:106: g3[0] = in[0]; g3[1] = in[1]; g3[2] = in[2];
   0E2D 8D 82         [24]  961 	mov	dpl,r5
   0E2F 8E 83         [24]  962 	mov	dph,r6
   0E31 E0            [24]  963 	movx	a,@dptr
   0E32 FA            [12]  964 	mov	r2,a
   0E33 78 1B         [12]  965 	mov	r0,#_g3
   0E35 EA            [12]  966 	mov	a,r2
   0E36 F2            [24]  967 	movx	@r0,a
   0E37 8D 82         [24]  968 	mov	dpl,r5
   0E39 8E 83         [24]  969 	mov	dph,r6
   0E3B A3            [24]  970 	inc	dptr
   0E3C E0            [24]  971 	movx	a,@dptr
   0E3D FA            [12]  972 	mov	r2,a
   0E3E 78 1C         [12]  973 	mov	r0,#(_g3 + 0x0001)
   0E40 EA            [12]  974 	mov	a,r2
   0E41 F2            [24]  975 	movx	@r0,a
   0E42 8D 82         [24]  976 	mov	dpl,r5
   0E44 8E 83         [24]  977 	mov	dph,r6
   0E46 A3            [24]  978 	inc	dptr
   0E47 A3            [24]  979 	inc	dptr
   0E48 E0            [24]  980 	movx	a,@dptr
   0E49 FA            [12]  981 	mov	r2,a
   0E4A 78 1D         [12]  982 	mov	r0,#(_g3 + 0x0002)
   0E4C EA            [12]  983 	mov	a,r2
   0E4D F2            [24]  984 	movx	@r0,a
                            985 ;	radio/golay.c:107: golay_encode24();
   0E4E C0 07         [24]  986 	push	ar7
   0E50 C0 06         [24]  987 	push	ar6
   0E52 C0 05         [24]  988 	push	ar5
   0E54 C0 04         [24]  989 	push	ar4
   0E56 C0 03         [24]  990 	push	ar3
   0E58 12 0D 4A      [24]  991 	lcall	_golay_encode24
   0E5B D0 03         [24]  992 	pop	ar3
   0E5D D0 04         [24]  993 	pop	ar4
   0E5F D0 05         [24]  994 	pop	ar5
   0E61 D0 06         [24]  995 	pop	ar6
   0E63 D0 07         [24]  996 	pop	ar7
                            997 ;	radio/golay.c:108: out[0] = g6[0]; out[1] = g6[1]; out[2] = g6[2]; 
   0E65 78 1E         [12]  998 	mov	r0,#_g6
   0E67 E2            [24]  999 	movx	a,@r0
   0E68 8B 82         [24] 1000 	mov	dpl,r3
   0E6A 8C 83         [24] 1001 	mov	dph,r4
   0E6C F0            [24] 1002 	movx	@dptr,a
   0E6D 8B 82         [24] 1003 	mov	dpl,r3
   0E6F 8C 83         [24] 1004 	mov	dph,r4
   0E71 A3            [24] 1005 	inc	dptr
   0E72 78 1F         [12] 1006 	mov	r0,#(_g6 + 0x0001)
   0E74 E2            [24] 1007 	movx	a,@r0
   0E75 F0            [24] 1008 	movx	@dptr,a
   0E76 8B 82         [24] 1009 	mov	dpl,r3
   0E78 8C 83         [24] 1010 	mov	dph,r4
   0E7A A3            [24] 1011 	inc	dptr
   0E7B A3            [24] 1012 	inc	dptr
   0E7C 78 20         [12] 1013 	mov	r0,#(_g6 + 0x0002)
   0E7E E2            [24] 1014 	movx	a,@r0
   0E7F F0            [24] 1015 	movx	@dptr,a
                           1016 ;	radio/golay.c:109: out[3] = g6[3]; out[4] = g6[4]; out[5] = g6[5]; 
   0E80 8B 82         [24] 1017 	mov	dpl,r3
   0E82 8C 83         [24] 1018 	mov	dph,r4
   0E84 A3            [24] 1019 	inc	dptr
   0E85 A3            [24] 1020 	inc	dptr
   0E86 A3            [24] 1021 	inc	dptr
   0E87 78 21         [12] 1022 	mov	r0,#(_g6 + 0x0003)
   0E89 E2            [24] 1023 	movx	a,@r0
   0E8A F0            [24] 1024 	movx	@dptr,a
   0E8B 8B 82         [24] 1025 	mov	dpl,r3
   0E8D 8C 83         [24] 1026 	mov	dph,r4
   0E8F A3            [24] 1027 	inc	dptr
   0E90 A3            [24] 1028 	inc	dptr
   0E91 A3            [24] 1029 	inc	dptr
   0E92 A3            [24] 1030 	inc	dptr
   0E93 78 22         [12] 1031 	mov	r0,#(_g6 + 0x0004)
   0E95 E2            [24] 1032 	movx	a,@r0
   0E96 F0            [24] 1033 	movx	@dptr,a
   0E97 8B 82         [24] 1034 	mov	dpl,r3
   0E99 8C 83         [24] 1035 	mov	dph,r4
   0E9B A3            [24] 1036 	inc	dptr
   0E9C A3            [24] 1037 	inc	dptr
   0E9D A3            [24] 1038 	inc	dptr
   0E9E A3            [24] 1039 	inc	dptr
   0E9F A3            [24] 1040 	inc	dptr
   0EA0 78 23         [12] 1041 	mov	r0,#(_g6 + 0x0005)
   0EA2 E2            [24] 1042 	movx	a,@r0
   0EA3 FA            [12] 1043 	mov	r2,a
   0EA4 F0            [24] 1044 	movx	@dptr,a
                           1045 ;	radio/golay.c:110: in += 3;
   0EA5 74 03         [12] 1046 	mov	a,#0x03
   0EA7 2D            [12] 1047 	add	a,r5
   0EA8 FD            [12] 1048 	mov	r5,a
   0EA9 E4            [12] 1049 	clr	a
   0EAA 3E            [12] 1050 	addc	a,r6
   0EAB FE            [12] 1051 	mov	r6,a
                           1052 ;	radio/golay.c:111: out += 6;
   0EAC 74 06         [12] 1053 	mov	a,#0x06
   0EAE 2B            [12] 1054 	add	a,r3
   0EAF FB            [12] 1055 	mov	r3,a
   0EB0 E4            [12] 1056 	clr	a
   0EB1 3C            [12] 1057 	addc	a,r4
   0EB2 FC            [12] 1058 	mov	r4,a
                           1059 ;	radio/golay.c:112: n -= 3;
   0EB3 1F            [12] 1060 	dec	r7
   0EB4 1F            [12] 1061 	dec	r7
   0EB5 1F            [12] 1062 	dec	r7
   0EB6 02 0E 27      [24] 1063 	ljmp	00101$
                           1064 ;------------------------------------------------------------
                           1065 ;Allocation info for local variables in function 'golay_decode24'
                           1066 ;------------------------------------------------------------
                           1067 ;v                         Allocated to registers r6 r7 
                           1068 ;v0                        Allocated with name '_golay_decode24_v0_1_126'
                           1069 ;codeword                  Allocated with name '_golay_decode24_codeword_1_126'
                           1070 ;sloc0                     Allocated with name '_golay_decode24_sloc0_1_0'
                           1071 ;sloc1                     Allocated with name '_golay_decode24_sloc1_1_0'
                           1072 ;------------------------------------------------------------
                           1073 ;	radio/golay.c:120: golay_decode24(void)
                           1074 ;	-----------------------------------------
                           1075 ;	 function golay_decode24
                           1076 ;	-----------------------------------------
   0EB9                    1077 _golay_decode24:
                           1078 ;	radio/golay.c:124: __pdata uint8_t errcount = 0;
   0EB9 78 2C         [12] 1079 	mov	r0,#_golay_decode24_errcount_1_126
   0EBB E4            [12] 1080 	clr	a
   0EBC F2            [24] 1081 	movx	@r0,a
                           1082 ;	radio/golay.c:126: codeword = g6[0] | (((uint16_t)g6[1])<<8) | (((uint32_t)(g6[2]&0x7F))<<16);
   0EBD 78 1E         [12] 1083 	mov	r0,#_g6
   0EBF E2            [24] 1084 	movx	a,@r0
   0EC0 FE            [12] 1085 	mov	r6,a
   0EC1 78 1F         [12] 1086 	mov	r0,#(_g6 + 0x0001)
   0EC3 E2            [24] 1087 	movx	a,@r0
   0EC4 FC            [12] 1088 	mov	r4,a
   0EC5 E4            [12] 1089 	clr	a
   0EC6 FD            [12] 1090 	mov	r5,a
   0EC7 FB            [12] 1091 	mov	r3,a
   0EC8 EE            [12] 1092 	mov	a,r6
   0EC9 42 05         [12] 1093 	orl	ar5,a
   0ECB EB            [12] 1094 	mov	a,r3
   0ECC 42 04         [12] 1095 	orl	ar4,a
   0ECE 78 20         [12] 1096 	mov	r0,#(_g6 + 0x0002)
   0ED0 E2            [24] 1097 	movx	a,@r0
   0ED1 FE            [12] 1098 	mov	r6,a
   0ED2 53 06 7F      [24] 1099 	anl	ar6,#0x7F
   0ED5 8E 02         [24] 1100 	mov	ar2,r6
   0ED7 7B 00         [12] 1101 	mov	r3,#0x00
   0ED9 8B 19         [24] 1102 	mov	(_golay_decode24_sloc0_1_0 + 3),r3
   0EDB 8A 18         [24] 1103 	mov	(_golay_decode24_sloc0_1_0 + 2),r2
   0EDD 75 17 00      [24] 1104 	mov	(_golay_decode24_sloc0_1_0 + 1),#0x00
   0EE0 E4            [12] 1105 	clr	a
   0EE1 F5 16         [12] 1106 	mov	_golay_decode24_sloc0_1_0,a
   0EE3 FE            [12] 1107 	mov	r6,a
   0EE4 FF            [12] 1108 	mov	r7,a
   0EE5 E5 16         [12] 1109 	mov	a,_golay_decode24_sloc0_1_0
   0EE7 4D            [12] 1110 	orl	a,r5
   0EE8 F5 12         [12] 1111 	mov	_golay_decode24_codeword_1_126,a
   0EEA E5 17         [12] 1112 	mov	a,(_golay_decode24_sloc0_1_0 + 1)
   0EEC 4C            [12] 1113 	orl	a,r4
   0EED F5 13         [12] 1114 	mov	(_golay_decode24_codeword_1_126 + 1),a
   0EEF E5 18         [12] 1115 	mov	a,(_golay_decode24_sloc0_1_0 + 2)
   0EF1 4E            [12] 1116 	orl	a,r6
   0EF2 F5 14         [12] 1117 	mov	(_golay_decode24_codeword_1_126 + 2),a
   0EF4 E5 19         [12] 1118 	mov	a,(_golay_decode24_sloc0_1_0 + 3)
   0EF6 4F            [12] 1119 	orl	a,r7
   0EF7 F5 15         [12] 1120 	mov	(_golay_decode24_codeword_1_126 + 3),a
                           1121 ;	radio/golay.c:127: v0 = codeword >> 11;
   0EF9 AA 13         [24] 1122 	mov	r2,(_golay_decode24_codeword_1_126 + 1)
   0EFB E5 14         [12] 1123 	mov	a,(_golay_decode24_codeword_1_126 + 2)
   0EFD C4            [12] 1124 	swap	a
   0EFE 23            [12] 1125 	rl	a
   0EFF CA            [12] 1126 	xch	a,r2
   0F00 C4            [12] 1127 	swap	a
   0F01 23            [12] 1128 	rl	a
   0F02 54 1F         [12] 1129 	anl	a,#0x1F
   0F04 6A            [12] 1130 	xrl	a,r2
   0F05 CA            [12] 1131 	xch	a,r2
   0F06 54 1F         [12] 1132 	anl	a,#0x1F
   0F08 CA            [12] 1133 	xch	a,r2
   0F09 6A            [12] 1134 	xrl	a,r2
   0F0A CA            [12] 1135 	xch	a,r2
   0F0B FB            [12] 1136 	mov	r3,a
   0F0C E5 15         [12] 1137 	mov	a,(_golay_decode24_codeword_1_126 + 3)
   0F0E C4            [12] 1138 	swap	a
   0F0F 23            [12] 1139 	rl	a
   0F10 54 E0         [12] 1140 	anl	a,#0xE0
   0F12 4B            [12] 1141 	orl	a,r3
   0F13 FB            [12] 1142 	mov	r3,a
   0F14 E5 15         [12] 1143 	mov	a,(_golay_decode24_codeword_1_126 + 3)
   0F16 C4            [12] 1144 	swap	a
   0F17 23            [12] 1145 	rl	a
   0F18 54 1F         [12] 1146 	anl	a,#0x1F
   0F1A 8A 10         [24] 1147 	mov	_golay_decode24_v0_1_126,r2
   0F1C 8B 11         [24] 1148 	mov	(_golay_decode24_v0_1_126 + 1),r3
                           1149 ;	radio/golay.c:128: v = golay_syndrome(codeword);
   0F1E 85 12 82      [24] 1150 	mov	dpl,_golay_decode24_codeword_1_126
   0F21 85 13 83      [24] 1151 	mov	dph,(_golay_decode24_codeword_1_126 + 1)
   0F24 85 14 F0      [24] 1152 	mov	b,(_golay_decode24_codeword_1_126 + 2)
   0F27 E5 15         [12] 1153 	mov	a,(_golay_decode24_codeword_1_126 + 3)
   0F29 12 0C B9      [24] 1154 	lcall	_golay_syndrome
   0F2C AE 82         [24] 1155 	mov	r6,dpl
   0F2E AF 83         [24] 1156 	mov	r7,dph
                           1157 ;	radio/golay.c:129: codeword ^= golay23_decode[v];
   0F30 8E 04         [24] 1158 	mov	ar4,r6
   0F32 EF            [12] 1159 	mov	a,r7
   0F33 CC            [12] 1160 	xch	a,r4
   0F34 25 E0         [12] 1161 	add	a,acc
   0F36 CC            [12] 1162 	xch	a,r4
   0F37 33            [12] 1163 	rlc	a
   0F38 CC            [12] 1164 	xch	a,r4
   0F39 25 E0         [12] 1165 	add	a,acc
   0F3B CC            [12] 1166 	xch	a,r4
   0F3C 33            [12] 1167 	rlc	a
   0F3D FD            [12] 1168 	mov	r5,a
   0F3E EC            [12] 1169 	mov	a,r4
   0F3F 24 6C         [12] 1170 	add	a,#_golay23_decode
   0F41 F5 82         [12] 1171 	mov	dpl,a
   0F43 ED            [12] 1172 	mov	a,r5
   0F44 34 A7         [12] 1173 	addc	a,#(_golay23_decode >> 8)
   0F46 F5 83         [12] 1174 	mov	dph,a
   0F48 E4            [12] 1175 	clr	a
   0F49 93            [24] 1176 	movc	a,@a+dptr
   0F4A FA            [12] 1177 	mov	r2,a
   0F4B A3            [24] 1178 	inc	dptr
   0F4C E4            [12] 1179 	clr	a
   0F4D 93            [24] 1180 	movc	a,@a+dptr
   0F4E FB            [12] 1181 	mov	r3,a
   0F4F A3            [24] 1182 	inc	dptr
   0F50 E4            [12] 1183 	clr	a
   0F51 93            [24] 1184 	movc	a,@a+dptr
   0F52 FC            [12] 1185 	mov	r4,a
   0F53 A3            [24] 1186 	inc	dptr
   0F54 E4            [12] 1187 	clr	a
   0F55 93            [24] 1188 	movc	a,@a+dptr
   0F56 FD            [12] 1189 	mov	r5,a
   0F57 EA            [12] 1190 	mov	a,r2
   0F58 62 12         [12] 1191 	xrl	_golay_decode24_codeword_1_126,a
   0F5A EB            [12] 1192 	mov	a,r3
   0F5B 62 13         [12] 1193 	xrl	(_golay_decode24_codeword_1_126 + 1),a
   0F5D EC            [12] 1194 	mov	a,r4
   0F5E 62 14         [12] 1195 	xrl	(_golay_decode24_codeword_1_126 + 2),a
   0F60 ED            [12] 1196 	mov	a,r5
   0F61 62 15         [12] 1197 	xrl	(_golay_decode24_codeword_1_126 + 3),a
                           1198 ;	radio/golay.c:130: v = codeword >> 11;
   0F63 AA 13         [24] 1199 	mov	r2,(_golay_decode24_codeword_1_126 + 1)
   0F65 E5 14         [12] 1200 	mov	a,(_golay_decode24_codeword_1_126 + 2)
   0F67 C4            [12] 1201 	swap	a
   0F68 23            [12] 1202 	rl	a
   0F69 CA            [12] 1203 	xch	a,r2
   0F6A C4            [12] 1204 	swap	a
   0F6B 23            [12] 1205 	rl	a
   0F6C 54 1F         [12] 1206 	anl	a,#0x1F
   0F6E 6A            [12] 1207 	xrl	a,r2
   0F6F CA            [12] 1208 	xch	a,r2
   0F70 54 1F         [12] 1209 	anl	a,#0x1F
   0F72 CA            [12] 1210 	xch	a,r2
   0F73 6A            [12] 1211 	xrl	a,r2
   0F74 CA            [12] 1212 	xch	a,r2
   0F75 FB            [12] 1213 	mov	r3,a
   0F76 E5 15         [12] 1214 	mov	a,(_golay_decode24_codeword_1_126 + 3)
   0F78 C4            [12] 1215 	swap	a
   0F79 23            [12] 1216 	rl	a
   0F7A 54 E0         [12] 1217 	anl	a,#0xE0
   0F7C 4B            [12] 1218 	orl	a,r3
   0F7D FB            [12] 1219 	mov	r3,a
   0F7E E5 15         [12] 1220 	mov	a,(_golay_decode24_codeword_1_126 + 3)
   0F80 C4            [12] 1221 	swap	a
   0F81 23            [12] 1222 	rl	a
   0F82 54 1F         [12] 1223 	anl	a,#0x1F
   0F84 FC            [12] 1224 	mov	r4,a
   0F85 7D 00         [12] 1225 	mov	r5,#0x00
   0F87 8A 06         [24] 1226 	mov	ar6,r2
   0F89 8B 07         [24] 1227 	mov	ar7,r3
                           1228 ;	radio/golay.c:131: if (v != v0) {
   0F8B EE            [12] 1229 	mov	a,r6
   0F8C B5 10 06      [24] 1230 	cjne	a,_golay_decode24_v0_1_126,00113$
   0F8F EF            [12] 1231 	mov	a,r7
   0F90 B5 11 02      [24] 1232 	cjne	a,(_golay_decode24_v0_1_126 + 1),00113$
   0F93 80 05         [24] 1233 	sjmp	00102$
   0F95                    1234 00113$:
                           1235 ;	radio/golay.c:132: errcount++;
   0F95 78 2C         [12] 1236 	mov	r0,#_golay_decode24_errcount_1_126
   0F97 74 01         [12] 1237 	mov	a,#0x01
   0F99 F2            [24] 1238 	movx	@r0,a
   0F9A                    1239 00102$:
                           1240 ;	radio/golay.c:135: g3[0] = v & 0xFF;
   0F9A 8E 04         [24] 1241 	mov	ar4,r6
   0F9C 78 1B         [12] 1242 	mov	r0,#_g3
   0F9E EC            [12] 1243 	mov	a,r4
   0F9F F2            [24] 1244 	movx	@r0,a
                           1245 ;	radio/golay.c:136: g3[1] = (v >> 8);
   0FA0 8F 05         [24] 1246 	mov	ar5,r7
   0FA2 78 1C         [12] 1247 	mov	r0,#(_g3 + 0x0001)
   0FA4 ED            [12] 1248 	mov	a,r5
   0FA5 F2            [24] 1249 	movx	@r0,a
                           1250 ;	radio/golay.c:138: codeword = g6[3] | (((uint16_t)g6[4])<<8) | (((uint32_t)(g6[5]&0x7F))<<16);
   0FA6 78 21         [12] 1251 	mov	r0,#(_g6 + 0x0003)
   0FA8 E2            [24] 1252 	movx	a,@r0
   0FA9 FD            [12] 1253 	mov	r5,a
   0FAA 78 22         [12] 1254 	mov	r0,#(_g6 + 0x0004)
   0FAC E2            [24] 1255 	movx	a,@r0
   0FAD FB            [12] 1256 	mov	r3,a
   0FAE E4            [12] 1257 	clr	a
   0FAF FA            [12] 1258 	mov	r2,a
   0FB0 4D            [12] 1259 	orl	a,r5
   0FB1 F5 16         [12] 1260 	mov	_golay_decode24_sloc0_1_0,a
   0FB3 EB            [12] 1261 	mov	a,r3
   0FB4 4A            [12] 1262 	orl	a,r2
   0FB5 F5 17         [12] 1263 	mov	(_golay_decode24_sloc0_1_0 + 1),a
   0FB7 78 23         [12] 1264 	mov	r0,#(_g6 + 0x0005)
   0FB9 E2            [24] 1265 	movx	a,@r0
   0FBA FD            [12] 1266 	mov	r5,a
   0FBB 53 05 7F      [24] 1267 	anl	ar5,#0x7F
   0FBE 8D 02         [24] 1268 	mov	ar2,r5
   0FC0 7B 00         [12] 1269 	mov	r3,#0x00
   0FC2 8B 1D         [24] 1270 	mov	(_golay_decode24_sloc1_1_0 + 3),r3
   0FC4 8A 1C         [24] 1271 	mov	(_golay_decode24_sloc1_1_0 + 2),r2
   0FC6 75 1B 00      [24] 1272 	mov	(_golay_decode24_sloc1_1_0 + 1),#0x00
   0FC9 75 1A 00      [24] 1273 	mov	_golay_decode24_sloc1_1_0,#0x00
   0FCC AA 16         [24] 1274 	mov	r2,_golay_decode24_sloc0_1_0
   0FCE AB 17         [24] 1275 	mov	r3,(_golay_decode24_sloc0_1_0 + 1)
   0FD0 E4            [12] 1276 	clr	a
   0FD1 FC            [12] 1277 	mov	r4,a
   0FD2 FD            [12] 1278 	mov	r5,a
   0FD3 E5 1A         [12] 1279 	mov	a,_golay_decode24_sloc1_1_0
   0FD5 4A            [12] 1280 	orl	a,r2
   0FD6 F5 12         [12] 1281 	mov	_golay_decode24_codeword_1_126,a
   0FD8 E5 1B         [12] 1282 	mov	a,(_golay_decode24_sloc1_1_0 + 1)
   0FDA 4B            [12] 1283 	orl	a,r3
   0FDB F5 13         [12] 1284 	mov	(_golay_decode24_codeword_1_126 + 1),a
   0FDD E5 1C         [12] 1285 	mov	a,(_golay_decode24_sloc1_1_0 + 2)
   0FDF 4C            [12] 1286 	orl	a,r4
   0FE0 F5 14         [12] 1287 	mov	(_golay_decode24_codeword_1_126 + 2),a
   0FE2 E5 1D         [12] 1288 	mov	a,(_golay_decode24_sloc1_1_0 + 3)
   0FE4 4D            [12] 1289 	orl	a,r5
   0FE5 F5 15         [12] 1290 	mov	(_golay_decode24_codeword_1_126 + 3),a
                           1291 ;	radio/golay.c:139: v0 = codeword >> 11;
   0FE7 AA 13         [24] 1292 	mov	r2,(_golay_decode24_codeword_1_126 + 1)
   0FE9 E5 14         [12] 1293 	mov	a,(_golay_decode24_codeword_1_126 + 2)
   0FEB C4            [12] 1294 	swap	a
   0FEC 23            [12] 1295 	rl	a
   0FED CA            [12] 1296 	xch	a,r2
   0FEE C4            [12] 1297 	swap	a
   0FEF 23            [12] 1298 	rl	a
   0FF0 54 1F         [12] 1299 	anl	a,#0x1F
   0FF2 6A            [12] 1300 	xrl	a,r2
   0FF3 CA            [12] 1301 	xch	a,r2
   0FF4 54 1F         [12] 1302 	anl	a,#0x1F
   0FF6 CA            [12] 1303 	xch	a,r2
   0FF7 6A            [12] 1304 	xrl	a,r2
   0FF8 CA            [12] 1305 	xch	a,r2
   0FF9 FB            [12] 1306 	mov	r3,a
   0FFA E5 15         [12] 1307 	mov	a,(_golay_decode24_codeword_1_126 + 3)
   0FFC C4            [12] 1308 	swap	a
   0FFD 23            [12] 1309 	rl	a
   0FFE 54 E0         [12] 1310 	anl	a,#0xE0
   1000 4B            [12] 1311 	orl	a,r3
   1001 FB            [12] 1312 	mov	r3,a
   1002 E5 15         [12] 1313 	mov	a,(_golay_decode24_codeword_1_126 + 3)
   1004 C4            [12] 1314 	swap	a
   1005 23            [12] 1315 	rl	a
   1006 54 1F         [12] 1316 	anl	a,#0x1F
   1008 8A 10         [24] 1317 	mov	_golay_decode24_v0_1_126,r2
   100A 8B 11         [24] 1318 	mov	(_golay_decode24_v0_1_126 + 1),r3
                           1319 ;	radio/golay.c:140: v = golay_syndrome(codeword);
   100C 85 12 82      [24] 1320 	mov	dpl,_golay_decode24_codeword_1_126
   100F 85 13 83      [24] 1321 	mov	dph,(_golay_decode24_codeword_1_126 + 1)
   1012 85 14 F0      [24] 1322 	mov	b,(_golay_decode24_codeword_1_126 + 2)
   1015 E5 15         [12] 1323 	mov	a,(_golay_decode24_codeword_1_126 + 3)
   1017 12 0C B9      [24] 1324 	lcall	_golay_syndrome
   101A AE 82         [24] 1325 	mov	r6,dpl
   101C AF 83         [24] 1326 	mov	r7,dph
                           1327 ;	radio/golay.c:141: codeword ^= golay23_decode[v];
   101E 8E 04         [24] 1328 	mov	ar4,r6
   1020 EF            [12] 1329 	mov	a,r7
   1021 CC            [12] 1330 	xch	a,r4
   1022 25 E0         [12] 1331 	add	a,acc
   1024 CC            [12] 1332 	xch	a,r4
   1025 33            [12] 1333 	rlc	a
   1026 CC            [12] 1334 	xch	a,r4
   1027 25 E0         [12] 1335 	add	a,acc
   1029 CC            [12] 1336 	xch	a,r4
   102A 33            [12] 1337 	rlc	a
   102B FD            [12] 1338 	mov	r5,a
   102C EC            [12] 1339 	mov	a,r4
   102D 24 6C         [12] 1340 	add	a,#_golay23_decode
   102F F5 82         [12] 1341 	mov	dpl,a
   1031 ED            [12] 1342 	mov	a,r5
   1032 34 A7         [12] 1343 	addc	a,#(_golay23_decode >> 8)
   1034 F5 83         [12] 1344 	mov	dph,a
   1036 E4            [12] 1345 	clr	a
   1037 93            [24] 1346 	movc	a,@a+dptr
   1038 FA            [12] 1347 	mov	r2,a
   1039 A3            [24] 1348 	inc	dptr
   103A E4            [12] 1349 	clr	a
   103B 93            [24] 1350 	movc	a,@a+dptr
   103C FB            [12] 1351 	mov	r3,a
   103D A3            [24] 1352 	inc	dptr
   103E E4            [12] 1353 	clr	a
   103F 93            [24] 1354 	movc	a,@a+dptr
   1040 FC            [12] 1355 	mov	r4,a
   1041 A3            [24] 1356 	inc	dptr
   1042 E4            [12] 1357 	clr	a
   1043 93            [24] 1358 	movc	a,@a+dptr
   1044 FD            [12] 1359 	mov	r5,a
   1045 EA            [12] 1360 	mov	a,r2
   1046 62 12         [12] 1361 	xrl	_golay_decode24_codeword_1_126,a
   1048 EB            [12] 1362 	mov	a,r3
   1049 62 13         [12] 1363 	xrl	(_golay_decode24_codeword_1_126 + 1),a
   104B EC            [12] 1364 	mov	a,r4
   104C 62 14         [12] 1365 	xrl	(_golay_decode24_codeword_1_126 + 2),a
   104E ED            [12] 1366 	mov	a,r5
   104F 62 15         [12] 1367 	xrl	(_golay_decode24_codeword_1_126 + 3),a
                           1368 ;	radio/golay.c:142: v = codeword >> 11;
   1051 AA 13         [24] 1369 	mov	r2,(_golay_decode24_codeword_1_126 + 1)
   1053 E5 14         [12] 1370 	mov	a,(_golay_decode24_codeword_1_126 + 2)
   1055 C4            [12] 1371 	swap	a
   1056 23            [12] 1372 	rl	a
   1057 CA            [12] 1373 	xch	a,r2
   1058 C4            [12] 1374 	swap	a
   1059 23            [12] 1375 	rl	a
   105A 54 1F         [12] 1376 	anl	a,#0x1F
   105C 6A            [12] 1377 	xrl	a,r2
   105D CA            [12] 1378 	xch	a,r2
   105E 54 1F         [12] 1379 	anl	a,#0x1F
   1060 CA            [12] 1380 	xch	a,r2
   1061 6A            [12] 1381 	xrl	a,r2
   1062 CA            [12] 1382 	xch	a,r2
   1063 FB            [12] 1383 	mov	r3,a
   1064 E5 15         [12] 1384 	mov	a,(_golay_decode24_codeword_1_126 + 3)
   1066 C4            [12] 1385 	swap	a
   1067 23            [12] 1386 	rl	a
   1068 54 E0         [12] 1387 	anl	a,#0xE0
   106A 4B            [12] 1388 	orl	a,r3
   106B FB            [12] 1389 	mov	r3,a
   106C E5 15         [12] 1390 	mov	a,(_golay_decode24_codeword_1_126 + 3)
   106E C4            [12] 1391 	swap	a
   106F 23            [12] 1392 	rl	a
   1070 54 1F         [12] 1393 	anl	a,#0x1F
   1072 FC            [12] 1394 	mov	r4,a
   1073 7D 00         [12] 1395 	mov	r5,#0x00
   1075 8A 06         [24] 1396 	mov	ar6,r2
   1077 8B 07         [24] 1397 	mov	ar7,r3
                           1398 ;	radio/golay.c:143: if (v != v0) {
   1079 EE            [12] 1399 	mov	a,r6
   107A B5 10 06      [24] 1400 	cjne	a,_golay_decode24_v0_1_126,00114$
   107D EF            [12] 1401 	mov	a,r7
   107E B5 11 02      [24] 1402 	cjne	a,(_golay_decode24_v0_1_126 + 1),00114$
   1081 80 06         [24] 1403 	sjmp	00104$
   1083                    1404 00114$:
                           1405 ;	radio/golay.c:144: errcount++;
   1083 78 2C         [12] 1406 	mov	r0,#_golay_decode24_errcount_1_126
   1085 E2            [24] 1407 	movx	a,@r0
   1086 24 01         [12] 1408 	add	a,#0x01
   1088 F2            [24] 1409 	movx	@r0,a
   1089                    1410 00104$:
                           1411 ;	radio/golay.c:147: g3[1] |= ((v >> 4)&0xF0);
   1089 78 1C         [12] 1412 	mov	r0,#(_g3 + 0x0001)
   108B E2            [24] 1413 	movx	a,@r0
   108C FD            [12] 1414 	mov	r5,a
   108D 8E 03         [24] 1415 	mov	ar3,r6
   108F EF            [12] 1416 	mov	a,r7
   1090 C4            [12] 1417 	swap	a
   1091 CB            [12] 1418 	xch	a,r3
   1092 C4            [12] 1419 	swap	a
   1093 54 0F         [12] 1420 	anl	a,#0x0F
   1095 6B            [12] 1421 	xrl	a,r3
   1096 CB            [12] 1422 	xch	a,r3
   1097 54 0F         [12] 1423 	anl	a,#0x0F
   1099 CB            [12] 1424 	xch	a,r3
   109A 6B            [12] 1425 	xrl	a,r3
   109B CB            [12] 1426 	xch	a,r3
   109C 53 03 F0      [24] 1427 	anl	ar3,#0xF0
   109F E4            [12] 1428 	clr	a
   10A0 FC            [12] 1429 	mov	r4,a
   10A1 FA            [12] 1430 	mov	r2,a
   10A2 ED            [12] 1431 	mov	a,r5
   10A3 42 03         [12] 1432 	orl	ar3,a
   10A5 EA            [12] 1433 	mov	a,r2
   10A6 42 04         [12] 1434 	orl	ar4,a
   10A8 78 1C         [12] 1435 	mov	r0,#(_g3 + 0x0001)
   10AA EB            [12] 1436 	mov	a,r3
   10AB F2            [24] 1437 	movx	@r0,a
                           1438 ;	radio/golay.c:148: g3[2] = v & 0xFF;
   10AC 78 1D         [12] 1439 	mov	r0,#(_g3 + 0x0002)
   10AE EE            [12] 1440 	mov	a,r6
   10AF F2            [24] 1441 	movx	@r0,a
                           1442 ;	radio/golay.c:149: return errcount;
   10B0 78 2C         [12] 1443 	mov	r0,#_golay_decode24_errcount_1_126
   10B2 E2            [24] 1444 	movx	a,@r0
   10B3 F5 82         [12] 1445 	mov	dpl,a
   10B5 22            [24] 1446 	ret
                           1447 ;------------------------------------------------------------
                           1448 ;Allocation info for local variables in function 'golay_decode'
                           1449 ;------------------------------------------------------------
                           1450 ;	radio/golay.c:157: golay_decode(__pdata uint8_t n, __xdata uint8_t * __pdata in, __xdata uint8_t * __pdata out)
                           1451 ;	-----------------------------------------
                           1452 ;	 function golay_decode
                           1453 ;	-----------------------------------------
   10B6                    1454 _golay_decode:
   10B6 AF 82         [24] 1455 	mov	r7,dpl
                           1456 ;	radio/golay.c:159: __pdata uint8_t errcount = 0;
   10B8 78 31         [12] 1457 	mov	r0,#_golay_decode_errcount_1_130
   10BA E4            [12] 1458 	clr	a
   10BB F2            [24] 1459 	movx	@r0,a
                           1460 ;	radio/golay.c:160: while (n >= 6) {
   10BC 78 2D         [12] 1461 	mov	r0,#_golay_decode_PARM_2
   10BE E2            [24] 1462 	movx	a,@r0
   10BF FC            [12] 1463 	mov	r4,a
   10C0 08            [12] 1464 	inc	r0
   10C1 E2            [24] 1465 	movx	a,@r0
   10C2 FD            [12] 1466 	mov	r5,a
   10C3 78 2F         [12] 1467 	mov	r0,#_golay_decode_PARM_3
   10C5 E2            [24] 1468 	movx	a,@r0
   10C6 FA            [12] 1469 	mov	r2,a
   10C7 08            [12] 1470 	inc	r0
   10C8 E2            [24] 1471 	movx	a,@r0
   10C9 FB            [12] 1472 	mov	r3,a
   10CA                    1473 00101$:
   10CA BF 06 00      [24] 1474 	cjne	r7,#0x06,00113$
   10CD                    1475 00113$:
   10CD 50 03         [24] 1476 	jnc	00114$
   10CF 02 11 6C      [24] 1477 	ljmp	00103$
   10D2                    1478 00114$:
                           1479 ;	radio/golay.c:161: g6[0] = in[0]; g6[1] = in[1]; g6[2] = in[2];
   10D2 8C 82         [24] 1480 	mov	dpl,r4
   10D4 8D 83         [24] 1481 	mov	dph,r5
   10D6 E0            [24] 1482 	movx	a,@dptr
   10D7 FE            [12] 1483 	mov	r6,a
   10D8 78 1E         [12] 1484 	mov	r0,#_g6
   10DA EE            [12] 1485 	mov	a,r6
   10DB F2            [24] 1486 	movx	@r0,a
   10DC 8C 82         [24] 1487 	mov	dpl,r4
   10DE 8D 83         [24] 1488 	mov	dph,r5
   10E0 A3            [24] 1489 	inc	dptr
   10E1 E0            [24] 1490 	movx	a,@dptr
   10E2 FE            [12] 1491 	mov	r6,a
   10E3 78 1F         [12] 1492 	mov	r0,#(_g6 + 0x0001)
   10E5 EE            [12] 1493 	mov	a,r6
   10E6 F2            [24] 1494 	movx	@r0,a
   10E7 8C 82         [24] 1495 	mov	dpl,r4
   10E9 8D 83         [24] 1496 	mov	dph,r5
   10EB A3            [24] 1497 	inc	dptr
   10EC A3            [24] 1498 	inc	dptr
   10ED E0            [24] 1499 	movx	a,@dptr
   10EE FE            [12] 1500 	mov	r6,a
   10EF 78 20         [12] 1501 	mov	r0,#(_g6 + 0x0002)
   10F1 EE            [12] 1502 	mov	a,r6
   10F2 F2            [24] 1503 	movx	@r0,a
                           1504 ;	radio/golay.c:162: g6[3] = in[3]; g6[4] = in[4]; g6[5] = in[5];
   10F3 8C 82         [24] 1505 	mov	dpl,r4
   10F5 8D 83         [24] 1506 	mov	dph,r5
   10F7 A3            [24] 1507 	inc	dptr
   10F8 A3            [24] 1508 	inc	dptr
   10F9 A3            [24] 1509 	inc	dptr
   10FA E0            [24] 1510 	movx	a,@dptr
   10FB FE            [12] 1511 	mov	r6,a
   10FC 78 21         [12] 1512 	mov	r0,#(_g6 + 0x0003)
   10FE EE            [12] 1513 	mov	a,r6
   10FF F2            [24] 1514 	movx	@r0,a
   1100 8C 82         [24] 1515 	mov	dpl,r4
   1102 8D 83         [24] 1516 	mov	dph,r5
   1104 A3            [24] 1517 	inc	dptr
   1105 A3            [24] 1518 	inc	dptr
   1106 A3            [24] 1519 	inc	dptr
   1107 A3            [24] 1520 	inc	dptr
   1108 E0            [24] 1521 	movx	a,@dptr
   1109 FE            [12] 1522 	mov	r6,a
   110A 78 22         [12] 1523 	mov	r0,#(_g6 + 0x0004)
   110C EE            [12] 1524 	mov	a,r6
   110D F2            [24] 1525 	movx	@r0,a
   110E 8C 82         [24] 1526 	mov	dpl,r4
   1110 8D 83         [24] 1527 	mov	dph,r5
   1112 A3            [24] 1528 	inc	dptr
   1113 A3            [24] 1529 	inc	dptr
   1114 A3            [24] 1530 	inc	dptr
   1115 A3            [24] 1531 	inc	dptr
   1116 A3            [24] 1532 	inc	dptr
   1117 E0            [24] 1533 	movx	a,@dptr
   1118 FE            [12] 1534 	mov	r6,a
   1119 78 23         [12] 1535 	mov	r0,#(_g6 + 0x0005)
   111B EE            [12] 1536 	mov	a,r6
   111C F2            [24] 1537 	movx	@r0,a
                           1538 ;	radio/golay.c:163: errcount += golay_decode24();
   111D C0 07         [24] 1539 	push	ar7
   111F C0 05         [24] 1540 	push	ar5
   1121 C0 04         [24] 1541 	push	ar4
   1123 C0 03         [24] 1542 	push	ar3
   1125 C0 02         [24] 1543 	push	ar2
   1127 12 0E B9      [24] 1544 	lcall	_golay_decode24
   112A AE 82         [24] 1545 	mov	r6,dpl
   112C D0 02         [24] 1546 	pop	ar2
   112E D0 03         [24] 1547 	pop	ar3
   1130 D0 04         [24] 1548 	pop	ar4
   1132 D0 05         [24] 1549 	pop	ar5
   1134 D0 07         [24] 1550 	pop	ar7
   1136 78 31         [12] 1551 	mov	r0,#_golay_decode_errcount_1_130
   1138 E2            [24] 1552 	movx	a,@r0
   1139 2E            [12] 1553 	add	a,r6
   113A F2            [24] 1554 	movx	@r0,a
                           1555 ;	radio/golay.c:164: out[0] = g3[0]; out[1] = g3[1]; out[2] = g3[2];
   113B 78 1B         [12] 1556 	mov	r0,#_g3
   113D E2            [24] 1557 	movx	a,@r0
   113E 8A 82         [24] 1558 	mov	dpl,r2
   1140 8B 83         [24] 1559 	mov	dph,r3
   1142 F0            [24] 1560 	movx	@dptr,a
   1143 8A 82         [24] 1561 	mov	dpl,r2
   1145 8B 83         [24] 1562 	mov	dph,r3
   1147 A3            [24] 1563 	inc	dptr
   1148 78 1C         [12] 1564 	mov	r0,#(_g3 + 0x0001)
   114A E2            [24] 1565 	movx	a,@r0
   114B F0            [24] 1566 	movx	@dptr,a
   114C 8A 82         [24] 1567 	mov	dpl,r2
   114E 8B 83         [24] 1568 	mov	dph,r3
   1150 A3            [24] 1569 	inc	dptr
   1151 A3            [24] 1570 	inc	dptr
   1152 78 1D         [12] 1571 	mov	r0,#(_g3 + 0x0002)
   1154 E2            [24] 1572 	movx	a,@r0
   1155 FE            [12] 1573 	mov	r6,a
   1156 F0            [24] 1574 	movx	@dptr,a
                           1575 ;	radio/golay.c:165: in += 6;
   1157 74 06         [12] 1576 	mov	a,#0x06
   1159 2C            [12] 1577 	add	a,r4
   115A FC            [12] 1578 	mov	r4,a
   115B E4            [12] 1579 	clr	a
   115C 3D            [12] 1580 	addc	a,r5
   115D FD            [12] 1581 	mov	r5,a
                           1582 ;	radio/golay.c:166: out += 3;
   115E 74 03         [12] 1583 	mov	a,#0x03
   1160 2A            [12] 1584 	add	a,r2
   1161 FA            [12] 1585 	mov	r2,a
   1162 E4            [12] 1586 	clr	a
   1163 3B            [12] 1587 	addc	a,r3
   1164 FB            [12] 1588 	mov	r3,a
                           1589 ;	radio/golay.c:167: n -= 6;
   1165 EF            [12] 1590 	mov	a,r7
   1166 24 FA         [12] 1591 	add	a,#0xFA
   1168 FF            [12] 1592 	mov	r7,a
   1169 02 10 CA      [24] 1593 	ljmp	00101$
   116C                    1594 00103$:
                           1595 ;	radio/golay.c:169: return errcount;
   116C 78 31         [12] 1596 	mov	r0,#_golay_decode_errcount_1_130
   116E E2            [24] 1597 	movx	a,@r0
   116F F5 82         [12] 1598 	mov	dpl,a
   1171 22            [24] 1599 	ret
                           1600 	.area CSEG    (CODE)
                           1601 	.area CONST   (CODE)
   676C                    1602 _golay23_encode:
   676C 00 00 00 00        1603 	.byte #0x00,#0x00,#0x00,#0x00	; 0
   6770 75 0C 00 00        1604 	.byte #0x75,#0x0C,#0x00,#0x00	; 3189
   6774 9F 14 00 00        1605 	.byte #0x9F,#0x14,#0x00,#0x00	; 5279
   6778 EA 18 00 00        1606 	.byte #0xEA,#0x18,#0x00,#0x00	; 6378
   677C 4B 25 00 00        1607 	.byte #0x4B,#0x25,#0x00,#0x00	; 9547
   6780 3E 29 00 00        1608 	.byte #0x3E,#0x29,#0x00,#0x00	; 10558
   6784 D4 31 00 00        1609 	.byte #0xD4,#0x31,#0x00,#0x00	; 12756
   6788 A1 3D 00 00        1610 	.byte #0xA1,#0x3D,#0x00,#0x00	; 15777
   678C E3 46 00 00        1611 	.byte #0xE3,#0x46,#0x00,#0x00	; 18147
   6790 96 4A 00 00        1612 	.byte #0x96,#0x4A,#0x00,#0x00	; 19094
   6794 7C 52 00 00        1613 	.byte #0x7C,#0x52,#0x00,#0x00	; 21116
   6798 09 5E 00 00        1614 	.byte #0x09,#0x5E,#0x00,#0x00	; 24073
   679C A8 63 00 00        1615 	.byte #0xA8,#0x63,#0x00,#0x00	; 25512
   67A0 DD 6F 00 00        1616 	.byte #0xDD,#0x6F,#0x00,#0x00	; 28637
   67A4 37 77 00 00        1617 	.byte #0x37,#0x77,#0x00,#0x00	; 30519
   67A8 42 7B 00 00        1618 	.byte #0x42,#0x7B,#0x00,#0x00	; 31554
   67AC B3 81 00 00        1619 	.byte #0xB3,#0x81,#0x00,#0x00	; 33203
   67B0 C6 8D 00 00        1620 	.byte #0xC6,#0x8D,#0x00,#0x00	; 36294
   67B4 2C 95 00 00        1621 	.byte #0x2C,#0x95,#0x00,#0x00	; 38188
   67B8 59 99 00 00        1622 	.byte #0x59,#0x99,#0x00,#0x00	; 39257
   67BC F8 A4 00 00        1623 	.byte #0xF8,#0xA4,#0x00,#0x00	; 42232
   67C0 8D A8 00 00        1624 	.byte #0x8D,#0xA8,#0x00,#0x00	; 43149
   67C4 67 B0 00 00        1625 	.byte #0x67,#0xB0,#0x00,#0x00	; 45159
   67C8 12 BC 00 00        1626 	.byte #0x12,#0xBC,#0x00,#0x00	; 48146
   67CC 50 C7 00 00        1627 	.byte #0x50,#0xC7,#0x00,#0x00	; 51024
   67D0 25 CB 00 00        1628 	.byte #0x25,#0xCB,#0x00,#0x00	; 52005
   67D4 CF D3 00 00        1629 	.byte #0xCF,#0xD3,#0x00,#0x00	; 54223
   67D8 BA DF 00 00        1630 	.byte #0xBA,#0xDF,#0x00,#0x00	; 57274
   67DC 1B E2 00 00        1631 	.byte #0x1B,#0xE2,#0x00,#0x00	; 57883
   67E0 6E EE 00 00        1632 	.byte #0x6E,#0xEE,#0x00,#0x00	; 61038
   67E4 84 F6 00 00        1633 	.byte #0x84,#0xF6,#0x00,#0x00	; 63108
   67E8 F1 FA 00 00        1634 	.byte #0xF1,#0xFA,#0x00,#0x00	; 64241
   67EC 66 03 01 00        1635 	.byte #0x66,#0x03,#0x01,#0x00	; 66406
   67F0 13 0F 01 00        1636 	.byte #0x13,#0x0F,#0x01,#0x00	; 69395
   67F4 F9 17 01 00        1637 	.byte #0xF9,#0x17,#0x01,#0x00	; 71673
   67F8 8C 1B 01 00        1638 	.byte #0x8C,#0x1B,#0x01,#0x00	; 72588
   67FC 2D 26 01 00        1639 	.byte #0x2D,#0x26,#0x01,#0x00	; 75309
   6800 58 2A 01 00        1640 	.byte #0x58,#0x2A,#0x01,#0x00	; 76376
   6804 B2 32 01 00        1641 	.byte #0xB2,#0x32,#0x01,#0x00	; 78514
   6808 C7 3E 01 00        1642 	.byte #0xC7,#0x3E,#0x01,#0x00	; 81607
   680C 85 45 01 00        1643 	.byte #0x85,#0x45,#0x01,#0x00	; 83333
   6810 F0 49 01 00        1644 	.byte #0xF0,#0x49,#0x01,#0x00	; 84464
   6814 1A 51 01 00        1645 	.byte #0x1A,#0x51,#0x01,#0x00	; 86298
   6818 6F 5D 01 00        1646 	.byte #0x6F,#0x5D,#0x01,#0x00	; 89455
   681C CE 60 01 00        1647 	.byte #0xCE,#0x60,#0x01,#0x00	; 90318
   6820 BB 6C 01 00        1648 	.byte #0xBB,#0x6C,#0x01,#0x00	; 93371
   6824 51 74 01 00        1649 	.byte #0x51,#0x74,#0x01,#0x00	; 95313
   6828 24 78 01 00        1650 	.byte #0x24,#0x78,#0x01,#0x00	; 96292
   682C D5 82 01 00        1651 	.byte #0xD5,#0x82,#0x01,#0x00	; 99029
   6830 A0 8E 01 00        1652 	.byte #0xA0,#0x8E,#0x01,#0x00	; 102048
   6834 4A 96 01 00        1653 	.byte #0x4A,#0x96,#0x01,#0x00	; 104010
   6838 3F 9A 01 00        1654 	.byte #0x3F,#0x9A,#0x01,#0x00	; 105023
   683C 9E A7 01 00        1655 	.byte #0x9E,#0xA7,#0x01,#0x00	; 108446
   6840 EB AB 01 00        1656 	.byte #0xEB,#0xAB,#0x01,#0x00	; 109547
   6844 01 B3 01 00        1657 	.byte #0x01,#0xB3,#0x01,#0x00	; 111361
   6848 74 BF 01 00        1658 	.byte #0x74,#0xBF,#0x01,#0x00	; 114548
   684C 36 C4 01 00        1659 	.byte #0x36,#0xC4,#0x01,#0x00	; 115766
   6850 43 C8 01 00        1660 	.byte #0x43,#0xC8,#0x01,#0x00	; 116803
   6854 A9 D0 01 00        1661 	.byte #0xA9,#0xD0,#0x01,#0x00	; 118953
   6858 DC DC 01 00        1662 	.byte #0xDC,#0xDC,#0x01,#0x00	; 122076
   685C 7D E1 01 00        1663 	.byte #0x7D,#0xE1,#0x01,#0x00	; 123261
   6860 08 ED 01 00        1664 	.byte #0x08,#0xED,#0x01,#0x00	; 126216
   6864 E2 F5 01 00        1665 	.byte #0xE2,#0xF5,#0x01,#0x00	; 128482
   6868 97 F9 01 00        1666 	.byte #0x97,#0xF9,#0x01,#0x00	; 129431
   686C CC 06 02 00        1667 	.byte #0xCC,#0x06,#0x02,#0x00	; 132812
   6870 B9 0A 02 00        1668 	.byte #0xB9,#0x0A,#0x02,#0x00	; 133817
   6874 53 12 02 00        1669 	.byte #0x53,#0x12,#0x02,#0x00	; 135763
   6878 26 1E 02 00        1670 	.byte #0x26,#0x1E,#0x02,#0x00	; 138790
   687C 87 23 02 00        1671 	.byte #0x87,#0x23,#0x02,#0x00	; 140167
   6880 F2 2F 02 00        1672 	.byte #0xF2,#0x2F,#0x02,#0x00	; 143346
   6884 18 37 02 00        1673 	.byte #0x18,#0x37,#0x02,#0x00	; 145176
   6888 6D 3B 02 00        1674 	.byte #0x6D,#0x3B,#0x02,#0x00	; 146285
   688C 2F 40 02 00        1675 	.byte #0x2F,#0x40,#0x02,#0x00	; 147503
   6890 5A 4C 02 00        1676 	.byte #0x5A,#0x4C,#0x02,#0x00	; 150618
   6894 B0 54 02 00        1677 	.byte #0xB0,#0x54,#0x02,#0x00	; 152752
   6898 C5 58 02 00        1678 	.byte #0xC5,#0x58,#0x02,#0x00	; 153797
   689C 64 65 02 00        1679 	.byte #0x64,#0x65,#0x02,#0x00	; 157028
   68A0 11 69 02 00        1680 	.byte #0x11,#0x69,#0x02,#0x00	; 157969
   68A4 FB 71 02 00        1681 	.byte #0xFB,#0x71,#0x02,#0x00	; 160251
   68A8 8E 7D 02 00        1682 	.byte #0x8E,#0x7D,#0x02,#0x00	; 163214
   68AC 7F 87 02 00        1683 	.byte #0x7F,#0x87,#0x02,#0x00	; 165759
   68B0 0A 8B 02 00        1684 	.byte #0x0A,#0x8B,#0x02,#0x00	; 166666
   68B4 E0 93 02 00        1685 	.byte #0xE0,#0x93,#0x02,#0x00	; 168928
   68B8 95 9F 02 00        1686 	.byte #0x95,#0x9F,#0x02,#0x00	; 171925
   68BC 34 A2 02 00        1687 	.byte #0x34,#0xA2,#0x02,#0x00	; 172596
   68C0 41 AE 02 00        1688 	.byte #0x41,#0xAE,#0x02,#0x00	; 175681
   68C4 AB B6 02 00        1689 	.byte #0xAB,#0xB6,#0x02,#0x00	; 177835
   68C8 DE BA 02 00        1690 	.byte #0xDE,#0xBA,#0x02,#0x00	; 178910
   68CC 9C C1 02 00        1691 	.byte #0x9C,#0xC1,#0x02,#0x00	; 180636
   68D0 E9 CD 02 00        1692 	.byte #0xE9,#0xCD,#0x02,#0x00	; 183785
   68D4 03 D5 02 00        1693 	.byte #0x03,#0xD5,#0x02,#0x00	; 185603
   68D8 76 D9 02 00        1694 	.byte #0x76,#0xD9,#0x02,#0x00	; 186742
   68DC D7 E4 02 00        1695 	.byte #0xD7,#0xE4,#0x02,#0x00	; 189655
   68E0 A2 E8 02 00        1696 	.byte #0xA2,#0xE8,#0x02,#0x00	; 190626
   68E4 48 F0 02 00        1697 	.byte #0x48,#0xF0,#0x02,#0x00	; 192584
   68E8 3D FC 02 00        1698 	.byte #0x3D,#0xFC,#0x02,#0x00	; 195645
   68EC AA 05 03 00        1699 	.byte #0xAA,#0x05,#0x03,#0x00	; 198058
   68F0 DF 09 03 00        1700 	.byte #0xDF,#0x09,#0x03,#0x00	; 199135
   68F4 35 11 03 00        1701 	.byte #0x35,#0x11,#0x03,#0x00	; 201013
   68F8 40 1D 03 00        1702 	.byte #0x40,#0x1D,#0x03,#0x00	; 204096
   68FC E1 20 03 00        1703 	.byte #0xE1,#0x20,#0x03,#0x00	; 205025
   6900 94 2C 03 00        1704 	.byte #0x94,#0x2C,#0x03,#0x00	; 208020
   6904 7E 34 03 00        1705 	.byte #0x7E,#0x34,#0x03,#0x00	; 210046
   6908 0B 38 03 00        1706 	.byte #0x0B,#0x38,#0x03,#0x00	; 210955
   690C 49 43 03 00        1707 	.byte #0x49,#0x43,#0x03,#0x00	; 213833
   6910 3C 4F 03 00        1708 	.byte #0x3C,#0x4F,#0x03,#0x00	; 216892
   6914 D6 57 03 00        1709 	.byte #0xD6,#0x57,#0x03,#0x00	; 219094
   6918 A3 5B 03 00        1710 	.byte #0xA3,#0x5B,#0x03,#0x00	; 220067
   691C 02 66 03 00        1711 	.byte #0x02,#0x66,#0x03,#0x00	; 222722
   6920 77 6A 03 00        1712 	.byte #0x77,#0x6A,#0x03,#0x00	; 223863
   6924 9D 72 03 00        1713 	.byte #0x9D,#0x72,#0x03,#0x00	; 225949
   6928 E8 7E 03 00        1714 	.byte #0xE8,#0x7E,#0x03,#0x00	; 229096
   692C 19 84 03 00        1715 	.byte #0x19,#0x84,#0x03,#0x00	; 230425
   6930 6C 88 03 00        1716 	.byte #0x6C,#0x88,#0x03,#0x00	; 231532
   6934 86 90 03 00        1717 	.byte #0x86,#0x90,#0x03,#0x00	; 233606
   6938 F3 9C 03 00        1718 	.byte #0xF3,#0x9C,#0x03,#0x00	; 236787
   693C 52 A1 03 00        1719 	.byte #0x52,#0xA1,#0x03,#0x00	; 237906
   6940 27 AD 03 00        1720 	.byte #0x27,#0xAD,#0x03,#0x00	; 240935
   6944 CD B5 03 00        1721 	.byte #0xCD,#0xB5,#0x03,#0x00	; 243149
   6948 B8 B9 03 00        1722 	.byte #0xB8,#0xB9,#0x03,#0x00	; 244152
   694C FA C2 03 00        1723 	.byte #0xFA,#0xC2,#0x03,#0x00	; 246522
   6950 8F CE 03 00        1724 	.byte #0x8F,#0xCE,#0x03,#0x00	; 249487
   6954 65 D6 03 00        1725 	.byte #0x65,#0xD6,#0x03,#0x00	; 251493
   6958 10 DA 03 00        1726 	.byte #0x10,#0xDA,#0x03,#0x00	; 252432
   695C B1 E7 03 00        1727 	.byte #0xB1,#0xE7,#0x03,#0x00	; 255921
   6960 C4 EB 03 00        1728 	.byte #0xC4,#0xEB,#0x03,#0x00	; 256964
   6964 2E F3 03 00        1729 	.byte #0x2E,#0xF3,#0x03,#0x00	; 258862
   6968 5B FF 03 00        1730 	.byte #0x5B,#0xFF,#0x03,#0x00	; 261979
   696C ED 01 04 00        1731 	.byte #0xED,#0x01,#0x04,#0x00	; 262637
   6970 98 0D 04 00        1732 	.byte #0x98,#0x0D,#0x04,#0x00	; 265624
   6974 72 15 04 00        1733 	.byte #0x72,#0x15,#0x04,#0x00	; 267634
   6978 07 19 04 00        1734 	.byte #0x07,#0x19,#0x04,#0x00	; 268551
   697C A6 24 04 00        1735 	.byte #0xA6,#0x24,#0x04,#0x00	; 271526
   6980 D3 28 04 00        1736 	.byte #0xD3,#0x28,#0x04,#0x00	; 272595
   6984 39 30 04 00        1737 	.byte #0x39,#0x30,#0x04,#0x00	; 274489
   6988 4C 3C 04 00        1738 	.byte #0x4C,#0x3C,#0x04,#0x00	; 277580
   698C 0E 47 04 00        1739 	.byte #0x0E,#0x47,#0x04,#0x00	; 280334
   6990 7B 4B 04 00        1740 	.byte #0x7B,#0x4B,#0x04,#0x00	; 281467
   6994 91 53 04 00        1741 	.byte #0x91,#0x53,#0x04,#0x00	; 283537
   6998 E4 5F 04 00        1742 	.byte #0xE4,#0x5F,#0x04,#0x00	; 286692
   699C 45 62 04 00        1743 	.byte #0x45,#0x62,#0x04,#0x00	; 287301
   69A0 30 6E 04 00        1744 	.byte #0x30,#0x6E,#0x04,#0x00	; 290352
   69A4 DA 76 04 00        1745 	.byte #0xDA,#0x76,#0x04,#0x00	; 292570
   69A8 AF 7A 04 00        1746 	.byte #0xAF,#0x7A,#0x04,#0x00	; 293551
   69AC 5E 80 04 00        1747 	.byte #0x5E,#0x80,#0x04,#0x00	; 295006
   69B0 2B 8C 04 00        1748 	.byte #0x2B,#0x8C,#0x04,#0x00	; 298027
   69B4 C1 94 04 00        1749 	.byte #0xC1,#0x94,#0x04,#0x00	; 300225
   69B8 B4 98 04 00        1750 	.byte #0xB4,#0x98,#0x04,#0x00	; 301236
   69BC 15 A5 04 00        1751 	.byte #0x15,#0xA5,#0x04,#0x00	; 304405
   69C0 60 A9 04 00        1752 	.byte #0x60,#0xA9,#0x04,#0x00	; 305504
   69C4 8A B1 04 00        1753 	.byte #0x8A,#0xB1,#0x04,#0x00	; 307594
   69C8 FF BD 04 00        1754 	.byte #0xFF,#0xBD,#0x04,#0x00	; 310783
   69CC BD C6 04 00        1755 	.byte #0xBD,#0xC6,#0x04,#0x00	; 313021
   69D0 C8 CA 04 00        1756 	.byte #0xC8,#0xCA,#0x04,#0x00	; 314056
   69D4 22 D2 04 00        1757 	.byte #0x22,#0xD2,#0x04,#0x00	; 315938
   69D8 57 DE 04 00        1758 	.byte #0x57,#0xDE,#0x04,#0x00	; 319063
   69DC F6 E3 04 00        1759 	.byte #0xF6,#0xE3,#0x04,#0x00	; 320502
   69E0 83 EF 04 00        1760 	.byte #0x83,#0xEF,#0x04,#0x00	; 323459
   69E4 69 F7 04 00        1761 	.byte #0x69,#0xF7,#0x04,#0x00	; 325481
   69E8 1C FB 04 00        1762 	.byte #0x1C,#0xFB,#0x04,#0x00	; 326428
   69EC 8B 02 05 00        1763 	.byte #0x8B,#0x02,#0x05,#0x00	; 328331
   69F0 FE 0E 05 00        1764 	.byte #0xFE,#0x0E,#0x05,#0x00	; 331518
   69F4 14 16 05 00        1765 	.byte #0x14,#0x16,#0x05,#0x00	; 333332
   69F8 61 1A 05 00        1766 	.byte #0x61,#0x1A,#0x05,#0x00	; 334433
   69FC C0 27 05 00        1767 	.byte #0xC0,#0x27,#0x05,#0x00	; 337856
   6A00 B5 2B 05 00        1768 	.byte #0xB5,#0x2B,#0x05,#0x00	; 338869
   6A04 5F 33 05 00        1769 	.byte #0x5F,#0x33,#0x05,#0x00	; 340831
   6A08 2A 3F 05 00        1770 	.byte #0x2A,#0x3F,#0x05,#0x00	; 343850
   6A0C 68 44 05 00        1771 	.byte #0x68,#0x44,#0x05,#0x00	; 345192
   6A10 1D 48 05 00        1772 	.byte #0x1D,#0x48,#0x05,#0x00	; 346141
   6A14 F7 50 05 00        1773 	.byte #0xF7,#0x50,#0x05,#0x00	; 348407
   6A18 82 5C 05 00        1774 	.byte #0x82,#0x5C,#0x05,#0x00	; 351362
   6A1C 23 61 05 00        1775 	.byte #0x23,#0x61,#0x05,#0x00	; 352547
   6A20 56 6D 05 00        1776 	.byte #0x56,#0x6D,#0x05,#0x00	; 355670
   6A24 BC 75 05 00        1777 	.byte #0xBC,#0x75,#0x05,#0x00	; 357820
   6A28 C9 79 05 00        1778 	.byte #0xC9,#0x79,#0x05,#0x00	; 358857
   6A2C 38 83 05 00        1779 	.byte #0x38,#0x83,#0x05,#0x00	; 361272
   6A30 4D 8F 05 00        1780 	.byte #0x4D,#0x8F,#0x05,#0x00	; 364365
   6A34 A7 97 05 00        1781 	.byte #0xA7,#0x97,#0x05,#0x00	; 366503
   6A38 D2 9B 05 00        1782 	.byte #0xD2,#0x9B,#0x05,#0x00	; 367570
   6A3C 73 A6 05 00        1783 	.byte #0x73,#0xA6,#0x05,#0x00	; 370291
   6A40 06 AA 05 00        1784 	.byte #0x06,#0xAA,#0x05,#0x00	; 371206
   6A44 EC B2 05 00        1785 	.byte #0xEC,#0xB2,#0x05,#0x00	; 373484
   6A48 99 BE 05 00        1786 	.byte #0x99,#0xBE,#0x05,#0x00	; 376473
   6A4C DB C5 05 00        1787 	.byte #0xDB,#0xC5,#0x05,#0x00	; 378331
   6A50 AE C9 05 00        1788 	.byte #0xAE,#0xC9,#0x05,#0x00	; 379310
   6A54 44 D1 05 00        1789 	.byte #0x44,#0xD1,#0x05,#0x00	; 381252
   6A58 31 DD 05 00        1790 	.byte #0x31,#0xDD,#0x05,#0x00	; 384305
   6A5C 90 E0 05 00        1791 	.byte #0x90,#0xE0,#0x05,#0x00	; 385168
   6A60 E5 EC 05 00        1792 	.byte #0xE5,#0xEC,#0x05,#0x00	; 388325
   6A64 0F F4 05 00        1793 	.byte #0x0F,#0xF4,#0x05,#0x00	; 390159
   6A68 7A F8 05 00        1794 	.byte #0x7A,#0xF8,#0x05,#0x00	; 391290
   6A6C 21 07 06 00        1795 	.byte #0x21,#0x07,#0x06,#0x00	; 395041
   6A70 54 0B 06 00        1796 	.byte #0x54,#0x0B,#0x06,#0x00	; 396116
   6A74 BE 13 06 00        1797 	.byte #0xBE,#0x13,#0x06,#0x00	; 398270
   6A78 CB 1F 06 00        1798 	.byte #0xCB,#0x1F,#0x06,#0x00	; 401355
   6A7C 6A 22 06 00        1799 	.byte #0x6A,#0x22,#0x06,#0x00	; 402026
   6A80 1F 2E 06 00        1800 	.byte #0x1F,#0x2E,#0x06,#0x00	; 405023
   6A84 F5 36 06 00        1801 	.byte #0xF5,#0x36,#0x06,#0x00	; 407285
   6A88 80 3A 06 00        1802 	.byte #0x80,#0x3A,#0x06,#0x00	; 408192
   6A8C C2 41 06 00        1803 	.byte #0xC2,#0x41,#0x06,#0x00	; 410050
   6A90 B7 4D 06 00        1804 	.byte #0xB7,#0x4D,#0x06,#0x00	; 413111
   6A94 5D 55 06 00        1805 	.byte #0x5D,#0x55,#0x06,#0x00	; 415069
   6A98 28 59 06 00        1806 	.byte #0x28,#0x59,#0x06,#0x00	; 416040
   6A9C 89 64 06 00        1807 	.byte #0x89,#0x64,#0x06,#0x00	; 418953
   6AA0 FC 68 06 00        1808 	.byte #0xFC,#0x68,#0x06,#0x00	; 420092
   6AA4 16 70 06 00        1809 	.byte #0x16,#0x70,#0x06,#0x00	; 421910
   6AA8 63 7C 06 00        1810 	.byte #0x63,#0x7C,#0x06,#0x00	; 425059
   6AAC 92 86 06 00        1811 	.byte #0x92,#0x86,#0x06,#0x00	; 427666
   6AB0 E7 8A 06 00        1812 	.byte #0xE7,#0x8A,#0x06,#0x00	; 428775
   6AB4 0D 92 06 00        1813 	.byte #0x0D,#0x92,#0x06,#0x00	; 430605
   6AB8 78 9E 06 00        1814 	.byte #0x78,#0x9E,#0x06,#0x00	; 433784
   6ABC D9 A3 06 00        1815 	.byte #0xD9,#0xA3,#0x06,#0x00	; 435161
   6AC0 AC AF 06 00        1816 	.byte #0xAC,#0xAF,#0x06,#0x00	; 438188
   6AC4 46 B7 06 00        1817 	.byte #0x46,#0xB7,#0x06,#0x00	; 440134
   6AC8 33 BB 06 00        1818 	.byte #0x33,#0xBB,#0x06,#0x00	; 441139
   6ACC 71 C0 06 00        1819 	.byte #0x71,#0xC0,#0x06,#0x00	; 442481
   6AD0 04 CC 06 00        1820 	.byte #0x04,#0xCC,#0x06,#0x00	; 445444
   6AD4 EE D4 06 00        1821 	.byte #0xEE,#0xD4,#0x06,#0x00	; 447726
   6AD8 9B D8 06 00        1822 	.byte #0x9B,#0xD8,#0x06,#0x00	; 448667
   6ADC 3A E5 06 00        1823 	.byte #0x3A,#0xE5,#0x06,#0x00	; 451898
   6AE0 4F E9 06 00        1824 	.byte #0x4F,#0xE9,#0x06,#0x00	; 452943
   6AE4 A5 F1 06 00        1825 	.byte #0xA5,#0xF1,#0x06,#0x00	; 455077
   6AE8 D0 FD 06 00        1826 	.byte #0xD0,#0xFD,#0x06,#0x00	; 458192
   6AEC 47 04 07 00        1827 	.byte #0x47,#0x04,#0x07,#0x00	; 459847
   6AF0 32 08 07 00        1828 	.byte #0x32,#0x08,#0x07,#0x00	; 460850
   6AF4 D8 10 07 00        1829 	.byte #0xD8,#0x10,#0x07,#0x00	; 463064
   6AF8 AD 1C 07 00        1830 	.byte #0xAD,#0x1C,#0x07,#0x00	; 466093
   6AFC 0C 21 07 00        1831 	.byte #0x0C,#0x21,#0x07,#0x00	; 467212
   6B00 79 2D 07 00        1832 	.byte #0x79,#0x2D,#0x07,#0x00	; 470393
   6B04 93 35 07 00        1833 	.byte #0x93,#0x35,#0x07,#0x00	; 472467
   6B08 E6 39 07 00        1834 	.byte #0xE6,#0x39,#0x07,#0x00	; 473574
   6B0C A4 42 07 00        1835 	.byte #0xA4,#0x42,#0x07,#0x00	; 475812
   6B10 D1 4E 07 00        1836 	.byte #0xD1,#0x4E,#0x07,#0x00	; 478929
   6B14 3B 56 07 00        1837 	.byte #0x3B,#0x56,#0x07,#0x00	; 480827
   6B18 4E 5A 07 00        1838 	.byte #0x4E,#0x5A,#0x07,#0x00	; 481870
   6B1C EF 67 07 00        1839 	.byte #0xEF,#0x67,#0x07,#0x00	; 485359
   6B20 9A 6B 07 00        1840 	.byte #0x9A,#0x6B,#0x07,#0x00	; 486298
   6B24 70 73 07 00        1841 	.byte #0x70,#0x73,#0x07,#0x00	; 488304
   6B28 05 7F 07 00        1842 	.byte #0x05,#0x7F,#0x07,#0x00	; 491269
   6B2C F4 85 07 00        1843 	.byte #0xF4,#0x85,#0x07,#0x00	; 493044
   6B30 81 89 07 00        1844 	.byte #0x81,#0x89,#0x07,#0x00	; 493953
   6B34 6B 91 07 00        1845 	.byte #0x6B,#0x91,#0x07,#0x00	; 495979
   6B38 1E 9D 07 00        1846 	.byte #0x1E,#0x9D,#0x07,#0x00	; 498974
   6B3C BF A0 07 00        1847 	.byte #0xBF,#0xA0,#0x07,#0x00	; 499903
   6B40 CA AC 07 00        1848 	.byte #0xCA,#0xAC,#0x07,#0x00	; 502986
   6B44 20 B4 07 00        1849 	.byte #0x20,#0xB4,#0x07,#0x00	; 504864
   6B48 55 B8 07 00        1850 	.byte #0x55,#0xB8,#0x07,#0x00	; 505941
   6B4C 17 C3 07 00        1851 	.byte #0x17,#0xC3,#0x07,#0x00	; 508695
   6B50 62 CF 07 00        1852 	.byte #0x62,#0xCF,#0x07,#0x00	; 511842
   6B54 88 D7 07 00        1853 	.byte #0x88,#0xD7,#0x07,#0x00	; 513928
   6B58 FD DB 07 00        1854 	.byte #0xFD,#0xDB,#0x07,#0x00	; 515069
   6B5C 5C E6 07 00        1855 	.byte #0x5C,#0xE6,#0x07,#0x00	; 517724
   6B60 29 EA 07 00        1856 	.byte #0x29,#0xEA,#0x07,#0x00	; 518697
   6B64 C3 F2 07 00        1857 	.byte #0xC3,#0xF2,#0x07,#0x00	; 520899
   6B68 B6 FE 07 00        1858 	.byte #0xB6,#0xFE,#0x07,#0x00	; 523958
   6B6C DA 03 08 00        1859 	.byte #0xDA,#0x03,#0x08,#0x00	; 525274
   6B70 AF 0F 08 00        1860 	.byte #0xAF,#0x0F,#0x08,#0x00	; 528303
   6B74 45 17 08 00        1861 	.byte #0x45,#0x17,#0x08,#0x00	; 530245
   6B78 30 1B 08 00        1862 	.byte #0x30,#0x1B,#0x08,#0x00	; 531248
   6B7C 91 26 08 00        1863 	.byte #0x91,#0x26,#0x08,#0x00	; 534161
   6B80 E4 2A 08 00        1864 	.byte #0xE4,#0x2A,#0x08,#0x00	; 535268
   6B84 0E 32 08 00        1865 	.byte #0x0E,#0x32,#0x08,#0x00	; 537102
   6B88 7B 3E 08 00        1866 	.byte #0x7B,#0x3E,#0x08,#0x00	; 540283
   6B8C 39 45 08 00        1867 	.byte #0x39,#0x45,#0x08,#0x00	; 542009
   6B90 4C 49 08 00        1868 	.byte #0x4C,#0x49,#0x08,#0x00	; 543052
   6B94 A6 51 08 00        1869 	.byte #0xA6,#0x51,#0x08,#0x00	; 545190
   6B98 D3 5D 08 00        1870 	.byte #0xD3,#0x5D,#0x08,#0x00	; 548307
   6B9C 72 60 08 00        1871 	.byte #0x72,#0x60,#0x08,#0x00	; 548978
   6BA0 07 6C 08 00        1872 	.byte #0x07,#0x6C,#0x08,#0x00	; 551943
   6BA4 ED 74 08 00        1873 	.byte #0xED,#0x74,#0x08,#0x00	; 554221
   6BA8 98 78 08 00        1874 	.byte #0x98,#0x78,#0x08,#0x00	; 555160
   6BAC 69 82 08 00        1875 	.byte #0x69,#0x82,#0x08,#0x00	; 557673
   6BB0 1C 8E 08 00        1876 	.byte #0x1C,#0x8E,#0x08,#0x00	; 560668
   6BB4 F6 96 08 00        1877 	.byte #0xF6,#0x96,#0x08,#0x00	; 562934
   6BB8 83 9A 08 00        1878 	.byte #0x83,#0x9A,#0x08,#0x00	; 563843
   6BBC 22 A7 08 00        1879 	.byte #0x22,#0xA7,#0x08,#0x00	; 567074
   6BC0 57 AB 08 00        1880 	.byte #0x57,#0xAB,#0x08,#0x00	; 568151
   6BC4 BD B3 08 00        1881 	.byte #0xBD,#0xB3,#0x08,#0x00	; 570301
   6BC8 C8 BF 08 00        1882 	.byte #0xC8,#0xBF,#0x08,#0x00	; 573384
   6BCC 8A C4 08 00        1883 	.byte #0x8A,#0xC4,#0x08,#0x00	; 574602
   6BD0 FF C8 08 00        1884 	.byte #0xFF,#0xC8,#0x08,#0x00	; 575743
   6BD4 15 D0 08 00        1885 	.byte #0x15,#0xD0,#0x08,#0x00	; 577557
   6BD8 60 DC 08 00        1886 	.byte #0x60,#0xDC,#0x08,#0x00	; 580704
   6BDC C1 E1 08 00        1887 	.byte #0xC1,#0xE1,#0x08,#0x00	; 582081
   6BE0 B4 ED 08 00        1888 	.byte #0xB4,#0xED,#0x08,#0x00	; 585140
   6BE4 5E F5 08 00        1889 	.byte #0x5E,#0xF5,#0x08,#0x00	; 587102
   6BE8 2B F9 08 00        1890 	.byte #0x2B,#0xF9,#0x08,#0x00	; 588075
   6BEC BC 00 09 00        1891 	.byte #0xBC,#0x00,#0x09,#0x00	; 590012
   6BF0 C9 0C 09 00        1892 	.byte #0xC9,#0x0C,#0x09,#0x00	; 593097
   6BF4 23 14 09 00        1893 	.byte #0x23,#0x14,#0x09,#0x00	; 594979
   6BF8 56 18 09 00        1894 	.byte #0x56,#0x18,#0x09,#0x00	; 596054
   6BFC F7 25 09 00        1895 	.byte #0xF7,#0x25,#0x09,#0x00	; 599543
   6C00 82 29 09 00        1896 	.byte #0x82,#0x29,#0x09,#0x00	; 600450
   6C04 68 31 09 00        1897 	.byte #0x68,#0x31,#0x09,#0x00	; 602472
   6C08 1D 3D 09 00        1898 	.byte #0x1D,#0x3D,#0x09,#0x00	; 605469
   6C0C 5F 46 09 00        1899 	.byte #0x5F,#0x46,#0x09,#0x00	; 607839
   6C10 2A 4A 09 00        1900 	.byte #0x2A,#0x4A,#0x09,#0x00	; 608810
   6C14 C0 52 09 00        1901 	.byte #0xC0,#0x52,#0x09,#0x00	; 611008
   6C18 B5 5E 09 00        1902 	.byte #0xB5,#0x5E,#0x09,#0x00	; 614069
   6C1C 14 63 09 00        1903 	.byte #0x14,#0x63,#0x09,#0x00	; 615188
   6C20 61 6F 09 00        1904 	.byte #0x61,#0x6F,#0x09,#0x00	; 618337
   6C24 8B 77 09 00        1905 	.byte #0x8B,#0x77,#0x09,#0x00	; 620427
   6C28 FE 7B 09 00        1906 	.byte #0xFE,#0x7B,#0x09,#0x00	; 621566
   6C2C 0F 81 09 00        1907 	.byte #0x0F,#0x81,#0x09,#0x00	; 622863
   6C30 7A 8D 09 00        1908 	.byte #0x7A,#0x8D,#0x09,#0x00	; 626042
   6C34 90 95 09 00        1909 	.byte #0x90,#0x95,#0x09,#0x00	; 628112
   6C38 E5 99 09 00        1910 	.byte #0xE5,#0x99,#0x09,#0x00	; 629221
   6C3C 44 A4 09 00        1911 	.byte #0x44,#0xA4,#0x09,#0x00	; 631876
   6C40 31 A8 09 00        1912 	.byte #0x31,#0xA8,#0x09,#0x00	; 632881
   6C44 DB B0 09 00        1913 	.byte #0xDB,#0xB0,#0x09,#0x00	; 635099
   6C48 AE BC 09 00        1914 	.byte #0xAE,#0xBC,#0x09,#0x00	; 638126
   6C4C EC C7 09 00        1915 	.byte #0xEC,#0xC7,#0x09,#0x00	; 641004
   6C50 99 CB 09 00        1916 	.byte #0x99,#0xCB,#0x09,#0x00	; 641945
   6C54 73 D3 09 00        1917 	.byte #0x73,#0xD3,#0x09,#0x00	; 643955
   6C58 06 DF 09 00        1918 	.byte #0x06,#0xDF,#0x09,#0x00	; 646918
   6C5C A7 E2 09 00        1919 	.byte #0xA7,#0xE2,#0x09,#0x00	; 647847
   6C60 D2 EE 09 00        1920 	.byte #0xD2,#0xEE,#0x09,#0x00	; 650962
   6C64 38 F6 09 00        1921 	.byte #0x38,#0xF6,#0x09,#0x00	; 652856
   6C68 4D FA 09 00        1922 	.byte #0x4D,#0xFA,#0x09,#0x00	; 653901
   6C6C 16 05 0A 00        1923 	.byte #0x16,#0x05,#0x0A,#0x00	; 656662
   6C70 63 09 0A 00        1924 	.byte #0x63,#0x09,#0x0A,#0x00	; 657763
   6C74 89 11 0A 00        1925 	.byte #0x89,#0x11,#0x0A,#0x00	; 659849
   6C78 FC 1D 0A 00        1926 	.byte #0xFC,#0x1D,#0x0A,#0x00	; 663036
   6C7C 5D 20 0A 00        1927 	.byte #0x5D,#0x20,#0x0A,#0x00	; 663645
   6C80 28 2C 0A 00        1928 	.byte #0x28,#0x2C,#0x0A,#0x00	; 666664
   6C84 C2 34 0A 00        1929 	.byte #0xC2,#0x34,#0x0A,#0x00	; 668866
   6C88 B7 38 0A 00        1930 	.byte #0xB7,#0x38,#0x0A,#0x00	; 669879
   6C8C F5 43 0A 00        1931 	.byte #0xF5,#0x43,#0x0A,#0x00	; 672757
   6C90 80 4F 0A 00        1932 	.byte #0x80,#0x4F,#0x0A,#0x00	; 675712
   6C94 6A 57 0A 00        1933 	.byte #0x6A,#0x57,#0x0A,#0x00	; 677738
   6C98 1F 5B 0A 00        1934 	.byte #0x1F,#0x5B,#0x0A,#0x00	; 678687
   6C9C BE 66 0A 00        1935 	.byte #0xBE,#0x66,#0x0A,#0x00	; 681662
   6CA0 CB 6A 0A 00        1936 	.byte #0xCB,#0x6A,#0x0A,#0x00	; 682699
   6CA4 21 72 0A 00        1937 	.byte #0x21,#0x72,#0x0A,#0x00	; 684577
   6CA8 54 7E 0A 00        1938 	.byte #0x54,#0x7E,#0x0A,#0x00	; 687700
   6CAC A5 84 0A 00        1939 	.byte #0xA5,#0x84,#0x0A,#0x00	; 689317
   6CB0 D0 88 0A 00        1940 	.byte #0xD0,#0x88,#0x0A,#0x00	; 690384
   6CB4 3A 90 0A 00        1941 	.byte #0x3A,#0x90,#0x0A,#0x00	; 692282
   6CB8 4F 9C 0A 00        1942 	.byte #0x4F,#0x9C,#0x0A,#0x00	; 695375
   6CBC EE A1 0A 00        1943 	.byte #0xEE,#0xA1,#0x0A,#0x00	; 696814
   6CC0 9B AD 0A 00        1944 	.byte #0x9B,#0xAD,#0x0A,#0x00	; 699803
   6CC4 71 B5 0A 00        1945 	.byte #0x71,#0xB5,#0x0A,#0x00	; 701809
   6CC8 04 B9 0A 00        1946 	.byte #0x04,#0xB9,#0x0A,#0x00	; 702724
   6CCC 46 C2 0A 00        1947 	.byte #0x46,#0xC2,#0x0A,#0x00	; 705094
   6CD0 33 CE 0A 00        1948 	.byte #0x33,#0xCE,#0x0A,#0x00	; 708147
   6CD4 D9 D6 0A 00        1949 	.byte #0xD9,#0xD6,#0x0A,#0x00	; 710361
   6CD8 AC DA 0A 00        1950 	.byte #0xAC,#0xDA,#0x0A,#0x00	; 711340
   6CDC 0D E7 0A 00        1951 	.byte #0x0D,#0xE7,#0x0A,#0x00	; 714509
   6CE0 78 EB 0A 00        1952 	.byte #0x78,#0xEB,#0x0A,#0x00	; 715640
   6CE4 92 F3 0A 00        1953 	.byte #0x92,#0xF3,#0x0A,#0x00	; 717714
   6CE8 E7 FF 0A 00        1954 	.byte #0xE7,#0xFF,#0x0A,#0x00	; 720871
   6CEC 70 06 0B 00        1955 	.byte #0x70,#0x06,#0x0B,#0x00	; 722544
   6CF0 05 0A 0B 00        1956 	.byte #0x05,#0x0A,#0x0B,#0x00	; 723461
   6CF4 EF 12 0B 00        1957 	.byte #0xEF,#0x12,#0x0B,#0x00	; 725743
   6CF8 9A 1E 0B 00        1958 	.byte #0x9A,#0x1E,#0x0B,#0x00	; 728730
   6CFC 3B 23 0B 00        1959 	.byte #0x3B,#0x23,#0x0B,#0x00	; 729915
   6D00 4E 2F 0B 00        1960 	.byte #0x4E,#0x2F,#0x0B,#0x00	; 733006
   6D04 A4 37 0B 00        1961 	.byte #0xA4,#0x37,#0x0B,#0x00	; 735140
   6D08 D1 3B 0B 00        1962 	.byte #0xD1,#0x3B,#0x0B,#0x00	; 736209
   6D0C 93 40 0B 00        1963 	.byte #0x93,#0x40,#0x0B,#0x00	; 737427
   6D10 E6 4C 0B 00        1964 	.byte #0xE6,#0x4C,#0x0B,#0x00	; 740582
   6D14 0C 54 0B 00        1965 	.byte #0x0C,#0x54,#0x0B,#0x00	; 742412
   6D18 79 58 0B 00        1966 	.byte #0x79,#0x58,#0x0B,#0x00	; 743545
   6D1C D8 65 0B 00        1967 	.byte #0xD8,#0x65,#0x0B,#0x00	; 746968
   6D20 AD 69 0B 00        1968 	.byte #0xAD,#0x69,#0x0B,#0x00	; 747949
   6D24 47 71 0B 00        1969 	.byte #0x47,#0x71,#0x0B,#0x00	; 749895
   6D28 32 7D 0B 00        1970 	.byte #0x32,#0x7D,#0x0B,#0x00	; 752946
   6D2C C3 87 0B 00        1971 	.byte #0xC3,#0x87,#0x0B,#0x00	; 755651
   6D30 B6 8B 0B 00        1972 	.byte #0xB6,#0x8B,#0x0B,#0x00	; 756662
   6D34 5C 93 0B 00        1973 	.byte #0x5C,#0x93,#0x0B,#0x00	; 758620
   6D38 29 9F 0B 00        1974 	.byte #0x29,#0x9F,#0x0B,#0x00	; 761641
   6D3C 88 A2 0B 00        1975 	.byte #0x88,#0xA2,#0x0B,#0x00	; 762504
   6D40 FD AE 0B 00        1976 	.byte #0xFD,#0xAE,#0x0B,#0x00	; 765693
   6D44 17 B6 0B 00        1977 	.byte #0x17,#0xB6,#0x0B,#0x00	; 767511
   6D48 62 BA 0B 00        1978 	.byte #0x62,#0xBA,#0x0B,#0x00	; 768610
   6D4C 20 C1 0B 00        1979 	.byte #0x20,#0xC1,#0x0B,#0x00	; 770336
   6D50 55 CD 0B 00        1980 	.byte #0x55,#0xCD,#0x0B,#0x00	; 773461
   6D54 BF D5 0B 00        1981 	.byte #0xBF,#0xD5,#0x0B,#0x00	; 775615
   6D58 CA D9 0B 00        1982 	.byte #0xCA,#0xD9,#0x0B,#0x00	; 776650
   6D5C 6B E4 0B 00        1983 	.byte #0x6B,#0xE4,#0x0B,#0x00	; 779371
   6D60 1E E8 0B 00        1984 	.byte #0x1E,#0xE8,#0x0B,#0x00	; 780318
   6D64 F4 F0 0B 00        1985 	.byte #0xF4,#0xF0,#0x0B,#0x00	; 782580
   6D68 81 FC 0B 00        1986 	.byte #0x81,#0xFC,#0x0B,#0x00	; 785537
   6D6C 37 02 0C 00        1987 	.byte #0x37,#0x02,#0x0C,#0x00	; 786999
   6D70 42 0E 0C 00        1988 	.byte #0x42,#0x0E,#0x0C,#0x00	; 790082
   6D74 A8 16 0C 00        1989 	.byte #0xA8,#0x16,#0x0C,#0x00	; 792232
   6D78 DD 1A 0C 00        1990 	.byte #0xDD,#0x1A,#0x0C,#0x00	; 793309
   6D7C 7C 27 0C 00        1991 	.byte #0x7C,#0x27,#0x0C,#0x00	; 796540
   6D80 09 2B 0C 00        1992 	.byte #0x09,#0x2B,#0x0C,#0x00	; 797449
   6D84 E3 33 0C 00        1993 	.byte #0xE3,#0x33,#0x0C,#0x00	; 799715
   6D88 96 3F 0C 00        1994 	.byte #0x96,#0x3F,#0x0C,#0x00	; 802710
   6D8C D4 44 0C 00        1995 	.byte #0xD4,#0x44,#0x0C,#0x00	; 804052
   6D90 A1 48 0C 00        1996 	.byte #0xA1,#0x48,#0x0C,#0x00	; 805025
   6D94 4B 50 0C 00        1997 	.byte #0x4B,#0x50,#0x0C,#0x00	; 806987
   6D98 3E 5C 0C 00        1998 	.byte #0x3E,#0x5C,#0x0C,#0x00	; 810046
   6D9C 9F 61 0C 00        1999 	.byte #0x9F,#0x61,#0x0C,#0x00	; 811423
   6DA0 EA 6D 0C 00        2000 	.byte #0xEA,#0x6D,#0x0C,#0x00	; 814570
   6DA4 00 75 0C 00        2001 	.byte #0x00,#0x75,#0x0C,#0x00	; 816384
   6DA8 75 79 0C 00        2002 	.byte #0x75,#0x79,#0x0C,#0x00	; 817525
   6DAC 84 83 0C 00        2003 	.byte #0x84,#0x83,#0x0C,#0x00	; 820100
   6DB0 F1 8F 0C 00        2004 	.byte #0xF1,#0x8F,#0x0C,#0x00	; 823281
   6DB4 1B 97 0C 00        2005 	.byte #0x1B,#0x97,#0x0C,#0x00	; 825115
   6DB8 6E 9B 0C 00        2006 	.byte #0x6E,#0x9B,#0x0C,#0x00	; 826222
   6DBC CF A6 0C 00        2007 	.byte #0xCF,#0xA6,#0x0C,#0x00	; 829135
   6DC0 BA AA 0C 00        2008 	.byte #0xBA,#0xAA,#0x0C,#0x00	; 830138
   6DC4 50 B2 0C 00        2009 	.byte #0x50,#0xB2,#0x0C,#0x00	; 832080
   6DC8 25 BE 0C 00        2010 	.byte #0x25,#0xBE,#0x0C,#0x00	; 835109
   6DCC 67 C5 0C 00        2011 	.byte #0x67,#0xC5,#0x0C,#0x00	; 836967
   6DD0 12 C9 0C 00        2012 	.byte #0x12,#0xC9,#0x0C,#0x00	; 837906
   6DD4 F8 D1 0C 00        2013 	.byte #0xF8,#0xD1,#0x0C,#0x00	; 840184
   6DD8 8D DD 0C 00        2014 	.byte #0x8D,#0xDD,#0x0C,#0x00	; 843149
   6DDC 2C E0 0C 00        2015 	.byte #0x2C,#0xE0,#0x0C,#0x00	; 843820
   6DE0 59 EC 0C 00        2016 	.byte #0x59,#0xEC,#0x0C,#0x00	; 846937
   6DE4 B3 F4 0C 00        2017 	.byte #0xB3,#0xF4,#0x0C,#0x00	; 849075
   6DE8 C6 F8 0C 00        2018 	.byte #0xC6,#0xF8,#0x0C,#0x00	; 850118
   6DEC 51 01 0D 00        2019 	.byte #0x51,#0x01,#0x0D,#0x00	; 852305
   6DF0 24 0D 0D 00        2020 	.byte #0x24,#0x0D,#0x0D,#0x00	; 855332
   6DF4 CE 15 0D 00        2021 	.byte #0xCE,#0x15,#0x0D,#0x00	; 857550
   6DF8 BB 19 0D 00        2022 	.byte #0xBB,#0x19,#0x0D,#0x00	; 858555
   6DFC 1A 24 0D 00        2023 	.byte #0x1A,#0x24,#0x0D,#0x00	; 861210
   6E00 6F 28 0D 00        2024 	.byte #0x6F,#0x28,#0x0D,#0x00	; 862319
   6E04 85 30 0D 00        2025 	.byte #0x85,#0x30,#0x0D,#0x00	; 864389
   6E08 F0 3C 0D 00        2026 	.byte #0xF0,#0x3C,#0x0D,#0x00	; 867568
   6E0C B2 47 0D 00        2027 	.byte #0xB2,#0x47,#0x0D,#0x00	; 870322
   6E10 C7 4B 0D 00        2028 	.byte #0xC7,#0x4B,#0x0D,#0x00	; 871367
   6E14 2D 53 0D 00        2029 	.byte #0x2D,#0x53,#0x0D,#0x00	; 873261
   6E18 58 5F 0D 00        2030 	.byte #0x58,#0x5F,#0x0D,#0x00	; 876376
   6E1C F9 62 0D 00        2031 	.byte #0xF9,#0x62,#0x0D,#0x00	; 877305
   6E20 8C 6E 0D 00        2032 	.byte #0x8C,#0x6E,#0x0D,#0x00	; 880268
   6E24 66 76 0D 00        2033 	.byte #0x66,#0x76,#0x0D,#0x00	; 882278
   6E28 13 7A 0D 00        2034 	.byte #0x13,#0x7A,#0x0D,#0x00	; 883219
   6E2C E2 80 0D 00        2035 	.byte #0xE2,#0x80,#0x0D,#0x00	; 884962
   6E30 97 8C 0D 00        2036 	.byte #0x97,#0x8C,#0x0D,#0x00	; 887959
   6E34 7D 94 0D 00        2037 	.byte #0x7D,#0x94,#0x0D,#0x00	; 889981
   6E38 08 98 0D 00        2038 	.byte #0x08,#0x98,#0x0D,#0x00	; 890888
   6E3C A9 A5 0D 00        2039 	.byte #0xA9,#0xA5,#0x0D,#0x00	; 894377
   6E40 DC A9 0D 00        2040 	.byte #0xDC,#0xA9,#0x0D,#0x00	; 895452
   6E44 36 B1 0D 00        2041 	.byte #0x36,#0xB1,#0x0D,#0x00	; 897334
   6E48 43 BD 0D 00        2042 	.byte #0x43,#0xBD,#0x0D,#0x00	; 900419
   6E4C 01 C6 0D 00        2043 	.byte #0x01,#0xC6,#0x0D,#0x00	; 902657
   6E50 74 CA 0D 00        2044 	.byte #0x74,#0xCA,#0x0D,#0x00	; 903796
   6E54 9E D2 0D 00        2045 	.byte #0x9E,#0xD2,#0x0D,#0x00	; 905886
   6E58 EB DE 0D 00        2046 	.byte #0xEB,#0xDE,#0x0D,#0x00	; 909035
   6E5C 4A E3 0D 00        2047 	.byte #0x4A,#0xE3,#0x0D,#0x00	; 910154
   6E60 3F EF 0D 00        2048 	.byte #0x3F,#0xEF,#0x0D,#0x00	; 913215
   6E64 D5 F7 0D 00        2049 	.byte #0xD5,#0xF7,#0x0D,#0x00	; 915413
   6E68 A0 FB 0D 00        2050 	.byte #0xA0,#0xFB,#0x0D,#0x00	; 916384
   6E6C FB 04 0E 00        2051 	.byte #0xFB,#0x04,#0x0E,#0x00	; 918779
   6E70 8E 08 0E 00        2052 	.byte #0x8E,#0x08,#0x0E,#0x00	; 919694
   6E74 64 10 0E 00        2053 	.byte #0x64,#0x10,#0x0E,#0x00	; 921700
   6E78 11 1C 0E 00        2054 	.byte #0x11,#0x1C,#0x0E,#0x00	; 924689
   6E7C B0 21 0E 00        2055 	.byte #0xB0,#0x21,#0x0E,#0x00	; 926128
   6E80 C5 2D 0E 00        2056 	.byte #0xC5,#0x2D,#0x0E,#0x00	; 929221
   6E84 2F 35 0E 00        2057 	.byte #0x2F,#0x35,#0x0E,#0x00	; 931119
   6E88 5A 39 0E 00        2058 	.byte #0x5A,#0x39,#0x0E,#0x00	; 932186
   6E8C 18 42 0E 00        2059 	.byte #0x18,#0x42,#0x0E,#0x00	; 934424
   6E90 6D 4E 0E 00        2060 	.byte #0x6D,#0x4E,#0x0E,#0x00	; 937581
   6E94 87 56 0E 00        2061 	.byte #0x87,#0x56,#0x0E,#0x00	; 939655
   6E98 F2 5A 0E 00        2062 	.byte #0xF2,#0x5A,#0x0E,#0x00	; 940786
   6E9C 53 67 0E 00        2063 	.byte #0x53,#0x67,#0x0E,#0x00	; 943955
   6EA0 26 6B 0E 00        2064 	.byte #0x26,#0x6B,#0x0E,#0x00	; 944934
   6EA4 CC 73 0E 00        2065 	.byte #0xCC,#0x73,#0x0E,#0x00	; 947148
   6EA8 B9 7F 0E 00        2066 	.byte #0xB9,#0x7F,#0x0E,#0x00	; 950201
   6EAC 48 85 0E 00        2067 	.byte #0x48,#0x85,#0x0E,#0x00	; 951624
   6EB0 3D 89 0E 00        2068 	.byte #0x3D,#0x89,#0x0E,#0x00	; 952637
   6EB4 D7 91 0E 00        2069 	.byte #0xD7,#0x91,#0x0E,#0x00	; 954839
   6EB8 A2 9D 0E 00        2070 	.byte #0xA2,#0x9D,#0x0E,#0x00	; 957858
   6EBC 03 A0 0E 00        2071 	.byte #0x03,#0xA0,#0x0E,#0x00	; 958467
   6EC0 76 AC 0E 00        2072 	.byte #0x76,#0xAC,#0x0E,#0x00	; 961654
   6EC4 9C B4 0E 00        2073 	.byte #0x9C,#0xB4,#0x0E,#0x00	; 963740
   6EC8 E9 B8 0E 00        2074 	.byte #0xE9,#0xB8,#0x0E,#0x00	; 964841
   6ECC AB C3 0E 00        2075 	.byte #0xAB,#0xC3,#0x0E,#0x00	; 967595
   6ED0 DE CF 0E 00        2076 	.byte #0xDE,#0xCF,#0x0E,#0x00	; 970718
   6ED4 34 D7 0E 00        2077 	.byte #0x34,#0xD7,#0x0E,#0x00	; 972596
   6ED8 41 DB 0E 00        2078 	.byte #0x41,#0xDB,#0x0E,#0x00	; 973633
   6EDC E0 E6 0E 00        2079 	.byte #0xE0,#0xE6,#0x0E,#0x00	; 976608
   6EE0 95 EA 0E 00        2080 	.byte #0x95,#0xEA,#0x0E,#0x00	; 977557
   6EE4 7F F2 0E 00        2081 	.byte #0x7F,#0xF2,#0x0E,#0x00	; 979583
   6EE8 0A FE 0E 00        2082 	.byte #0x0A,#0xFE,#0x0E,#0x00	; 982538
   6EEC 9D 07 0F 00        2083 	.byte #0x9D,#0x07,#0x0F,#0x00	; 984989
   6EF0 E8 0B 0F 00        2084 	.byte #0xE8,#0x0B,#0x0F,#0x00	; 986088
   6EF4 02 13 0F 00        2085 	.byte #0x02,#0x13,#0x0F,#0x00	; 987906
   6EF8 77 1F 0F 00        2086 	.byte #0x77,#0x1F,#0x0F,#0x00	; 991095
   6EFC D6 22 0F 00        2087 	.byte #0xD6,#0x22,#0x0F,#0x00	; 991958
   6F00 A3 2E 0F 00        2088 	.byte #0xA3,#0x2E,#0x0F,#0x00	; 994979
   6F04 49 36 0F 00        2089 	.byte #0x49,#0x36,#0x0F,#0x00	; 996937
   6F08 3C 3A 0F 00        2090 	.byte #0x3C,#0x3A,#0x0F,#0x00	; 997948
   6F0C 7E 41 0F 00        2091 	.byte #0x7E,#0x41,#0x0F,#0x00	; 999806
   6F10 0B 4D 0F 00        2092 	.byte #0x0B,#0x4D,#0x0F,#0x00	; 1002763
   6F14 E1 55 0F 00        2093 	.byte #0xE1,#0x55,#0x0F,#0x00	; 1005025
   6F18 94 59 0F 00        2094 	.byte #0x94,#0x59,#0x0F,#0x00	; 1005972
   6F1C 35 64 0F 00        2095 	.byte #0x35,#0x64,#0x0F,#0x00	; 1008693
   6F20 40 68 0F 00        2096 	.byte #0x40,#0x68,#0x0F,#0x00	; 1009728
   6F24 AA 70 0F 00        2097 	.byte #0xAA,#0x70,#0x0F,#0x00	; 1011882
   6F28 DF 7C 0F 00        2098 	.byte #0xDF,#0x7C,#0x0F,#0x00	; 1015007
   6F2C 2E 86 0F 00        2099 	.byte #0x2E,#0x86,#0x0F,#0x00	; 1017390
   6F30 5B 8A 0F 00        2100 	.byte #0x5B,#0x8A,#0x0F,#0x00	; 1018459
   6F34 B1 92 0F 00        2101 	.byte #0xB1,#0x92,#0x0F,#0x00	; 1020593
   6F38 C4 9E 0F 00        2102 	.byte #0xC4,#0x9E,#0x0F,#0x00	; 1023684
   6F3C 65 A3 0F 00        2103 	.byte #0x65,#0xA3,#0x0F,#0x00	; 1024869
   6F40 10 AF 0F 00        2104 	.byte #0x10,#0xAF,#0x0F,#0x00	; 1027856
   6F44 FA B7 0F 00        2105 	.byte #0xFA,#0xB7,#0x0F,#0x00	; 1030138
   6F48 8F BB 0F 00        2106 	.byte #0x8F,#0xBB,#0x0F,#0x00	; 1031055
   6F4C CD C0 0F 00        2107 	.byte #0xCD,#0xC0,#0x0F,#0x00	; 1032397
   6F50 B8 CC 0F 00        2108 	.byte #0xB8,#0xCC,#0x0F,#0x00	; 1035448
   6F54 52 D4 0F 00        2109 	.byte #0x52,#0xD4,#0x0F,#0x00	; 1037394
   6F58 27 D8 0F 00        2110 	.byte #0x27,#0xD8,#0x0F,#0x00	; 1038375
   6F5C 86 E5 0F 00        2111 	.byte #0x86,#0xE5,#0x0F,#0x00	; 1041798
   6F60 F3 E9 0F 00        2112 	.byte #0xF3,#0xE9,#0x0F,#0x00	; 1042931
   6F64 19 F1 0F 00        2113 	.byte #0x19,#0xF1,#0x0F,#0x00	; 1044761
   6F68 6C FD 0F 00        2114 	.byte #0x6C,#0xFD,#0x0F,#0x00	; 1047916
   6F6C B4 07 10 00        2115 	.byte #0xB4,#0x07,#0x10,#0x00	; 1050548
   6F70 C1 0B 10 00        2116 	.byte #0xC1,#0x0B,#0x10,#0x00	; 1051585
   6F74 2B 13 10 00        2117 	.byte #0x2B,#0x13,#0x10,#0x00	; 1053483
   6F78 5E 1F 10 00        2118 	.byte #0x5E,#0x1F,#0x10,#0x00	; 1056606
   6F7C FF 22 10 00        2119 	.byte #0xFF,#0x22,#0x10,#0x00	; 1057535
   6F80 8A 2E 10 00        2120 	.byte #0x8A,#0x2E,#0x10,#0x00	; 1060490
   6F84 60 36 10 00        2121 	.byte #0x60,#0x36,#0x10,#0x00	; 1062496
   6F88 15 3A 10 00        2122 	.byte #0x15,#0x3A,#0x10,#0x00	; 1063445
   6F8C 57 41 10 00        2123 	.byte #0x57,#0x41,#0x10,#0x00	; 1065303
   6F90 22 4D 10 00        2124 	.byte #0x22,#0x4D,#0x10,#0x00	; 1068322
   6F94 C8 55 10 00        2125 	.byte #0xC8,#0x55,#0x10,#0x00	; 1070536
   6F98 BD 59 10 00        2126 	.byte #0xBD,#0x59,#0x10,#0x00	; 1071549
   6F9C 1C 64 10 00        2127 	.byte #0x1C,#0x64,#0x10,#0x00	; 1074204
   6FA0 69 68 10 00        2128 	.byte #0x69,#0x68,#0x10,#0x00	; 1075305
   6FA4 83 70 10 00        2129 	.byte #0x83,#0x70,#0x10,#0x00	; 1077379
   6FA8 F6 7C 10 00        2130 	.byte #0xF6,#0x7C,#0x10,#0x00	; 1080566
   6FAC 07 86 10 00        2131 	.byte #0x07,#0x86,#0x10,#0x00	; 1082887
   6FB0 72 8A 10 00        2132 	.byte #0x72,#0x8A,#0x10,#0x00	; 1084018
   6FB4 98 92 10 00        2133 	.byte #0x98,#0x92,#0x10,#0x00	; 1086104
   6FB8 ED 9E 10 00        2134 	.byte #0xED,#0x9E,#0x10,#0x00	; 1089261
   6FBC 4C A3 10 00        2135 	.byte #0x4C,#0xA3,#0x10,#0x00	; 1090380
   6FC0 39 AF 10 00        2136 	.byte #0x39,#0xAF,#0x10,#0x00	; 1093433
   6FC4 D3 B7 10 00        2137 	.byte #0xD3,#0xB7,#0x10,#0x00	; 1095635
   6FC8 A6 BB 10 00        2138 	.byte #0xA6,#0xBB,#0x10,#0x00	; 1096614
   6FCC E4 C0 10 00        2139 	.byte #0xE4,#0xC0,#0x10,#0x00	; 1097956
   6FD0 91 CC 10 00        2140 	.byte #0x91,#0xCC,#0x10,#0x00	; 1100945
   6FD4 7B D4 10 00        2141 	.byte #0x7B,#0xD4,#0x10,#0x00	; 1102971
   6FD8 0E D8 10 00        2142 	.byte #0x0E,#0xD8,#0x10,#0x00	; 1103886
   6FDC AF E5 10 00        2143 	.byte #0xAF,#0xE5,#0x10,#0x00	; 1107375
   6FE0 DA E9 10 00        2144 	.byte #0xDA,#0xE9,#0x10,#0x00	; 1108442
   6FE4 30 F1 10 00        2145 	.byte #0x30,#0xF1,#0x10,#0x00	; 1110320
   6FE8 45 FD 10 00        2146 	.byte #0x45,#0xFD,#0x10,#0x00	; 1113413
   6FEC D2 04 11 00        2147 	.byte #0xD2,#0x04,#0x11,#0x00	; 1115346
   6FF0 A7 08 11 00        2148 	.byte #0xA7,#0x08,#0x11,#0x00	; 1116327
   6FF4 4D 10 11 00        2149 	.byte #0x4D,#0x10,#0x11,#0x00	; 1118285
   6FF8 38 1C 11 00        2150 	.byte #0x38,#0x1C,#0x11,#0x00	; 1121336
   6FFC 99 21 11 00        2151 	.byte #0x99,#0x21,#0x11,#0x00	; 1122713
   7000 EC 2D 11 00        2152 	.byte #0xEC,#0x2D,#0x11,#0x00	; 1125868
   7004 06 35 11 00        2153 	.byte #0x06,#0x35,#0x11,#0x00	; 1127686
   7008 73 39 11 00        2154 	.byte #0x73,#0x39,#0x11,#0x00	; 1128819
   700C 31 42 11 00        2155 	.byte #0x31,#0x42,#0x11,#0x00	; 1131057
   7010 44 4E 11 00        2156 	.byte #0x44,#0x4E,#0x11,#0x00	; 1134148
   7014 AE 56 11 00        2157 	.byte #0xAE,#0x56,#0x11,#0x00	; 1136302
   7018 DB 5A 11 00        2158 	.byte #0xDB,#0x5A,#0x11,#0x00	; 1137371
   701C 7A 67 11 00        2159 	.byte #0x7A,#0x67,#0x11,#0x00	; 1140602
   7020 0F 6B 11 00        2160 	.byte #0x0F,#0x6B,#0x11,#0x00	; 1141519
   7024 E5 73 11 00        2161 	.byte #0xE5,#0x73,#0x11,#0x00	; 1143781
   7028 90 7F 11 00        2162 	.byte #0x90,#0x7F,#0x11,#0x00	; 1146768
   702C 61 85 11 00        2163 	.byte #0x61,#0x85,#0x11,#0x00	; 1148257
   7030 14 89 11 00        2164 	.byte #0x14,#0x89,#0x11,#0x00	; 1149204
   7034 FE 91 11 00        2165 	.byte #0xFE,#0x91,#0x11,#0x00	; 1151486
   7038 8B 9D 11 00        2166 	.byte #0x8B,#0x9D,#0x11,#0x00	; 1154443
   703C 2A A0 11 00        2167 	.byte #0x2A,#0xA0,#0x11,#0x00	; 1155114
   7040 5F AC 11 00        2168 	.byte #0x5F,#0xAC,#0x11,#0x00	; 1158239
   7044 B5 B4 11 00        2169 	.byte #0xB5,#0xB4,#0x11,#0x00	; 1160373
   7048 C0 B8 11 00        2170 	.byte #0xC0,#0xB8,#0x11,#0x00	; 1161408
   704C 82 C3 11 00        2171 	.byte #0x82,#0xC3,#0x11,#0x00	; 1164162
   7050 F7 CF 11 00        2172 	.byte #0xF7,#0xCF,#0x11,#0x00	; 1167351
   7054 1D D7 11 00        2173 	.byte #0x1D,#0xD7,#0x11,#0x00	; 1169181
   7058 68 DB 11 00        2174 	.byte #0x68,#0xDB,#0x11,#0x00	; 1170280
   705C C9 E6 11 00        2175 	.byte #0xC9,#0xE6,#0x11,#0x00	; 1173193
   7060 BC EA 11 00        2176 	.byte #0xBC,#0xEA,#0x11,#0x00	; 1174204
   7064 56 F2 11 00        2177 	.byte #0x56,#0xF2,#0x11,#0x00	; 1176150
   7068 23 FE 11 00        2178 	.byte #0x23,#0xFE,#0x11,#0x00	; 1179171
   706C 78 01 12 00        2179 	.byte #0x78,#0x01,#0x12,#0x00	; 1180024
   7070 0D 0D 12 00        2180 	.byte #0x0D,#0x0D,#0x12,#0x00	; 1182989
   7074 E7 15 12 00        2181 	.byte #0xE7,#0x15,#0x12,#0x00	; 1185255
   7078 92 19 12 00        2182 	.byte #0x92,#0x19,#0x12,#0x00	; 1186194
   707C 33 24 12 00        2183 	.byte #0x33,#0x24,#0x12,#0x00	; 1188915
   7080 46 28 12 00        2184 	.byte #0x46,#0x28,#0x12,#0x00	; 1189958
   7084 AC 30 12 00        2185 	.byte #0xAC,#0x30,#0x12,#0x00	; 1192108
   7088 D9 3C 12 00        2186 	.byte #0xD9,#0x3C,#0x12,#0x00	; 1195225
   708C 9B 47 12 00        2187 	.byte #0x9B,#0x47,#0x12,#0x00	; 1197979
   7090 EE 4B 12 00        2188 	.byte #0xEE,#0x4B,#0x12,#0x00	; 1199086
   7094 04 53 12 00        2189 	.byte #0x04,#0x53,#0x12,#0x00	; 1200900
   7098 71 5F 12 00        2190 	.byte #0x71,#0x5F,#0x12,#0x00	; 1204081
   709C D0 62 12 00        2191 	.byte #0xD0,#0x62,#0x12,#0x00	; 1204944
   70A0 A5 6E 12 00        2192 	.byte #0xA5,#0x6E,#0x12,#0x00	; 1207973
   70A4 4F 76 12 00        2193 	.byte #0x4F,#0x76,#0x12,#0x00	; 1209935
   70A8 3A 7A 12 00        2194 	.byte #0x3A,#0x7A,#0x12,#0x00	; 1210938
   70AC CB 80 12 00        2195 	.byte #0xCB,#0x80,#0x12,#0x00	; 1212619
   70B0 BE 8C 12 00        2196 	.byte #0xBE,#0x8C,#0x12,#0x00	; 1215678
   70B4 54 94 12 00        2197 	.byte #0x54,#0x94,#0x12,#0x00	; 1217620
   70B8 21 98 12 00        2198 	.byte #0x21,#0x98,#0x12,#0x00	; 1218593
   70BC 80 A5 12 00        2199 	.byte #0x80,#0xA5,#0x12,#0x00	; 1222016
   70C0 F5 A9 12 00        2200 	.byte #0xF5,#0xA9,#0x12,#0x00	; 1223157
   70C4 1F B1 12 00        2201 	.byte #0x1F,#0xB1,#0x12,#0x00	; 1224991
   70C8 6A BD 12 00        2202 	.byte #0x6A,#0xBD,#0x12,#0x00	; 1228138
   70CC 28 C6 12 00        2203 	.byte #0x28,#0xC6,#0x12,#0x00	; 1230376
   70D0 5D CA 12 00        2204 	.byte #0x5D,#0xCA,#0x12,#0x00	; 1231453
   70D4 B7 D2 12 00        2205 	.byte #0xB7,#0xD2,#0x12,#0x00	; 1233591
   70D8 C2 DE 12 00        2206 	.byte #0xC2,#0xDE,#0x12,#0x00	; 1236674
   70DC 63 E3 12 00        2207 	.byte #0x63,#0xE3,#0x12,#0x00	; 1237859
   70E0 16 EF 12 00        2208 	.byte #0x16,#0xEF,#0x12,#0x00	; 1240854
   70E4 FC F7 12 00        2209 	.byte #0xFC,#0xF7,#0x12,#0x00	; 1243132
   70E8 89 FB 12 00        2210 	.byte #0x89,#0xFB,#0x12,#0x00	; 1244041
   70EC 1E 02 13 00        2211 	.byte #0x1E,#0x02,#0x13,#0x00	; 1245726
   70F0 6B 0E 13 00        2212 	.byte #0x6B,#0x0E,#0x13,#0x00	; 1248875
   70F4 81 16 13 00        2213 	.byte #0x81,#0x16,#0x13,#0x00	; 1250945
   70F8 F4 1A 13 00        2214 	.byte #0xF4,#0x1A,#0x13,#0x00	; 1252084
   70FC 55 27 13 00        2215 	.byte #0x55,#0x27,#0x13,#0x00	; 1255253
   7100 20 2B 13 00        2216 	.byte #0x20,#0x2B,#0x13,#0x00	; 1256224
   7104 CA 33 13 00        2217 	.byte #0xCA,#0x33,#0x13,#0x00	; 1258442
   7108 BF 3F 13 00        2218 	.byte #0xBF,#0x3F,#0x13,#0x00	; 1261503
   710C FD 44 13 00        2219 	.byte #0xFD,#0x44,#0x13,#0x00	; 1262845
   7110 88 48 13 00        2220 	.byte #0x88,#0x48,#0x13,#0x00	; 1263752
   7114 62 50 13 00        2221 	.byte #0x62,#0x50,#0x13,#0x00	; 1265762
   7118 17 5C 13 00        2222 	.byte #0x17,#0x5C,#0x13,#0x00	; 1268759
   711C B6 61 13 00        2223 	.byte #0xB6,#0x61,#0x13,#0x00	; 1270198
   7120 C3 6D 13 00        2224 	.byte #0xC3,#0x6D,#0x13,#0x00	; 1273283
   7124 29 75 13 00        2225 	.byte #0x29,#0x75,#0x13,#0x00	; 1275177
   7128 5C 79 13 00        2226 	.byte #0x5C,#0x79,#0x13,#0x00	; 1276252
   712C AD 83 13 00        2227 	.byte #0xAD,#0x83,#0x13,#0x00	; 1278893
   7130 D8 8F 13 00        2228 	.byte #0xD8,#0x8F,#0x13,#0x00	; 1282008
   7134 32 97 13 00        2229 	.byte #0x32,#0x97,#0x13,#0x00	; 1283890
   7138 47 9B 13 00        2230 	.byte #0x47,#0x9B,#0x13,#0x00	; 1284935
   713C E6 A6 13 00        2231 	.byte #0xE6,#0xA6,#0x13,#0x00	; 1287910
   7140 93 AA 13 00        2232 	.byte #0x93,#0xAA,#0x13,#0x00	; 1288851
   7144 79 B2 13 00        2233 	.byte #0x79,#0xB2,#0x13,#0x00	; 1290873
   7148 0C BE 13 00        2234 	.byte #0x0C,#0xBE,#0x13,#0x00	; 1293836
   714C 4E C5 13 00        2235 	.byte #0x4E,#0xC5,#0x13,#0x00	; 1295694
   7150 3B C9 13 00        2236 	.byte #0x3B,#0xC9,#0x13,#0x00	; 1296699
   7154 D1 D1 13 00        2237 	.byte #0xD1,#0xD1,#0x13,#0x00	; 1298897
   7158 A4 DD 13 00        2238 	.byte #0xA4,#0xDD,#0x13,#0x00	; 1301924
   715C 05 E0 13 00        2239 	.byte #0x05,#0xE0,#0x13,#0x00	; 1302533
   7160 70 EC 13 00        2240 	.byte #0x70,#0xEC,#0x13,#0x00	; 1305712
   7164 9A F4 13 00        2241 	.byte #0x9A,#0xF4,#0x13,#0x00	; 1307802
   7168 EF F8 13 00        2242 	.byte #0xEF,#0xF8,#0x13,#0x00	; 1308911
   716C 59 06 14 00        2243 	.byte #0x59,#0x06,#0x14,#0x00	; 1312345
   7170 2C 0A 14 00        2244 	.byte #0x2C,#0x0A,#0x14,#0x00	; 1313324
   7174 C6 12 14 00        2245 	.byte #0xC6,#0x12,#0x14,#0x00	; 1315526
   7178 B3 1E 14 00        2246 	.byte #0xB3,#0x1E,#0x14,#0x00	; 1318579
   717C 12 23 14 00        2247 	.byte #0x12,#0x23,#0x14,#0x00	; 1319698
   7180 67 2F 14 00        2248 	.byte #0x67,#0x2F,#0x14,#0x00	; 1322855
   7184 8D 37 14 00        2249 	.byte #0x8D,#0x37,#0x14,#0x00	; 1324941
   7188 F8 3B 14 00        2250 	.byte #0xF8,#0x3B,#0x14,#0x00	; 1326072
   718C BA 40 14 00        2251 	.byte #0xBA,#0x40,#0x14,#0x00	; 1327290
   7190 CF 4C 14 00        2252 	.byte #0xCF,#0x4C,#0x14,#0x00	; 1330383
   7194 25 54 14 00        2253 	.byte #0x25,#0x54,#0x14,#0x00	; 1332261
   7198 50 58 14 00        2254 	.byte #0x50,#0x58,#0x14,#0x00	; 1333328
   719C F1 65 14 00        2255 	.byte #0xF1,#0x65,#0x14,#0x00	; 1336817
   71A0 84 69 14 00        2256 	.byte #0x84,#0x69,#0x14,#0x00	; 1337732
   71A4 6E 71 14 00        2257 	.byte #0x6E,#0x71,#0x14,#0x00	; 1339758
   71A8 1B 7D 14 00        2258 	.byte #0x1B,#0x7D,#0x14,#0x00	; 1342747
   71AC EA 87 14 00        2259 	.byte #0xEA,#0x87,#0x14,#0x00	; 1345514
   71B0 9F 8B 14 00        2260 	.byte #0x9F,#0x8B,#0x14,#0x00	; 1346463
   71B4 75 93 14 00        2261 	.byte #0x75,#0x93,#0x14,#0x00	; 1348469
   71B8 00 9F 14 00        2262 	.byte #0x00,#0x9F,#0x14,#0x00	; 1351424
   71BC A1 A2 14 00        2263 	.byte #0xA1,#0xA2,#0x14,#0x00	; 1352353
   71C0 D4 AE 14 00        2264 	.byte #0xD4,#0xAE,#0x14,#0x00	; 1355476
   71C4 3E B6 14 00        2265 	.byte #0x3E,#0xB6,#0x14,#0x00	; 1357374
   71C8 4B BA 14 00        2266 	.byte #0x4B,#0xBA,#0x14,#0x00	; 1358411
   71CC 09 C1 14 00        2267 	.byte #0x09,#0xC1,#0x14,#0x00	; 1360137
   71D0 7C CD 14 00        2268 	.byte #0x7C,#0xCD,#0x14,#0x00	; 1363324
   71D4 96 D5 14 00        2269 	.byte #0x96,#0xD5,#0x14,#0x00	; 1365398
   71D8 E3 D9 14 00        2270 	.byte #0xE3,#0xD9,#0x14,#0x00	; 1366499
   71DC 42 E4 14 00        2271 	.byte #0x42,#0xE4,#0x14,#0x00	; 1369154
   71E0 37 E8 14 00        2272 	.byte #0x37,#0xE8,#0x14,#0x00	; 1370167
   71E4 DD F0 14 00        2273 	.byte #0xDD,#0xF0,#0x14,#0x00	; 1372381
   71E8 A8 FC 14 00        2274 	.byte #0xA8,#0xFC,#0x14,#0x00	; 1375400
   71EC 3F 05 15 00        2275 	.byte #0x3F,#0x05,#0x15,#0x00	; 1377599
   71F0 4A 09 15 00        2276 	.byte #0x4A,#0x09,#0x15,#0x00	; 1378634
   71F4 A0 11 15 00        2277 	.byte #0xA0,#0x11,#0x15,#0x00	; 1380768
   71F8 D5 1D 15 00        2278 	.byte #0xD5,#0x1D,#0x15,#0x00	; 1383893
   71FC 74 20 15 00        2279 	.byte #0x74,#0x20,#0x15,#0x00	; 1384564
   7200 01 2C 15 00        2280 	.byte #0x01,#0x2C,#0x15,#0x00	; 1387521
   7204 EB 34 15 00        2281 	.byte #0xEB,#0x34,#0x15,#0x00	; 1389803
   7208 9E 38 15 00        2282 	.byte #0x9E,#0x38,#0x15,#0x00	; 1390750
   720C DC 43 15 00        2283 	.byte #0xDC,#0x43,#0x15,#0x00	; 1393628
   7210 A9 4F 15 00        2284 	.byte #0xA9,#0x4F,#0x15,#0x00	; 1396649
   7214 43 57 15 00        2285 	.byte #0x43,#0x57,#0x15,#0x00	; 1398595
   7218 36 5B 15 00        2286 	.byte #0x36,#0x5B,#0x15,#0x00	; 1399606
   721C 97 66 15 00        2287 	.byte #0x97,#0x66,#0x15,#0x00	; 1402519
   7220 E2 6A 15 00        2288 	.byte #0xE2,#0x6A,#0x15,#0x00	; 1403618
   7224 08 72 15 00        2289 	.byte #0x08,#0x72,#0x15,#0x00	; 1405448
   7228 7D 7E 15 00        2290 	.byte #0x7D,#0x7E,#0x15,#0x00	; 1408637
   722C 8C 84 15 00        2291 	.byte #0x8C,#0x84,#0x15,#0x00	; 1410188
   7230 F9 88 15 00        2292 	.byte #0xF9,#0x88,#0x15,#0x00	; 1411321
   7234 13 90 15 00        2293 	.byte #0x13,#0x90,#0x15,#0x00	; 1413139
   7238 66 9C 15 00        2294 	.byte #0x66,#0x9C,#0x15,#0x00	; 1416294
   723C C7 A1 15 00        2295 	.byte #0xC7,#0xA1,#0x15,#0x00	; 1417671
   7240 B2 AD 15 00        2296 	.byte #0xB2,#0xAD,#0x15,#0x00	; 1420722
   7244 58 B5 15 00        2297 	.byte #0x58,#0xB5,#0x15,#0x00	; 1422680
   7248 2D B9 15 00        2298 	.byte #0x2D,#0xB9,#0x15,#0x00	; 1423661
   724C 6F C2 15 00        2299 	.byte #0x6F,#0xC2,#0x15,#0x00	; 1426031
   7250 1A CE 15 00        2300 	.byte #0x1A,#0xCE,#0x15,#0x00	; 1429018
   7254 F0 D6 15 00        2301 	.byte #0xF0,#0xD6,#0x15,#0x00	; 1431280
   7258 85 DA 15 00        2302 	.byte #0x85,#0xDA,#0x15,#0x00	; 1432197
   725C 24 E7 15 00        2303 	.byte #0x24,#0xE7,#0x15,#0x00	; 1435428
   7260 51 EB 15 00        2304 	.byte #0x51,#0xEB,#0x15,#0x00	; 1436497
   7264 BB F3 15 00        2305 	.byte #0xBB,#0xF3,#0x15,#0x00	; 1438651
   7268 CE FF 15 00        2306 	.byte #0xCE,#0xFF,#0x15,#0x00	; 1441742
   726C 95 00 16 00        2307 	.byte #0x95,#0x00,#0x16,#0x00	; 1441941
   7270 E0 0C 16 00        2308 	.byte #0xE0,#0x0C,#0x16,#0x00	; 1445088
   7274 0A 14 16 00        2309 	.byte #0x0A,#0x14,#0x16,#0x00	; 1446922
   7278 7F 18 16 00        2310 	.byte #0x7F,#0x18,#0x16,#0x00	; 1448063
   727C DE 25 16 00        2311 	.byte #0xDE,#0x25,#0x16,#0x00	; 1451486
   7280 AB 29 16 00        2312 	.byte #0xAB,#0x29,#0x16,#0x00	; 1452459
   7284 41 31 16 00        2313 	.byte #0x41,#0x31,#0x16,#0x00	; 1454401
   7288 34 3D 16 00        2314 	.byte #0x34,#0x3D,#0x16,#0x00	; 1457460
   728C 76 46 16 00        2315 	.byte #0x76,#0x46,#0x16,#0x00	; 1459830
   7290 03 4A 16 00        2316 	.byte #0x03,#0x4A,#0x16,#0x00	; 1460739
   7294 E9 52 16 00        2317 	.byte #0xE9,#0x52,#0x16,#0x00	; 1463017
   7298 9C 5E 16 00        2318 	.byte #0x9C,#0x5E,#0x16,#0x00	; 1466012
   729C 3D 63 16 00        2319 	.byte #0x3D,#0x63,#0x16,#0x00	; 1467197
   72A0 48 6F 16 00        2320 	.byte #0x48,#0x6F,#0x16,#0x00	; 1470280
   72A4 A2 77 16 00        2321 	.byte #0xA2,#0x77,#0x16,#0x00	; 1472418
   72A8 D7 7B 16 00        2322 	.byte #0xD7,#0x7B,#0x16,#0x00	; 1473495
   72AC 26 81 16 00        2323 	.byte #0x26,#0x81,#0x16,#0x00	; 1474854
   72B0 53 8D 16 00        2324 	.byte #0x53,#0x8D,#0x16,#0x00	; 1477971
   72B4 B9 95 16 00        2325 	.byte #0xB9,#0x95,#0x16,#0x00	; 1480121
   72B8 CC 99 16 00        2326 	.byte #0xCC,#0x99,#0x16,#0x00	; 1481164
   72BC 6D A4 16 00        2327 	.byte #0x6D,#0xA4,#0x16,#0x00	; 1483885
   72C0 18 A8 16 00        2328 	.byte #0x18,#0xA8,#0x16,#0x00	; 1484824
   72C4 F2 B0 16 00        2329 	.byte #0xF2,#0xB0,#0x16,#0x00	; 1487090
   72C8 87 BC 16 00        2330 	.byte #0x87,#0xBC,#0x16,#0x00	; 1490055
   72CC C5 C7 16 00        2331 	.byte #0xC5,#0xC7,#0x16,#0x00	; 1492933
   72D0 B0 CB 16 00        2332 	.byte #0xB0,#0xCB,#0x16,#0x00	; 1493936
   72D4 5A D3 16 00        2333 	.byte #0x5A,#0xD3,#0x16,#0x00	; 1495898
   72D8 2F DF 16 00        2334 	.byte #0x2F,#0xDF,#0x16,#0x00	; 1498927
   72DC 8E E2 16 00        2335 	.byte #0x8E,#0xE2,#0x16,#0x00	; 1499790
   72E0 FB EE 16 00        2336 	.byte #0xFB,#0xEE,#0x16,#0x00	; 1502971
   72E4 11 F6 16 00        2337 	.byte #0x11,#0xF6,#0x16,#0x00	; 1504785
   72E8 64 FA 16 00        2338 	.byte #0x64,#0xFA,#0x16,#0x00	; 1505892
   72EC F3 03 17 00        2339 	.byte #0xF3,#0x03,#0x17,#0x00	; 1508339
   72F0 86 0F 17 00        2340 	.byte #0x86,#0x0F,#0x17,#0x00	; 1511302
   72F4 6C 17 17 00        2341 	.byte #0x6C,#0x17,#0x17,#0x00	; 1513324
   72F8 19 1B 17 00        2342 	.byte #0x19,#0x1B,#0x17,#0x00	; 1514265
   72FC B8 26 17 00        2343 	.byte #0xB8,#0x26,#0x17,#0x00	; 1517240
   7300 CD 2A 17 00        2344 	.byte #0xCD,#0x2A,#0x17,#0x00	; 1518285
   7304 27 32 17 00        2345 	.byte #0x27,#0x32,#0x17,#0x00	; 1520167
   7308 52 3E 17 00        2346 	.byte #0x52,#0x3E,#0x17,#0x00	; 1523282
   730C 10 45 17 00        2347 	.byte #0x10,#0x45,#0x17,#0x00	; 1525008
   7310 65 49 17 00        2348 	.byte #0x65,#0x49,#0x17,#0x00	; 1526117
   7314 8F 51 17 00        2349 	.byte #0x8F,#0x51,#0x17,#0x00	; 1528207
   7318 FA 5D 17 00        2350 	.byte #0xFA,#0x5D,#0x17,#0x00	; 1531386
   731C 5B 60 17 00        2351 	.byte #0x5B,#0x60,#0x17,#0x00	; 1531995
   7320 2E 6C 17 00        2352 	.byte #0x2E,#0x6C,#0x17,#0x00	; 1535022
   7324 C4 74 17 00        2353 	.byte #0xC4,#0x74,#0x17,#0x00	; 1537220
   7328 B1 78 17 00        2354 	.byte #0xB1,#0x78,#0x17,#0x00	; 1538225
   732C 40 82 17 00        2355 	.byte #0x40,#0x82,#0x17,#0x00	; 1540672
   7330 35 8E 17 00        2356 	.byte #0x35,#0x8E,#0x17,#0x00	; 1543733
   7334 DF 96 17 00        2357 	.byte #0xDF,#0x96,#0x17,#0x00	; 1545951
   7338 AA 9A 17 00        2358 	.byte #0xAA,#0x9A,#0x17,#0x00	; 1546922
   733C 0B A7 17 00        2359 	.byte #0x0B,#0xA7,#0x17,#0x00	; 1550091
   7340 7E AB 17 00        2360 	.byte #0x7E,#0xAB,#0x17,#0x00	; 1551230
   7344 94 B3 17 00        2361 	.byte #0x94,#0xB3,#0x17,#0x00	; 1553300
   7348 E1 BF 17 00        2362 	.byte #0xE1,#0xBF,#0x17,#0x00	; 1556449
   734C A3 C4 17 00        2363 	.byte #0xA3,#0xC4,#0x17,#0x00	; 1557667
   7350 D6 C8 17 00        2364 	.byte #0xD6,#0xC8,#0x17,#0x00	; 1558742
   7354 3C D0 17 00        2365 	.byte #0x3C,#0xD0,#0x17,#0x00	; 1560636
   7358 49 DC 17 00        2366 	.byte #0x49,#0xDC,#0x17,#0x00	; 1563721
   735C E8 E1 17 00        2367 	.byte #0xE8,#0xE1,#0x17,#0x00	; 1565160
   7360 9D ED 17 00        2368 	.byte #0x9D,#0xED,#0x17,#0x00	; 1568157
   7364 77 F5 17 00        2369 	.byte #0x77,#0xF5,#0x17,#0x00	; 1570167
   7368 02 F9 17 00        2370 	.byte #0x02,#0xF9,#0x17,#0x00	; 1571074
   736C 6E 04 18 00        2371 	.byte #0x6E,#0x04,#0x18,#0x00	; 1573998
   7370 1B 08 18 00        2372 	.byte #0x1B,#0x08,#0x18,#0x00	; 1574939
   7374 F1 10 18 00        2373 	.byte #0xF1,#0x10,#0x18,#0x00	; 1577201
   7378 84 1C 18 00        2374 	.byte #0x84,#0x1C,#0x18,#0x00	; 1580164
   737C 25 21 18 00        2375 	.byte #0x25,#0x21,#0x18,#0x00	; 1581349
   7380 50 2D 18 00        2376 	.byte #0x50,#0x2D,#0x18,#0x00	; 1584464
   7384 BA 35 18 00        2377 	.byte #0xBA,#0x35,#0x18,#0x00	; 1586618
   7388 CF 39 18 00        2378 	.byte #0xCF,#0x39,#0x18,#0x00	; 1587663
   738C 8D 42 18 00        2379 	.byte #0x8D,#0x42,#0x18,#0x00	; 1589901
   7390 F8 4E 18 00        2380 	.byte #0xF8,#0x4E,#0x18,#0x00	; 1593080
   7394 12 56 18 00        2381 	.byte #0x12,#0x56,#0x18,#0x00	; 1594898
   7398 67 5A 18 00        2382 	.byte #0x67,#0x5A,#0x18,#0x00	; 1596007
   739C C6 67 18 00        2383 	.byte #0xC6,#0x67,#0x18,#0x00	; 1599430
   73A0 B3 6B 18 00        2384 	.byte #0xB3,#0x6B,#0x18,#0x00	; 1600435
   73A4 59 73 18 00        2385 	.byte #0x59,#0x73,#0x18,#0x00	; 1602393
   73A8 2C 7F 18 00        2386 	.byte #0x2C,#0x7F,#0x18,#0x00	; 1605420
   73AC DD 85 18 00        2387 	.byte #0xDD,#0x85,#0x18,#0x00	; 1607133
   73B0 A8 89 18 00        2388 	.byte #0xA8,#0x89,#0x18,#0x00	; 1608104
   73B4 42 91 18 00        2389 	.byte #0x42,#0x91,#0x18,#0x00	; 1610050
   73B8 37 9D 18 00        2390 	.byte #0x37,#0x9D,#0x18,#0x00	; 1613111
   73BC 96 A0 18 00        2391 	.byte #0x96,#0xA0,#0x18,#0x00	; 1613974
   73C0 E3 AC 18 00        2392 	.byte #0xE3,#0xAC,#0x18,#0x00	; 1617123
   73C4 09 B4 18 00        2393 	.byte #0x09,#0xB4,#0x18,#0x00	; 1618953
   73C8 7C B8 18 00        2394 	.byte #0x7C,#0xB8,#0x18,#0x00	; 1620092
   73CC 3E C3 18 00        2395 	.byte #0x3E,#0xC3,#0x18,#0x00	; 1622846
   73D0 4B CF 18 00        2396 	.byte #0x4B,#0xCF,#0x18,#0x00	; 1625931
   73D4 A1 D7 18 00        2397 	.byte #0xA1,#0xD7,#0x18,#0x00	; 1628065
   73D8 D4 DB 18 00        2398 	.byte #0xD4,#0xDB,#0x18,#0x00	; 1629140
   73DC 75 E6 18 00        2399 	.byte #0x75,#0xE6,#0x18,#0x00	; 1631861
   73E0 00 EA 18 00        2400 	.byte #0x00,#0xEA,#0x18,#0x00	; 1632768
   73E4 EA F2 18 00        2401 	.byte #0xEA,#0xF2,#0x18,#0x00	; 1635050
   73E8 9F FE 18 00        2402 	.byte #0x9F,#0xFE,#0x18,#0x00	; 1638047
   73EC 08 07 19 00        2403 	.byte #0x08,#0x07,#0x19,#0x00	; 1640200
   73F0 7D 0B 19 00        2404 	.byte #0x7D,#0x0B,#0x19,#0x00	; 1641341
   73F4 97 13 19 00        2405 	.byte #0x97,#0x13,#0x19,#0x00	; 1643415
   73F8 E2 1F 19 00        2406 	.byte #0xE2,#0x1F,#0x19,#0x00	; 1646562
   73FC 43 22 19 00        2407 	.byte #0x43,#0x22,#0x19,#0x00	; 1647171
   7400 36 2E 19 00        2408 	.byte #0x36,#0x2E,#0x19,#0x00	; 1650230
   7404 DC 36 19 00        2409 	.byte #0xDC,#0x36,#0x19,#0x00	; 1652444
   7408 A9 3A 19 00        2410 	.byte #0xA9,#0x3A,#0x19,#0x00	; 1653417
   740C EB 41 19 00        2411 	.byte #0xEB,#0x41,#0x19,#0x00	; 1655275
   7410 9E 4D 19 00        2412 	.byte #0x9E,#0x4D,#0x19,#0x00	; 1658270
   7414 74 55 19 00        2413 	.byte #0x74,#0x55,#0x19,#0x00	; 1660276
   7418 01 59 19 00        2414 	.byte #0x01,#0x59,#0x19,#0x00	; 1661185
   741C A0 64 19 00        2415 	.byte #0xA0,#0x64,#0x19,#0x00	; 1664160
   7420 D5 68 19 00        2416 	.byte #0xD5,#0x68,#0x19,#0x00	; 1665237
   7424 3F 70 19 00        2417 	.byte #0x3F,#0x70,#0x19,#0x00	; 1667135
   7428 4A 7C 19 00        2418 	.byte #0x4A,#0x7C,#0x19,#0x00	; 1670218
   742C BB 86 19 00        2419 	.byte #0xBB,#0x86,#0x19,#0x00	; 1672891
   7430 CE 8A 19 00        2420 	.byte #0xCE,#0x8A,#0x19,#0x00	; 1673934
   7434 24 92 19 00        2421 	.byte #0x24,#0x92,#0x19,#0x00	; 1675812
   7438 51 9E 19 00        2422 	.byte #0x51,#0x9E,#0x19,#0x00	; 1678929
   743C F0 A3 19 00        2423 	.byte #0xF0,#0xA3,#0x19,#0x00	; 1680368
   7440 85 AF 19 00        2424 	.byte #0x85,#0xAF,#0x19,#0x00	; 1683333
   7444 6F B7 19 00        2425 	.byte #0x6F,#0xB7,#0x19,#0x00	; 1685359
   7448 1A BB 19 00        2426 	.byte #0x1A,#0xBB,#0x19,#0x00	; 1686298
   744C 58 C0 19 00        2427 	.byte #0x58,#0xC0,#0x19,#0x00	; 1687640
   7450 2D CC 19 00        2428 	.byte #0x2D,#0xCC,#0x19,#0x00	; 1690669
   7454 C7 D4 19 00        2429 	.byte #0xC7,#0xD4,#0x19,#0x00	; 1692871
   7458 B2 D8 19 00        2430 	.byte #0xB2,#0xD8,#0x19,#0x00	; 1693874
   745C 13 E5 19 00        2431 	.byte #0x13,#0xE5,#0x19,#0x00	; 1697043
   7460 66 E9 19 00        2432 	.byte #0x66,#0xE9,#0x19,#0x00	; 1698150
   7464 8C F1 19 00        2433 	.byte #0x8C,#0xF1,#0x19,#0x00	; 1700236
   7468 F9 FD 19 00        2434 	.byte #0xF9,#0xFD,#0x19,#0x00	; 1703417
   746C A2 02 1A 00        2435 	.byte #0xA2,#0x02,#0x1A,#0x00	; 1704610
   7470 D7 0E 1A 00        2436 	.byte #0xD7,#0x0E,#0x1A,#0x00	; 1707735
   7474 3D 16 1A 00        2437 	.byte #0x3D,#0x16,#0x1A,#0x00	; 1709629
   7478 48 1A 1A 00        2438 	.byte #0x48,#0x1A,#0x1A,#0x00	; 1710664
   747C E9 27 1A 00        2439 	.byte #0xE9,#0x27,#0x1A,#0x00	; 1714153
   7480 9C 2B 1A 00        2440 	.byte #0x9C,#0x2B,#0x1A,#0x00	; 1715100
   7484 76 33 1A 00        2441 	.byte #0x76,#0x33,#0x1A,#0x00	; 1717110
   7488 03 3F 1A 00        2442 	.byte #0x03,#0x3F,#0x1A,#0x00	; 1720067
   748C 41 44 1A 00        2443 	.byte #0x41,#0x44,#0x1A,#0x00	; 1721409
   7490 34 48 1A 00        2444 	.byte #0x34,#0x48,#0x1A,#0x00	; 1722420
   7494 DE 50 1A 00        2445 	.byte #0xDE,#0x50,#0x1A,#0x00	; 1724638
   7498 AB 5C 1A 00        2446 	.byte #0xAB,#0x5C,#0x1A,#0x00	; 1727659
   749C 0A 61 1A 00        2447 	.byte #0x0A,#0x61,#0x1A,#0x00	; 1728778
   74A0 7F 6D 1A 00        2448 	.byte #0x7F,#0x6D,#0x1A,#0x00	; 1731967
   74A4 95 75 1A 00        2449 	.byte #0x95,#0x75,#0x1A,#0x00	; 1734037
   74A8 E0 79 1A 00        2450 	.byte #0xE0,#0x79,#0x1A,#0x00	; 1735136
   74AC 11 83 1A 00        2451 	.byte #0x11,#0x83,#0x1A,#0x00	; 1737489
   74B0 64 8F 1A 00        2452 	.byte #0x64,#0x8F,#0x1A,#0x00	; 1740644
   74B4 8E 97 1A 00        2453 	.byte #0x8E,#0x97,#0x1A,#0x00	; 1742734
   74B8 FB 9B 1A 00        2454 	.byte #0xFB,#0x9B,#0x1A,#0x00	; 1743867
   74BC 5A A6 1A 00        2455 	.byte #0x5A,#0xA6,#0x1A,#0x00	; 1746522
   74C0 2F AA 1A 00        2456 	.byte #0x2F,#0xAA,#0x1A,#0x00	; 1747503
   74C4 C5 B2 1A 00        2457 	.byte #0xC5,#0xB2,#0x1A,#0x00	; 1749701
   74C8 B0 BE 1A 00        2458 	.byte #0xB0,#0xBE,#0x1A,#0x00	; 1752752
   74CC F2 C5 1A 00        2459 	.byte #0xF2,#0xC5,#0x1A,#0x00	; 1754610
   74D0 87 C9 1A 00        2460 	.byte #0x87,#0xC9,#0x1A,#0x00	; 1755527
   74D4 6D D1 1A 00        2461 	.byte #0x6D,#0xD1,#0x1A,#0x00	; 1757549
   74D8 18 DD 1A 00        2462 	.byte #0x18,#0xDD,#0x1A,#0x00	; 1760536
   74DC B9 E0 1A 00        2463 	.byte #0xB9,#0xE0,#0x1A,#0x00	; 1761465
   74E0 CC EC 1A 00        2464 	.byte #0xCC,#0xEC,#0x1A,#0x00	; 1764556
   74E4 26 F4 1A 00        2465 	.byte #0x26,#0xF4,#0x1A,#0x00	; 1766438
   74E8 53 F8 1A 00        2466 	.byte #0x53,#0xF8,#0x1A,#0x00	; 1767507
   74EC C4 01 1B 00        2467 	.byte #0xC4,#0x01,#0x1B,#0x00	; 1769924
   74F0 B1 0D 1B 00        2468 	.byte #0xB1,#0x0D,#0x1B,#0x00	; 1772977
   74F4 5B 15 1B 00        2469 	.byte #0x5B,#0x15,#0x1B,#0x00	; 1774939
   74F8 2E 19 1B 00        2470 	.byte #0x2E,#0x19,#0x1B,#0x00	; 1775918
   74FC 8F 24 1B 00        2471 	.byte #0x8F,#0x24,#0x1B,#0x00	; 1778831
   7500 FA 28 1B 00        2472 	.byte #0xFA,#0x28,#0x1B,#0x00	; 1779962
   7504 10 30 1B 00        2473 	.byte #0x10,#0x30,#0x1B,#0x00	; 1781776
   7508 65 3C 1B 00        2474 	.byte #0x65,#0x3C,#0x1B,#0x00	; 1784933
   750C 27 47 1B 00        2475 	.byte #0x27,#0x47,#0x1B,#0x00	; 1787687
   7510 52 4B 1B 00        2476 	.byte #0x52,#0x4B,#0x1B,#0x00	; 1788754
   7514 B8 53 1B 00        2477 	.byte #0xB8,#0x53,#0x1B,#0x00	; 1790904
   7518 CD 5F 1B 00        2478 	.byte #0xCD,#0x5F,#0x1B,#0x00	; 1793997
   751C 6C 62 1B 00        2479 	.byte #0x6C,#0x62,#0x1B,#0x00	; 1794668
   7520 19 6E 1B 00        2480 	.byte #0x19,#0x6E,#0x1B,#0x00	; 1797657
   7524 F3 76 1B 00        2481 	.byte #0xF3,#0x76,#0x1B,#0x00	; 1799923
   7528 86 7A 1B 00        2482 	.byte #0x86,#0x7A,#0x1B,#0x00	; 1800838
   752C 77 80 1B 00        2483 	.byte #0x77,#0x80,#0x1B,#0x00	; 1802359
   7530 02 8C 1B 00        2484 	.byte #0x02,#0x8C,#0x1B,#0x00	; 1805314
   7534 E8 94 1B 00        2485 	.byte #0xE8,#0x94,#0x1B,#0x00	; 1807592
   7538 9D 98 1B 00        2486 	.byte #0x9D,#0x98,#0x1B,#0x00	; 1808541
   753C 3C A5 1B 00        2487 	.byte #0x3C,#0xA5,#0x1B,#0x00	; 1811772
   7540 49 A9 1B 00        2488 	.byte #0x49,#0xA9,#0x1B,#0x00	; 1812809
   7544 A3 B1 1B 00        2489 	.byte #0xA3,#0xB1,#0x1B,#0x00	; 1814947
   7548 D6 BD 1B 00        2490 	.byte #0xD6,#0xBD,#0x1B,#0x00	; 1818070
   754C 94 C6 1B 00        2491 	.byte #0x94,#0xC6,#0x1B,#0x00	; 1820308
   7550 E1 CA 1B 00        2492 	.byte #0xE1,#0xCA,#0x1B,#0x00	; 1821409
   7554 0B D2 1B 00        2493 	.byte #0x0B,#0xD2,#0x1B,#0x00	; 1823243
   7558 7E DE 1B 00        2494 	.byte #0x7E,#0xDE,#0x1B,#0x00	; 1826430
   755C DF E3 1B 00        2495 	.byte #0xDF,#0xE3,#0x1B,#0x00	; 1827807
   7560 AA EF 1B 00        2496 	.byte #0xAA,#0xEF,#0x1B,#0x00	; 1830826
   7564 40 F7 1B 00        2497 	.byte #0x40,#0xF7,#0x1B,#0x00	; 1832768
   7568 35 FB 1B 00        2498 	.byte #0x35,#0xFB,#0x1B,#0x00	; 1833781
   756C 83 05 1C 00        2499 	.byte #0x83,#0x05,#0x1C,#0x00	; 1836419
   7570 F6 09 1C 00        2500 	.byte #0xF6,#0x09,#0x1C,#0x00	; 1837558
   7574 1C 11 1C 00        2501 	.byte #0x1C,#0x11,#0x1C,#0x00	; 1839388
   7578 69 1D 1C 00        2502 	.byte #0x69,#0x1D,#0x1C,#0x00	; 1842537
   757C C8 20 1C 00        2503 	.byte #0xC8,#0x20,#0x1C,#0x00	; 1843400
   7580 BD 2C 1C 00        2504 	.byte #0xBD,#0x2C,#0x1C,#0x00	; 1846461
   7584 57 34 1C 00        2505 	.byte #0x57,#0x34,#0x1C,#0x00	; 1848407
   7588 22 38 1C 00        2506 	.byte #0x22,#0x38,#0x1C,#0x00	; 1849378
   758C 60 43 1C 00        2507 	.byte #0x60,#0x43,#0x1C,#0x00	; 1852256
   7590 15 4F 1C 00        2508 	.byte #0x15,#0x4F,#0x1C,#0x00	; 1855253
   7594 FF 57 1C 00        2509 	.byte #0xFF,#0x57,#0x1C,#0x00	; 1857535
   7598 8A 5B 1C 00        2510 	.byte #0x8A,#0x5B,#0x1C,#0x00	; 1858442
   759C 2B 66 1C 00        2511 	.byte #0x2B,#0x66,#0x1C,#0x00	; 1861163
   75A0 5E 6A 1C 00        2512 	.byte #0x5E,#0x6A,#0x1C,#0x00	; 1862238
   75A4 B4 72 1C 00        2513 	.byte #0xB4,#0x72,#0x1C,#0x00	; 1864372
   75A8 C1 7E 1C 00        2514 	.byte #0xC1,#0x7E,#0x1C,#0x00	; 1867457
   75AC 30 84 1C 00        2515 	.byte #0x30,#0x84,#0x1C,#0x00	; 1868848
   75B0 45 88 1C 00        2516 	.byte #0x45,#0x88,#0x1C,#0x00	; 1869893
   75B4 AF 90 1C 00        2517 	.byte #0xAF,#0x90,#0x1C,#0x00	; 1872047
   75B8 DA 9C 1C 00        2518 	.byte #0xDA,#0x9C,#0x1C,#0x00	; 1875162
   75BC 7B A1 1C 00        2519 	.byte #0x7B,#0xA1,#0x1C,#0x00	; 1876347
   75C0 0E AD 1C 00        2520 	.byte #0x0E,#0xAD,#0x1C,#0x00	; 1879310
   75C4 E4 B5 1C 00        2521 	.byte #0xE4,#0xB5,#0x1C,#0x00	; 1881572
   75C8 91 B9 1C 00        2522 	.byte #0x91,#0xB9,#0x1C,#0x00	; 1882513
   75CC D3 C2 1C 00        2523 	.byte #0xD3,#0xC2,#0x1C,#0x00	; 1884883
   75D0 A6 CE 1C 00        2524 	.byte #0xA6,#0xCE,#0x1C,#0x00	; 1887910
   75D4 4C D6 1C 00        2525 	.byte #0x4C,#0xD6,#0x1C,#0x00	; 1889868
   75D8 39 DA 1C 00        2526 	.byte #0x39,#0xDA,#0x1C,#0x00	; 1890873
   75DC 98 E7 1C 00        2527 	.byte #0x98,#0xE7,#0x1C,#0x00	; 1894296
   75E0 ED EB 1C 00        2528 	.byte #0xED,#0xEB,#0x1C,#0x00	; 1895405
   75E4 07 F3 1C 00        2529 	.byte #0x07,#0xF3,#0x1C,#0x00	; 1897223
   75E8 72 FF 1C 00        2530 	.byte #0x72,#0xFF,#0x1C,#0x00	; 1900402
   75EC E5 06 1D 00        2531 	.byte #0xE5,#0x06,#0x1D,#0x00	; 1902309
   75F0 90 0A 1D 00        2532 	.byte #0x90,#0x0A,#0x1D,#0x00	; 1903248
   75F4 7A 12 1D 00        2533 	.byte #0x7A,#0x12,#0x1D,#0x00	; 1905274
   75F8 0F 1E 1D 00        2534 	.byte #0x0F,#0x1E,#0x1D,#0x00	; 1908239
   75FC AE 23 1D 00        2535 	.byte #0xAE,#0x23,#0x1D,#0x00	; 1909678
   7600 DB 2F 1D 00        2536 	.byte #0xDB,#0x2F,#0x1D,#0x00	; 1912795
   7604 31 37 1D 00        2537 	.byte #0x31,#0x37,#0x1D,#0x00	; 1914673
   7608 44 3B 1D 00        2538 	.byte #0x44,#0x3B,#0x1D,#0x00	; 1915716
   760C 06 40 1D 00        2539 	.byte #0x06,#0x40,#0x1D,#0x00	; 1916934
   7610 73 4C 1D 00        2540 	.byte #0x73,#0x4C,#0x1D,#0x00	; 1920115
   7614 99 54 1D 00        2541 	.byte #0x99,#0x54,#0x1D,#0x00	; 1922201
   7618 EC 58 1D 00        2542 	.byte #0xEC,#0x58,#0x1D,#0x00	; 1923308
   761C 4D 65 1D 00        2543 	.byte #0x4D,#0x65,#0x1D,#0x00	; 1926477
   7620 38 69 1D 00        2544 	.byte #0x38,#0x69,#0x1D,#0x00	; 1927480
   7624 D2 71 1D 00        2545 	.byte #0xD2,#0x71,#0x1D,#0x00	; 1929682
   7628 A7 7D 1D 00        2546 	.byte #0xA7,#0x7D,#0x1D,#0x00	; 1932711
   762C 56 87 1D 00        2547 	.byte #0x56,#0x87,#0x1D,#0x00	; 1935190
   7630 23 8B 1D 00        2548 	.byte #0x23,#0x8B,#0x1D,#0x00	; 1936163
   7634 C9 93 1D 00        2549 	.byte #0xC9,#0x93,#0x1D,#0x00	; 1938377
   7638 BC 9F 1D 00        2550 	.byte #0xBC,#0x9F,#0x1D,#0x00	; 1941436
   763C 1D A2 1D 00        2551 	.byte #0x1D,#0xA2,#0x1D,#0x00	; 1942045
   7640 68 AE 1D 00        2552 	.byte #0x68,#0xAE,#0x1D,#0x00	; 1945192
   7644 82 B6 1D 00        2553 	.byte #0x82,#0xB6,#0x1D,#0x00	; 1947266
   7648 F7 BA 1D 00        2554 	.byte #0xF7,#0xBA,#0x1D,#0x00	; 1948407
   764C B5 C1 1D 00        2555 	.byte #0xB5,#0xC1,#0x1D,#0x00	; 1950133
   7650 C0 CD 1D 00        2556 	.byte #0xC0,#0xCD,#0x1D,#0x00	; 1953216
   7654 2A D5 1D 00        2557 	.byte #0x2A,#0xD5,#0x1D,#0x00	; 1955114
   7658 5F D9 1D 00        2558 	.byte #0x5F,#0xD9,#0x1D,#0x00	; 1956191
   765C FE E4 1D 00        2559 	.byte #0xFE,#0xE4,#0x1D,#0x00	; 1959166
   7660 8B E8 1D 00        2560 	.byte #0x8B,#0xE8,#0x1D,#0x00	; 1960075
   7664 61 F0 1D 00        2561 	.byte #0x61,#0xF0,#0x1D,#0x00	; 1962081
   7668 14 FC 1D 00        2562 	.byte #0x14,#0xFC,#0x1D,#0x00	; 1965076
   766C 4F 03 1E 00        2563 	.byte #0x4F,#0x03,#0x1E,#0x00	; 1966927
   7670 3A 0F 1E 00        2564 	.byte #0x3A,#0x0F,#0x1E,#0x00	; 1969978
   7674 D0 17 1E 00        2565 	.byte #0xD0,#0x17,#0x1E,#0x00	; 1972176
   7678 A5 1B 1E 00        2566 	.byte #0xA5,#0x1B,#0x1E,#0x00	; 1973157
   767C 04 26 1E 00        2567 	.byte #0x04,#0x26,#0x1E,#0x00	; 1975812
   7680 71 2A 1E 00        2568 	.byte #0x71,#0x2A,#0x1E,#0x00	; 1976945
   7684 9B 32 1E 00        2569 	.byte #0x9B,#0x32,#0x1E,#0x00	; 1979035
   7688 EE 3E 1E 00        2570 	.byte #0xEE,#0x3E,#0x1E,#0x00	; 1982190
   768C AC 45 1E 00        2571 	.byte #0xAC,#0x45,#0x1E,#0x00	; 1983916
   7690 D9 49 1E 00        2572 	.byte #0xD9,#0x49,#0x1E,#0x00	; 1984985
   7694 33 51 1E 00        2573 	.byte #0x33,#0x51,#0x1E,#0x00	; 1986867
   7698 46 5D 1E 00        2574 	.byte #0x46,#0x5D,#0x1E,#0x00	; 1989958
   769C E7 60 1E 00        2575 	.byte #0xE7,#0x60,#0x1E,#0x00	; 1990887
   76A0 92 6C 1E 00        2576 	.byte #0x92,#0x6C,#0x1E,#0x00	; 1993874
   76A4 78 74 1E 00        2577 	.byte #0x78,#0x74,#0x1E,#0x00	; 1995896
   76A8 0D 78 1E 00        2578 	.byte #0x0D,#0x78,#0x1E,#0x00	; 1996813
   76AC FC 82 1E 00        2579 	.byte #0xFC,#0x82,#0x1E,#0x00	; 1999612
   76B0 89 8E 1E 00        2580 	.byte #0x89,#0x8E,#0x1E,#0x00	; 2002569
   76B4 63 96 1E 00        2581 	.byte #0x63,#0x96,#0x1E,#0x00	; 2004579
   76B8 16 9A 1E 00        2582 	.byte #0x16,#0x9A,#0x1E,#0x00	; 2005526
   76BC B7 A7 1E 00        2583 	.byte #0xB7,#0xA7,#0x1E,#0x00	; 2009015
   76C0 C2 AB 1E 00        2584 	.byte #0xC2,#0xAB,#0x1E,#0x00	; 2010050
   76C4 28 B3 1E 00        2585 	.byte #0x28,#0xB3,#0x1E,#0x00	; 2011944
   76C8 5D BF 1E 00        2586 	.byte #0x5D,#0xBF,#0x1E,#0x00	; 2015069
   76CC 1F C4 1E 00        2587 	.byte #0x1F,#0xC4,#0x1E,#0x00	; 2016287
   76D0 6A C8 1E 00        2588 	.byte #0x6A,#0xC8,#0x1E,#0x00	; 2017386
   76D4 80 D0 1E 00        2589 	.byte #0x80,#0xD0,#0x1E,#0x00	; 2019456
   76D8 F5 DC 1E 00        2590 	.byte #0xF5,#0xDC,#0x1E,#0x00	; 2022645
   76DC 54 E1 1E 00        2591 	.byte #0x54,#0xE1,#0x1E,#0x00	; 2023764
   76E0 21 ED 1E 00        2592 	.byte #0x21,#0xED,#0x1E,#0x00	; 2026785
   76E4 CB F5 1E 00        2593 	.byte #0xCB,#0xF5,#0x1E,#0x00	; 2029003
   76E8 BE F9 1E 00        2594 	.byte #0xBE,#0xF9,#0x1E,#0x00	; 2030014
   76EC 29 00 1F 00        2595 	.byte #0x29,#0x00,#0x1F,#0x00	; 2031657
   76F0 5C 0C 1F 00        2596 	.byte #0x5C,#0x0C,#0x1F,#0x00	; 2034780
   76F4 B6 14 1F 00        2597 	.byte #0xB6,#0x14,#0x1F,#0x00	; 2036918
   76F8 C3 18 1F 00        2598 	.byte #0xC3,#0x18,#0x1F,#0x00	; 2037955
   76FC 62 25 1F 00        2599 	.byte #0x62,#0x25,#0x1F,#0x00	; 2041186
   7700 17 29 1F 00        2600 	.byte #0x17,#0x29,#0x1F,#0x00	; 2042135
   7704 FD 31 1F 00        2601 	.byte #0xFD,#0x31,#0x1F,#0x00	; 2044413
   7708 88 3D 1F 00        2602 	.byte #0x88,#0x3D,#0x1F,#0x00	; 2047368
   770C CA 46 1F 00        2603 	.byte #0xCA,#0x46,#0x1F,#0x00	; 2049738
   7710 BF 4A 1F 00        2604 	.byte #0xBF,#0x4A,#0x1F,#0x00	; 2050751
   7714 55 52 1F 00        2605 	.byte #0x55,#0x52,#0x1F,#0x00	; 2052693
   7718 20 5E 1F 00        2606 	.byte #0x20,#0x5E,#0x1F,#0x00	; 2055712
   771C 81 63 1F 00        2607 	.byte #0x81,#0x63,#0x1F,#0x00	; 2057089
   7720 F4 6F 1F 00        2608 	.byte #0xF4,#0x6F,#0x1F,#0x00	; 2060276
   7724 1E 77 1F 00        2609 	.byte #0x1E,#0x77,#0x1F,#0x00	; 2062110
   7728 6B 7B 1F 00        2610 	.byte #0x6B,#0x7B,#0x1F,#0x00	; 2063211
   772C 9A 81 1F 00        2611 	.byte #0x9A,#0x81,#0x1F,#0x00	; 2064794
   7730 EF 8D 1F 00        2612 	.byte #0xEF,#0x8D,#0x1F,#0x00	; 2067951
   7734 05 95 1F 00        2613 	.byte #0x05,#0x95,#0x1F,#0x00	; 2069765
   7738 70 99 1F 00        2614 	.byte #0x70,#0x99,#0x1F,#0x00	; 2070896
   773C D1 A4 1F 00        2615 	.byte #0xD1,#0xA4,#0x1F,#0x00	; 2073809
   7740 A4 A8 1F 00        2616 	.byte #0xA4,#0xA8,#0x1F,#0x00	; 2074788
   7744 4E B0 1F 00        2617 	.byte #0x4E,#0xB0,#0x1F,#0x00	; 2076750
   7748 3B BC 1F 00        2618 	.byte #0x3B,#0xBC,#0x1F,#0x00	; 2079803
   774C 79 C7 1F 00        2619 	.byte #0x79,#0xC7,#0x1F,#0x00	; 2082681
   7750 0C CB 1F 00        2620 	.byte #0x0C,#0xCB,#0x1F,#0x00	; 2083596
   7754 E6 D3 1F 00        2621 	.byte #0xE6,#0xD3,#0x1F,#0x00	; 2085862
   7758 93 DF 1F 00        2622 	.byte #0x93,#0xDF,#0x1F,#0x00	; 2088851
   775C 32 E2 1F 00        2623 	.byte #0x32,#0xE2,#0x1F,#0x00	; 2089522
   7760 47 EE 1F 00        2624 	.byte #0x47,#0xEE,#0x1F,#0x00	; 2092615
   7764 AD F6 1F 00        2625 	.byte #0xAD,#0xF6,#0x1F,#0x00	; 2094765
   7768 D8 FA 1F 00        2626 	.byte #0xD8,#0xFA,#0x1F,#0x00	; 2095832
   776C 1D 03 20 00        2627 	.byte #0x1D,#0x03,#0x20,#0x00	; 2097949
   7770 68 0F 20 00        2628 	.byte #0x68,#0x0F,#0x20,#0x00	; 2101096
   7774 82 17 20 00        2629 	.byte #0x82,#0x17,#0x20,#0x00	; 2103170
   7778 F7 1B 20 00        2630 	.byte #0xF7,#0x1B,#0x20,#0x00	; 2104311
   777C 56 26 20 00        2631 	.byte #0x56,#0x26,#0x20,#0x00	; 2106966
   7780 23 2A 20 00        2632 	.byte #0x23,#0x2A,#0x20,#0x00	; 2107939
   7784 C9 32 20 00        2633 	.byte #0xC9,#0x32,#0x20,#0x00	; 2110153
   7788 BC 3E 20 00        2634 	.byte #0xBC,#0x3E,#0x20,#0x00	; 2113212
   778C FE 45 20 00        2635 	.byte #0xFE,#0x45,#0x20,#0x00	; 2115070
   7790 8B 49 20 00        2636 	.byte #0x8B,#0x49,#0x20,#0x00	; 2115979
   7794 61 51 20 00        2637 	.byte #0x61,#0x51,#0x20,#0x00	; 2117985
   7798 14 5D 20 00        2638 	.byte #0x14,#0x5D,#0x20,#0x00	; 2120980
   779C B5 60 20 00        2639 	.byte #0xB5,#0x60,#0x20,#0x00	; 2121909
   77A0 C0 6C 20 00        2640 	.byte #0xC0,#0x6C,#0x20,#0x00	; 2124992
   77A4 2A 74 20 00        2641 	.byte #0x2A,#0x74,#0x20,#0x00	; 2126890
   77A8 5F 78 20 00        2642 	.byte #0x5F,#0x78,#0x20,#0x00	; 2127967
   77AC AE 82 20 00        2643 	.byte #0xAE,#0x82,#0x20,#0x00	; 2130606
   77B0 DB 8E 20 00        2644 	.byte #0xDB,#0x8E,#0x20,#0x00	; 2133723
   77B4 31 96 20 00        2645 	.byte #0x31,#0x96,#0x20,#0x00	; 2135601
   77B8 44 9A 20 00        2646 	.byte #0x44,#0x9A,#0x20,#0x00	; 2136644
   77BC E5 A7 20 00        2647 	.byte #0xE5,#0xA7,#0x20,#0x00	; 2140133
   77C0 90 AB 20 00        2648 	.byte #0x90,#0xAB,#0x20,#0x00	; 2141072
   77C4 7A B3 20 00        2649 	.byte #0x7A,#0xB3,#0x20,#0x00	; 2143098
   77C8 0F BF 20 00        2650 	.byte #0x0F,#0xBF,#0x20,#0x00	; 2146063
   77CC 4D C4 20 00        2651 	.byte #0x4D,#0xC4,#0x20,#0x00	; 2147405
   77D0 38 C8 20 00        2652 	.byte #0x38,#0xC8,#0x20,#0x00	; 2148408
   77D4 D2 D0 20 00        2653 	.byte #0xD2,#0xD0,#0x20,#0x00	; 2150610
   77D8 A7 DC 20 00        2654 	.byte #0xA7,#0xDC,#0x20,#0x00	; 2153639
   77DC 06 E1 20 00        2655 	.byte #0x06,#0xE1,#0x20,#0x00	; 2154758
   77E0 73 ED 20 00        2656 	.byte #0x73,#0xED,#0x20,#0x00	; 2157939
   77E4 99 F5 20 00        2657 	.byte #0x99,#0xF5,#0x20,#0x00	; 2160025
   77E8 EC F9 20 00        2658 	.byte #0xEC,#0xF9,#0x20,#0x00	; 2161132
   77EC 7B 00 21 00        2659 	.byte #0x7B,#0x00,#0x21,#0x00	; 2162811
   77F0 0E 0C 21 00        2660 	.byte #0x0E,#0x0C,#0x21,#0x00	; 2165774
   77F4 E4 14 21 00        2661 	.byte #0xE4,#0x14,#0x21,#0x00	; 2168036
   77F8 91 18 21 00        2662 	.byte #0x91,#0x18,#0x21,#0x00	; 2168977
   77FC 30 25 21 00        2663 	.byte #0x30,#0x25,#0x21,#0x00	; 2172208
   7800 45 29 21 00        2664 	.byte #0x45,#0x29,#0x21,#0x00	; 2173253
   7804 AF 31 21 00        2665 	.byte #0xAF,#0x31,#0x21,#0x00	; 2175407
   7808 DA 3D 21 00        2666 	.byte #0xDA,#0x3D,#0x21,#0x00	; 2178522
   780C 98 46 21 00        2667 	.byte #0x98,#0x46,#0x21,#0x00	; 2180760
   7810 ED 4A 21 00        2668 	.byte #0xED,#0x4A,#0x21,#0x00	; 2181869
   7814 07 52 21 00        2669 	.byte #0x07,#0x52,#0x21,#0x00	; 2183687
   7818 72 5E 21 00        2670 	.byte #0x72,#0x5E,#0x21,#0x00	; 2186866
   781C D3 63 21 00        2671 	.byte #0xD3,#0x63,#0x21,#0x00	; 2188243
   7820 A6 6F 21 00        2672 	.byte #0xA6,#0x6F,#0x21,#0x00	; 2191270
   7824 4C 77 21 00        2673 	.byte #0x4C,#0x77,#0x21,#0x00	; 2193228
   7828 39 7B 21 00        2674 	.byte #0x39,#0x7B,#0x21,#0x00	; 2194233
   782C C8 81 21 00        2675 	.byte #0xC8,#0x81,#0x21,#0x00	; 2195912
   7830 BD 8D 21 00        2676 	.byte #0xBD,#0x8D,#0x21,#0x00	; 2198973
   7834 57 95 21 00        2677 	.byte #0x57,#0x95,#0x21,#0x00	; 2200919
   7838 22 99 21 00        2678 	.byte #0x22,#0x99,#0x21,#0x00	; 2201890
   783C 83 A4 21 00        2679 	.byte #0x83,#0xA4,#0x21,#0x00	; 2204803
   7840 F6 A8 21 00        2680 	.byte #0xF6,#0xA8,#0x21,#0x00	; 2205942
   7844 1C B0 21 00        2681 	.byte #0x1C,#0xB0,#0x21,#0x00	; 2207772
   7848 69 BC 21 00        2682 	.byte #0x69,#0xBC,#0x21,#0x00	; 2210921
   784C 2B C7 21 00        2683 	.byte #0x2B,#0xC7,#0x21,#0x00	; 2213675
   7850 5E CB 21 00        2684 	.byte #0x5E,#0xCB,#0x21,#0x00	; 2214750
   7854 B4 D3 21 00        2685 	.byte #0xB4,#0xD3,#0x21,#0x00	; 2216884
   7858 C1 DF 21 00        2686 	.byte #0xC1,#0xDF,#0x21,#0x00	; 2219969
   785C 60 E2 21 00        2687 	.byte #0x60,#0xE2,#0x21,#0x00	; 2220640
   7860 15 EE 21 00        2688 	.byte #0x15,#0xEE,#0x21,#0x00	; 2223637
   7864 FF F6 21 00        2689 	.byte #0xFF,#0xF6,#0x21,#0x00	; 2225919
   7868 8A FA 21 00        2690 	.byte #0x8A,#0xFA,#0x21,#0x00	; 2226826
   786C D1 05 22 00        2691 	.byte #0xD1,#0x05,#0x22,#0x00	; 2229713
   7870 A4 09 22 00        2692 	.byte #0xA4,#0x09,#0x22,#0x00	; 2230692
   7874 4E 11 22 00        2693 	.byte #0x4E,#0x11,#0x22,#0x00	; 2232654
   7878 3B 1D 22 00        2694 	.byte #0x3B,#0x1D,#0x22,#0x00	; 2235707
   787C 9A 20 22 00        2695 	.byte #0x9A,#0x20,#0x22,#0x00	; 2236570
   7880 EF 2C 22 00        2696 	.byte #0xEF,#0x2C,#0x22,#0x00	; 2239727
   7884 05 34 22 00        2697 	.byte #0x05,#0x34,#0x22,#0x00	; 2241541
   7888 70 38 22 00        2698 	.byte #0x70,#0x38,#0x22,#0x00	; 2242672
   788C 32 43 22 00        2699 	.byte #0x32,#0x43,#0x22,#0x00	; 2245426
   7890 47 4F 22 00        2700 	.byte #0x47,#0x4F,#0x22,#0x00	; 2248519
   7894 AD 57 22 00        2701 	.byte #0xAD,#0x57,#0x22,#0x00	; 2250669
   7898 D8 5B 22 00        2702 	.byte #0xD8,#0x5B,#0x22,#0x00	; 2251736
   789C 79 66 22 00        2703 	.byte #0x79,#0x66,#0x22,#0x00	; 2254457
   78A0 0C 6A 22 00        2704 	.byte #0x0C,#0x6A,#0x22,#0x00	; 2255372
   78A4 E6 72 22 00        2705 	.byte #0xE6,#0x72,#0x22,#0x00	; 2257638
   78A8 93 7E 22 00        2706 	.byte #0x93,#0x7E,#0x22,#0x00	; 2260627
   78AC 62 84 22 00        2707 	.byte #0x62,#0x84,#0x22,#0x00	; 2262114
   78B0 17 88 22 00        2708 	.byte #0x17,#0x88,#0x22,#0x00	; 2263063
   78B4 FD 90 22 00        2709 	.byte #0xFD,#0x90,#0x22,#0x00	; 2265341
   78B8 88 9C 22 00        2710 	.byte #0x88,#0x9C,#0x22,#0x00	; 2268296
   78BC 29 A1 22 00        2711 	.byte #0x29,#0xA1,#0x22,#0x00	; 2269481
   78C0 5C AD 22 00        2712 	.byte #0x5C,#0xAD,#0x22,#0x00	; 2272604
   78C4 B6 B5 22 00        2713 	.byte #0xB6,#0xB5,#0x22,#0x00	; 2274742
   78C8 C3 B9 22 00        2714 	.byte #0xC3,#0xB9,#0x22,#0x00	; 2275779
   78CC 81 C2 22 00        2715 	.byte #0x81,#0xC2,#0x22,#0x00	; 2278017
   78D0 F4 CE 22 00        2716 	.byte #0xF4,#0xCE,#0x22,#0x00	; 2281204
   78D4 1E D6 22 00        2717 	.byte #0x1E,#0xD6,#0x22,#0x00	; 2283038
   78D8 6B DA 22 00        2718 	.byte #0x6B,#0xDA,#0x22,#0x00	; 2284139
   78DC CA E7 22 00        2719 	.byte #0xCA,#0xE7,#0x22,#0x00	; 2287562
   78E0 BF EB 22 00        2720 	.byte #0xBF,#0xEB,#0x22,#0x00	; 2288575
   78E4 55 F3 22 00        2721 	.byte #0x55,#0xF3,#0x22,#0x00	; 2290517
   78E8 20 FF 22 00        2722 	.byte #0x20,#0xFF,#0x22,#0x00	; 2293536
   78EC B7 06 23 00        2723 	.byte #0xB7,#0x06,#0x23,#0x00	; 2295479
   78F0 C2 0A 23 00        2724 	.byte #0xC2,#0x0A,#0x23,#0x00	; 2296514
   78F4 28 12 23 00        2725 	.byte #0x28,#0x12,#0x23,#0x00	; 2298408
   78F8 5D 1E 23 00        2726 	.byte #0x5D,#0x1E,#0x23,#0x00	; 2301533
   78FC FC 23 23 00        2727 	.byte #0xFC,#0x23,#0x23,#0x00	; 2302972
   7900 89 2F 23 00        2728 	.byte #0x89,#0x2F,#0x23,#0x00	; 2305929
   7904 63 37 23 00        2729 	.byte #0x63,#0x37,#0x23,#0x00	; 2307939
   7908 16 3B 23 00        2730 	.byte #0x16,#0x3B,#0x23,#0x00	; 2308886
   790C 54 40 23 00        2731 	.byte #0x54,#0x40,#0x23,#0x00	; 2310228
   7910 21 4C 23 00        2732 	.byte #0x21,#0x4C,#0x23,#0x00	; 2313249
   7914 CB 54 23 00        2733 	.byte #0xCB,#0x54,#0x23,#0x00	; 2315467
   7918 BE 58 23 00        2734 	.byte #0xBE,#0x58,#0x23,#0x00	; 2316478
   791C 1F 65 23 00        2735 	.byte #0x1F,#0x65,#0x23,#0x00	; 2319647
   7920 6A 69 23 00        2736 	.byte #0x6A,#0x69,#0x23,#0x00	; 2320746
   7924 80 71 23 00        2737 	.byte #0x80,#0x71,#0x23,#0x00	; 2322816
   7928 F5 7D 23 00        2738 	.byte #0xF5,#0x7D,#0x23,#0x00	; 2326005
   792C 04 87 23 00        2739 	.byte #0x04,#0x87,#0x23,#0x00	; 2328324
   7930 71 8B 23 00        2740 	.byte #0x71,#0x8B,#0x23,#0x00	; 2329457
   7934 9B 93 23 00        2741 	.byte #0x9B,#0x93,#0x23,#0x00	; 2331547
   7938 EE 9F 23 00        2742 	.byte #0xEE,#0x9F,#0x23,#0x00	; 2334702
   793C 4F A2 23 00        2743 	.byte #0x4F,#0xA2,#0x23,#0x00	; 2335311
   7940 3A AE 23 00        2744 	.byte #0x3A,#0xAE,#0x23,#0x00	; 2338362
   7944 D0 B6 23 00        2745 	.byte #0xD0,#0xB6,#0x23,#0x00	; 2340560
   7948 A5 BA 23 00        2746 	.byte #0xA5,#0xBA,#0x23,#0x00	; 2341541
   794C E7 C1 23 00        2747 	.byte #0xE7,#0xC1,#0x23,#0x00	; 2343399
   7950 92 CD 23 00        2748 	.byte #0x92,#0xCD,#0x23,#0x00	; 2346386
   7954 78 D5 23 00        2749 	.byte #0x78,#0xD5,#0x23,#0x00	; 2348408
   7958 0D D9 23 00        2750 	.byte #0x0D,#0xD9,#0x23,#0x00	; 2349325
   795C AC E4 23 00        2751 	.byte #0xAC,#0xE4,#0x23,#0x00	; 2352300
   7960 D9 E8 23 00        2752 	.byte #0xD9,#0xE8,#0x23,#0x00	; 2353369
   7964 33 F0 23 00        2753 	.byte #0x33,#0xF0,#0x23,#0x00	; 2355251
   7968 46 FC 23 00        2754 	.byte #0x46,#0xFC,#0x23,#0x00	; 2358342
   796C F0 02 24 00        2755 	.byte #0xF0,#0x02,#0x24,#0x00	; 2360048
   7970 85 0E 24 00        2756 	.byte #0x85,#0x0E,#0x24,#0x00	; 2363013
   7974 6F 16 24 00        2757 	.byte #0x6F,#0x16,#0x24,#0x00	; 2365039
   7978 1A 1A 24 00        2758 	.byte #0x1A,#0x1A,#0x24,#0x00	; 2365978
   797C BB 27 24 00        2759 	.byte #0xBB,#0x27,#0x24,#0x00	; 2369467
   7980 CE 2B 24 00        2760 	.byte #0xCE,#0x2B,#0x24,#0x00	; 2370510
   7984 24 33 24 00        2761 	.byte #0x24,#0x33,#0x24,#0x00	; 2372388
   7988 51 3F 24 00        2762 	.byte #0x51,#0x3F,#0x24,#0x00	; 2375505
   798C 13 44 24 00        2763 	.byte #0x13,#0x44,#0x24,#0x00	; 2376723
   7990 66 48 24 00        2764 	.byte #0x66,#0x48,#0x24,#0x00	; 2377830
   7994 8C 50 24 00        2765 	.byte #0x8C,#0x50,#0x24,#0x00	; 2379916
   7998 F9 5C 24 00        2766 	.byte #0xF9,#0x5C,#0x24,#0x00	; 2383097
   799C 58 61 24 00        2767 	.byte #0x58,#0x61,#0x24,#0x00	; 2384216
   79A0 2D 6D 24 00        2768 	.byte #0x2D,#0x6D,#0x24,#0x00	; 2387245
   79A4 C7 75 24 00        2769 	.byte #0xC7,#0x75,#0x24,#0x00	; 2389447
   79A8 B2 79 24 00        2770 	.byte #0xB2,#0x79,#0x24,#0x00	; 2390450
   79AC 43 83 24 00        2771 	.byte #0x43,#0x83,#0x24,#0x00	; 2392899
   79B0 36 8F 24 00        2772 	.byte #0x36,#0x8F,#0x24,#0x00	; 2395958
   79B4 DC 97 24 00        2773 	.byte #0xDC,#0x97,#0x24,#0x00	; 2398172
   79B8 A9 9B 24 00        2774 	.byte #0xA9,#0x9B,#0x24,#0x00	; 2399145
   79BC 08 A6 24 00        2775 	.byte #0x08,#0xA6,#0x24,#0x00	; 2401800
   79C0 7D AA 24 00        2776 	.byte #0x7D,#0xAA,#0x24,#0x00	; 2402941
   79C4 97 B2 24 00        2777 	.byte #0x97,#0xB2,#0x24,#0x00	; 2405015
   79C8 E2 BE 24 00        2778 	.byte #0xE2,#0xBE,#0x24,#0x00	; 2408162
   79CC A0 C5 24 00        2779 	.byte #0xA0,#0xC5,#0x24,#0x00	; 2409888
   79D0 D5 C9 24 00        2780 	.byte #0xD5,#0xC9,#0x24,#0x00	; 2410965
   79D4 3F D1 24 00        2781 	.byte #0x3F,#0xD1,#0x24,#0x00	; 2412863
   79D8 4A DD 24 00        2782 	.byte #0x4A,#0xDD,#0x24,#0x00	; 2415946
   79DC EB E0 24 00        2783 	.byte #0xEB,#0xE0,#0x24,#0x00	; 2416875
   79E0 9E EC 24 00        2784 	.byte #0x9E,#0xEC,#0x24,#0x00	; 2419870
   79E4 74 F4 24 00        2785 	.byte #0x74,#0xF4,#0x24,#0x00	; 2421876
   79E8 01 F8 24 00        2786 	.byte #0x01,#0xF8,#0x24,#0x00	; 2422785
   79EC 96 01 25 00        2787 	.byte #0x96,#0x01,#0x25,#0x00	; 2425238
   79F0 E3 0D 25 00        2788 	.byte #0xE3,#0x0D,#0x25,#0x00	; 2428387
   79F4 09 15 25 00        2789 	.byte #0x09,#0x15,#0x25,#0x00	; 2430217
   79F8 7C 19 25 00        2790 	.byte #0x7C,#0x19,#0x25,#0x00	; 2431356
   79FC DD 24 25 00        2791 	.byte #0xDD,#0x24,#0x25,#0x00	; 2434269
   7A00 A8 28 25 00        2792 	.byte #0xA8,#0x28,#0x25,#0x00	; 2435240
   7A04 42 30 25 00        2793 	.byte #0x42,#0x30,#0x25,#0x00	; 2437186
   7A08 37 3C 25 00        2794 	.byte #0x37,#0x3C,#0x25,#0x00	; 2440247
   7A0C 75 47 25 00        2795 	.byte #0x75,#0x47,#0x25,#0x00	; 2443125
   7A10 00 4B 25 00        2796 	.byte #0x00,#0x4B,#0x25,#0x00	; 2444032
   7A14 EA 53 25 00        2797 	.byte #0xEA,#0x53,#0x25,#0x00	; 2446314
   7A18 9F 5F 25 00        2798 	.byte #0x9F,#0x5F,#0x25,#0x00	; 2449311
   7A1C 3E 62 25 00        2799 	.byte #0x3E,#0x62,#0x25,#0x00	; 2449982
   7A20 4B 6E 25 00        2800 	.byte #0x4B,#0x6E,#0x25,#0x00	; 2453067
   7A24 A1 76 25 00        2801 	.byte #0xA1,#0x76,#0x25,#0x00	; 2455201
   7A28 D4 7A 25 00        2802 	.byte #0xD4,#0x7A,#0x25,#0x00	; 2456276
   7A2C 25 80 25 00        2803 	.byte #0x25,#0x80,#0x25,#0x00	; 2457637
   7A30 50 8C 25 00        2804 	.byte #0x50,#0x8C,#0x25,#0x00	; 2460752
   7A34 BA 94 25 00        2805 	.byte #0xBA,#0x94,#0x25,#0x00	; 2462906
   7A38 CF 98 25 00        2806 	.byte #0xCF,#0x98,#0x25,#0x00	; 2463951
   7A3C 6E A5 25 00        2807 	.byte #0x6E,#0xA5,#0x25,#0x00	; 2467182
   7A40 1B A9 25 00        2808 	.byte #0x1B,#0xA9,#0x25,#0x00	; 2468123
   7A44 F1 B1 25 00        2809 	.byte #0xF1,#0xB1,#0x25,#0x00	; 2470385
   7A48 84 BD 25 00        2810 	.byte #0x84,#0xBD,#0x25,#0x00	; 2473348
   7A4C C6 C6 25 00        2811 	.byte #0xC6,#0xC6,#0x25,#0x00	; 2475718
   7A50 B3 CA 25 00        2812 	.byte #0xB3,#0xCA,#0x25,#0x00	; 2476723
   7A54 59 D2 25 00        2813 	.byte #0x59,#0xD2,#0x25,#0x00	; 2478681
   7A58 2C DE 25 00        2814 	.byte #0x2C,#0xDE,#0x25,#0x00	; 2481708
   7A5C 8D E3 25 00        2815 	.byte #0x8D,#0xE3,#0x25,#0x00	; 2483085
   7A60 F8 EF 25 00        2816 	.byte #0xF8,#0xEF,#0x25,#0x00	; 2486264
   7A64 12 F7 25 00        2817 	.byte #0x12,#0xF7,#0x25,#0x00	; 2488082
   7A68 67 FB 25 00        2818 	.byte #0x67,#0xFB,#0x25,#0x00	; 2489191
   7A6C 3C 04 26 00        2819 	.byte #0x3C,#0x04,#0x26,#0x00	; 2491452
   7A70 49 08 26 00        2820 	.byte #0x49,#0x08,#0x26,#0x00	; 2492489
   7A74 A3 10 26 00        2821 	.byte #0xA3,#0x10,#0x26,#0x00	; 2494627
   7A78 D6 1C 26 00        2822 	.byte #0xD6,#0x1C,#0x26,#0x00	; 2497750
   7A7C 77 21 26 00        2823 	.byte #0x77,#0x21,#0x26,#0x00	; 2498935
   7A80 02 2D 26 00        2824 	.byte #0x02,#0x2D,#0x26,#0x00	; 2501890
   7A84 E8 35 26 00        2825 	.byte #0xE8,#0x35,#0x26,#0x00	; 2504168
   7A88 9D 39 26 00        2826 	.byte #0x9D,#0x39,#0x26,#0x00	; 2505117
   7A8C DF 42 26 00        2827 	.byte #0xDF,#0x42,#0x26,#0x00	; 2507487
   7A90 AA 4E 26 00        2828 	.byte #0xAA,#0x4E,#0x26,#0x00	; 2510506
   7A94 40 56 26 00        2829 	.byte #0x40,#0x56,#0x26,#0x00	; 2512448
   7A98 35 5A 26 00        2830 	.byte #0x35,#0x5A,#0x26,#0x00	; 2513461
   7A9C 94 67 26 00        2831 	.byte #0x94,#0x67,#0x26,#0x00	; 2516884
   7AA0 E1 6B 26 00        2832 	.byte #0xE1,#0x6B,#0x26,#0x00	; 2517985
   7AA4 0B 73 26 00        2833 	.byte #0x0B,#0x73,#0x26,#0x00	; 2519819
   7AA8 7E 7F 26 00        2834 	.byte #0x7E,#0x7F,#0x26,#0x00	; 2523006
   7AAC 8F 85 26 00        2835 	.byte #0x8F,#0x85,#0x26,#0x00	; 2524559
   7AB0 FA 89 26 00        2836 	.byte #0xFA,#0x89,#0x26,#0x00	; 2525690
   7AB4 10 91 26 00        2837 	.byte #0x10,#0x91,#0x26,#0x00	; 2527504
   7AB8 65 9D 26 00        2838 	.byte #0x65,#0x9D,#0x26,#0x00	; 2530661
   7ABC C4 A0 26 00        2839 	.byte #0xC4,#0xA0,#0x26,#0x00	; 2531524
   7AC0 B1 AC 26 00        2840 	.byte #0xB1,#0xAC,#0x26,#0x00	; 2534577
   7AC4 5B B4 26 00        2841 	.byte #0x5B,#0xB4,#0x26,#0x00	; 2536539
   7AC8 2E B8 26 00        2842 	.byte #0x2E,#0xB8,#0x26,#0x00	; 2537518
   7ACC 6C C3 26 00        2843 	.byte #0x6C,#0xC3,#0x26,#0x00	; 2540396
   7AD0 19 CF 26 00        2844 	.byte #0x19,#0xCF,#0x26,#0x00	; 2543385
   7AD4 F3 D7 26 00        2845 	.byte #0xF3,#0xD7,#0x26,#0x00	; 2545651
   7AD8 86 DB 26 00        2846 	.byte #0x86,#0xDB,#0x26,#0x00	; 2546566
   7ADC 27 E6 26 00        2847 	.byte #0x27,#0xE6,#0x26,#0x00	; 2549287
   7AE0 52 EA 26 00        2848 	.byte #0x52,#0xEA,#0x26,#0x00	; 2550354
   7AE4 B8 F2 26 00        2849 	.byte #0xB8,#0xF2,#0x26,#0x00	; 2552504
   7AE8 CD FE 26 00        2850 	.byte #0xCD,#0xFE,#0x26,#0x00	; 2555597
   7AEC 5A 07 27 00        2851 	.byte #0x5A,#0x07,#0x27,#0x00	; 2557786
   7AF0 2F 0B 27 00        2852 	.byte #0x2F,#0x0B,#0x27,#0x00	; 2558767
   7AF4 C5 13 27 00        2853 	.byte #0xC5,#0x13,#0x27,#0x00	; 2560965
   7AF8 B0 1F 27 00        2854 	.byte #0xB0,#0x1F,#0x27,#0x00	; 2564016
   7AFC 11 22 27 00        2855 	.byte #0x11,#0x22,#0x27,#0x00	; 2564625
   7B00 64 2E 27 00        2856 	.byte #0x64,#0x2E,#0x27,#0x00	; 2567780
   7B04 8E 36 27 00        2857 	.byte #0x8E,#0x36,#0x27,#0x00	; 2569870
   7B08 FB 3A 27 00        2858 	.byte #0xFB,#0x3A,#0x27,#0x00	; 2571003
   7B0C B9 41 27 00        2859 	.byte #0xB9,#0x41,#0x27,#0x00	; 2572729
   7B10 CC 4D 27 00        2860 	.byte #0xCC,#0x4D,#0x27,#0x00	; 2575820
   7B14 26 55 27 00        2861 	.byte #0x26,#0x55,#0x27,#0x00	; 2577702
   7B18 53 59 27 00        2862 	.byte #0x53,#0x59,#0x27,#0x00	; 2578771
   7B1C F2 64 27 00        2863 	.byte #0xF2,#0x64,#0x27,#0x00	; 2581746
   7B20 87 68 27 00        2864 	.byte #0x87,#0x68,#0x27,#0x00	; 2582663
   7B24 6D 70 27 00        2865 	.byte #0x6D,#0x70,#0x27,#0x00	; 2584685
   7B28 18 7C 27 00        2866 	.byte #0x18,#0x7C,#0x27,#0x00	; 2587672
   7B2C E9 86 27 00        2867 	.byte #0xE9,#0x86,#0x27,#0x00	; 2590441
   7B30 9C 8A 27 00        2868 	.byte #0x9C,#0x8A,#0x27,#0x00	; 2591388
   7B34 76 92 27 00        2869 	.byte #0x76,#0x92,#0x27,#0x00	; 2593398
   7B38 03 9E 27 00        2870 	.byte #0x03,#0x9E,#0x27,#0x00	; 2596355
   7B3C A2 A3 27 00        2871 	.byte #0xA2,#0xA3,#0x27,#0x00	; 2597794
   7B40 D7 AF 27 00        2872 	.byte #0xD7,#0xAF,#0x27,#0x00	; 2600919
   7B44 3D B7 27 00        2873 	.byte #0x3D,#0xB7,#0x27,#0x00	; 2602813
   7B48 48 BB 27 00        2874 	.byte #0x48,#0xBB,#0x27,#0x00	; 2603848
   7B4C 0A C0 27 00        2875 	.byte #0x0A,#0xC0,#0x27,#0x00	; 2605066
   7B50 7F CC 27 00        2876 	.byte #0x7F,#0xCC,#0x27,#0x00	; 2608255
   7B54 95 D4 27 00        2877 	.byte #0x95,#0xD4,#0x27,#0x00	; 2610325
   7B58 E0 D8 27 00        2878 	.byte #0xE0,#0xD8,#0x27,#0x00	; 2611424
   7B5C 41 E5 27 00        2879 	.byte #0x41,#0xE5,#0x27,#0x00	; 2614593
   7B60 34 E9 27 00        2880 	.byte #0x34,#0xE9,#0x27,#0x00	; 2615604
   7B64 DE F1 27 00        2881 	.byte #0xDE,#0xF1,#0x27,#0x00	; 2617822
   7B68 AB FD 27 00        2882 	.byte #0xAB,#0xFD,#0x27,#0x00	; 2620843
   7B6C C7 00 28 00        2883 	.byte #0xC7,#0x00,#0x28,#0x00	; 2621639
   7B70 B2 0C 28 00        2884 	.byte #0xB2,#0x0C,#0x28,#0x00	; 2624690
   7B74 58 14 28 00        2885 	.byte #0x58,#0x14,#0x28,#0x00	; 2626648
   7B78 2D 18 28 00        2886 	.byte #0x2D,#0x18,#0x28,#0x00	; 2627629
   7B7C 8C 25 28 00        2887 	.byte #0x8C,#0x25,#0x28,#0x00	; 2631052
   7B80 F9 29 28 00        2888 	.byte #0xF9,#0x29,#0x28,#0x00	; 2632185
   7B84 13 31 28 00        2889 	.byte #0x13,#0x31,#0x28,#0x00	; 2634003
   7B88 66 3D 28 00        2890 	.byte #0x66,#0x3D,#0x28,#0x00	; 2637158
   7B8C 24 46 28 00        2891 	.byte #0x24,#0x46,#0x28,#0x00	; 2639396
   7B90 51 4A 28 00        2892 	.byte #0x51,#0x4A,#0x28,#0x00	; 2640465
   7B94 BB 52 28 00        2893 	.byte #0xBB,#0x52,#0x28,#0x00	; 2642619
   7B98 CE 5E 28 00        2894 	.byte #0xCE,#0x5E,#0x28,#0x00	; 2645710
   7B9C 6F 63 28 00        2895 	.byte #0x6F,#0x63,#0x28,#0x00	; 2646895
   7BA0 1A 6F 28 00        2896 	.byte #0x1A,#0x6F,#0x28,#0x00	; 2649882
   7BA4 F0 77 28 00        2897 	.byte #0xF0,#0x77,#0x28,#0x00	; 2652144
   7BA8 85 7B 28 00        2898 	.byte #0x85,#0x7B,#0x28,#0x00	; 2653061
   7BAC 74 81 28 00        2899 	.byte #0x74,#0x81,#0x28,#0x00	; 2654580
   7BB0 01 8D 28 00        2900 	.byte #0x01,#0x8D,#0x28,#0x00	; 2657537
   7BB4 EB 95 28 00        2901 	.byte #0xEB,#0x95,#0x28,#0x00	; 2659819
   7BB8 9E 99 28 00        2902 	.byte #0x9E,#0x99,#0x28,#0x00	; 2660766
   7BBC 3F A4 28 00        2903 	.byte #0x3F,#0xA4,#0x28,#0x00	; 2663487
   7BC0 4A A8 28 00        2904 	.byte #0x4A,#0xA8,#0x28,#0x00	; 2664522
   7BC4 A0 B0 28 00        2905 	.byte #0xA0,#0xB0,#0x28,#0x00	; 2666656
   7BC8 D5 BC 28 00        2906 	.byte #0xD5,#0xBC,#0x28,#0x00	; 2669781
   7BCC 97 C7 28 00        2907 	.byte #0x97,#0xC7,#0x28,#0x00	; 2672535
   7BD0 E2 CB 28 00        2908 	.byte #0xE2,#0xCB,#0x28,#0x00	; 2673634
   7BD4 08 D3 28 00        2909 	.byte #0x08,#0xD3,#0x28,#0x00	; 2675464
   7BD8 7D DF 28 00        2910 	.byte #0x7D,#0xDF,#0x28,#0x00	; 2678653
   7BDC DC E2 28 00        2911 	.byte #0xDC,#0xE2,#0x28,#0x00	; 2679516
   7BE0 A9 EE 28 00        2912 	.byte #0xA9,#0xEE,#0x28,#0x00	; 2682537
   7BE4 43 F6 28 00        2913 	.byte #0x43,#0xF6,#0x28,#0x00	; 2684483
   7BE8 36 FA 28 00        2914 	.byte #0x36,#0xFA,#0x28,#0x00	; 2685494
   7BEC A1 03 29 00        2915 	.byte #0xA1,#0x03,#0x29,#0x00	; 2687905
   7BF0 D4 0F 29 00        2916 	.byte #0xD4,#0x0F,#0x29,#0x00	; 2691028
   7BF4 3E 17 29 00        2917 	.byte #0x3E,#0x17,#0x29,#0x00	; 2692926
   7BF8 4B 1B 29 00        2918 	.byte #0x4B,#0x1B,#0x29,#0x00	; 2693963
   7BFC EA 26 29 00        2919 	.byte #0xEA,#0x26,#0x29,#0x00	; 2696938
   7C00 9F 2A 29 00        2920 	.byte #0x9F,#0x2A,#0x29,#0x00	; 2697887
   7C04 75 32 29 00        2921 	.byte #0x75,#0x32,#0x29,#0x00	; 2699893
   7C08 00 3E 29 00        2922 	.byte #0x00,#0x3E,#0x29,#0x00	; 2702848
   7C0C 42 45 29 00        2923 	.byte #0x42,#0x45,#0x29,#0x00	; 2704706
   7C10 37 49 29 00        2924 	.byte #0x37,#0x49,#0x29,#0x00	; 2705719
   7C14 DD 51 29 00        2925 	.byte #0xDD,#0x51,#0x29,#0x00	; 2707933
   7C18 A8 5D 29 00        2926 	.byte #0xA8,#0x5D,#0x29,#0x00	; 2710952
   7C1C 09 60 29 00        2927 	.byte #0x09,#0x60,#0x29,#0x00	; 2711561
   7C20 7C 6C 29 00        2928 	.byte #0x7C,#0x6C,#0x29,#0x00	; 2714748
   7C24 96 74 29 00        2929 	.byte #0x96,#0x74,#0x29,#0x00	; 2716822
   7C28 E3 78 29 00        2930 	.byte #0xE3,#0x78,#0x29,#0x00	; 2717923
   7C2C 12 82 29 00        2931 	.byte #0x12,#0x82,#0x29,#0x00	; 2720274
   7C30 67 8E 29 00        2932 	.byte #0x67,#0x8E,#0x29,#0x00	; 2723431
   7C34 8D 96 29 00        2933 	.byte #0x8D,#0x96,#0x29,#0x00	; 2725517
   7C38 F8 9A 29 00        2934 	.byte #0xF8,#0x9A,#0x29,#0x00	; 2726648
   7C3C 59 A7 29 00        2935 	.byte #0x59,#0xA7,#0x29,#0x00	; 2729817
   7C40 2C AB 29 00        2936 	.byte #0x2C,#0xAB,#0x29,#0x00	; 2730796
   7C44 C6 B3 29 00        2937 	.byte #0xC6,#0xB3,#0x29,#0x00	; 2732998
   7C48 B3 BF 29 00        2938 	.byte #0xB3,#0xBF,#0x29,#0x00	; 2736051
   7C4C F1 C4 29 00        2939 	.byte #0xF1,#0xC4,#0x29,#0x00	; 2737393
   7C50 84 C8 29 00        2940 	.byte #0x84,#0xC8,#0x29,#0x00	; 2738308
   7C54 6E D0 29 00        2941 	.byte #0x6E,#0xD0,#0x29,#0x00	; 2740334
   7C58 1B DC 29 00        2942 	.byte #0x1B,#0xDC,#0x29,#0x00	; 2743323
   7C5C BA E1 29 00        2943 	.byte #0xBA,#0xE1,#0x29,#0x00	; 2744762
   7C60 CF ED 29 00        2944 	.byte #0xCF,#0xED,#0x29,#0x00	; 2747855
   7C64 25 F5 29 00        2945 	.byte #0x25,#0xF5,#0x29,#0x00	; 2749733
   7C68 50 F9 29 00        2946 	.byte #0x50,#0xF9,#0x29,#0x00	; 2750800
   7C6C 0B 06 2A 00        2947 	.byte #0x0B,#0x06,#0x2A,#0x00	; 2754059
   7C70 7E 0A 2A 00        2948 	.byte #0x7E,#0x0A,#0x2A,#0x00	; 2755198
   7C74 94 12 2A 00        2949 	.byte #0x94,#0x12,#0x2A,#0x00	; 2757268
   7C78 E1 1E 2A 00        2950 	.byte #0xE1,#0x1E,#0x2A,#0x00	; 2760417
   7C7C 40 23 2A 00        2951 	.byte #0x40,#0x23,#0x2A,#0x00	; 2761536
   7C80 35 2F 2A 00        2952 	.byte #0x35,#0x2F,#0x2A,#0x00	; 2764597
   7C84 DF 37 2A 00        2953 	.byte #0xDF,#0x37,#0x2A,#0x00	; 2766815
   7C88 AA 3B 2A 00        2954 	.byte #0xAA,#0x3B,#0x2A,#0x00	; 2767786
   7C8C E8 40 2A 00        2955 	.byte #0xE8,#0x40,#0x2A,#0x00	; 2769128
   7C90 9D 4C 2A 00        2956 	.byte #0x9D,#0x4C,#0x2A,#0x00	; 2772125
   7C94 77 54 2A 00        2957 	.byte #0x77,#0x54,#0x2A,#0x00	; 2774135
   7C98 02 58 2A 00        2958 	.byte #0x02,#0x58,#0x2A,#0x00	; 2775042
   7C9C A3 65 2A 00        2959 	.byte #0xA3,#0x65,#0x2A,#0x00	; 2778531
   7CA0 D6 69 2A 00        2960 	.byte #0xD6,#0x69,#0x2A,#0x00	; 2779606
   7CA4 3C 71 2A 00        2961 	.byte #0x3C,#0x71,#0x2A,#0x00	; 2781500
   7CA8 49 7D 2A 00        2962 	.byte #0x49,#0x7D,#0x2A,#0x00	; 2784585
   7CAC B8 87 2A 00        2963 	.byte #0xB8,#0x87,#0x2A,#0x00	; 2787256
   7CB0 CD 8B 2A 00        2964 	.byte #0xCD,#0x8B,#0x2A,#0x00	; 2788301
   7CB4 27 93 2A 00        2965 	.byte #0x27,#0x93,#0x2A,#0x00	; 2790183
   7CB8 52 9F 2A 00        2966 	.byte #0x52,#0x9F,#0x2A,#0x00	; 2793298
   7CBC F3 A2 2A 00        2967 	.byte #0xF3,#0xA2,#0x2A,#0x00	; 2794227
   7CC0 86 AE 2A 00        2968 	.byte #0x86,#0xAE,#0x2A,#0x00	; 2797190
   7CC4 6C B6 2A 00        2969 	.byte #0x6C,#0xB6,#0x2A,#0x00	; 2799212
   7CC8 19 BA 2A 00        2970 	.byte #0x19,#0xBA,#0x2A,#0x00	; 2800153
   7CCC 5B C1 2A 00        2971 	.byte #0x5B,#0xC1,#0x2A,#0x00	; 2802011
   7CD0 2E CD 2A 00        2972 	.byte #0x2E,#0xCD,#0x2A,#0x00	; 2805038
   7CD4 C4 D5 2A 00        2973 	.byte #0xC4,#0xD5,#0x2A,#0x00	; 2807236
   7CD8 B1 D9 2A 00        2974 	.byte #0xB1,#0xD9,#0x2A,#0x00	; 2808241
   7CDC 10 E4 2A 00        2975 	.byte #0x10,#0xE4,#0x2A,#0x00	; 2810896
   7CE0 65 E8 2A 00        2976 	.byte #0x65,#0xE8,#0x2A,#0x00	; 2812005
   7CE4 8F F0 2A 00        2977 	.byte #0x8F,#0xF0,#0x2A,#0x00	; 2814095
   7CE8 FA FC 2A 00        2978 	.byte #0xFA,#0xFC,#0x2A,#0x00	; 2817274
   7CEC 6D 05 2B 00        2979 	.byte #0x6D,#0x05,#0x2B,#0x00	; 2819437
   7CF0 18 09 2B 00        2980 	.byte #0x18,#0x09,#0x2B,#0x00	; 2820376
   7CF4 F2 11 2B 00        2981 	.byte #0xF2,#0x11,#0x2B,#0x00	; 2822642
   7CF8 87 1D 2B 00        2982 	.byte #0x87,#0x1D,#0x2B,#0x00	; 2825607
   7CFC 26 20 2B 00        2983 	.byte #0x26,#0x20,#0x2B,#0x00	; 2826278
   7D00 53 2C 2B 00        2984 	.byte #0x53,#0x2C,#0x2B,#0x00	; 2829395
   7D04 B9 34 2B 00        2985 	.byte #0xB9,#0x34,#0x2B,#0x00	; 2831545
   7D08 CC 38 2B 00        2986 	.byte #0xCC,#0x38,#0x2B,#0x00	; 2832588
   7D0C 8E 43 2B 00        2987 	.byte #0x8E,#0x43,#0x2B,#0x00	; 2835342
   7D10 FB 4F 2B 00        2988 	.byte #0xFB,#0x4F,#0x2B,#0x00	; 2838523
   7D14 11 57 2B 00        2989 	.byte #0x11,#0x57,#0x2B,#0x00	; 2840337
   7D18 64 5B 2B 00        2990 	.byte #0x64,#0x5B,#0x2B,#0x00	; 2841444
   7D1C C5 66 2B 00        2991 	.byte #0xC5,#0x66,#0x2B,#0x00	; 2844357
   7D20 B0 6A 2B 00        2992 	.byte #0xB0,#0x6A,#0x2B,#0x00	; 2845360
   7D24 5A 72 2B 00        2993 	.byte #0x5A,#0x72,#0x2B,#0x00	; 2847322
   7D28 2F 7E 2B 00        2994 	.byte #0x2F,#0x7E,#0x2B,#0x00	; 2850351
   7D2C DE 84 2B 00        2995 	.byte #0xDE,#0x84,#0x2B,#0x00	; 2852062
   7D30 AB 88 2B 00        2996 	.byte #0xAB,#0x88,#0x2B,#0x00	; 2853035
   7D34 41 90 2B 00        2997 	.byte #0x41,#0x90,#0x2B,#0x00	; 2854977
   7D38 34 9C 2B 00        2998 	.byte #0x34,#0x9C,#0x2B,#0x00	; 2858036
   7D3C 95 A1 2B 00        2999 	.byte #0x95,#0xA1,#0x2B,#0x00	; 2859413
   7D40 E0 AD 2B 00        3000 	.byte #0xE0,#0xAD,#0x2B,#0x00	; 2862560
   7D44 0A B5 2B 00        3001 	.byte #0x0A,#0xB5,#0x2B,#0x00	; 2864394
   7D48 7F B9 2B 00        3002 	.byte #0x7F,#0xB9,#0x2B,#0x00	; 2865535
   7D4C 3D C2 2B 00        3003 	.byte #0x3D,#0xC2,#0x2B,#0x00	; 2867773
   7D50 48 CE 2B 00        3004 	.byte #0x48,#0xCE,#0x2B,#0x00	; 2870856
   7D54 A2 D6 2B 00        3005 	.byte #0xA2,#0xD6,#0x2B,#0x00	; 2872994
   7D58 D7 DA 2B 00        3006 	.byte #0xD7,#0xDA,#0x2B,#0x00	; 2874071
   7D5C 76 E7 2B 00        3007 	.byte #0x76,#0xE7,#0x2B,#0x00	; 2877302
   7D60 03 EB 2B 00        3008 	.byte #0x03,#0xEB,#0x2B,#0x00	; 2878211
   7D64 E9 F3 2B 00        3009 	.byte #0xE9,#0xF3,#0x2B,#0x00	; 2880489
   7D68 9C FF 2B 00        3010 	.byte #0x9C,#0xFF,#0x2B,#0x00	; 2883484
   7D6C 2A 01 2C 00        3011 	.byte #0x2A,#0x01,#0x2C,#0x00	; 2883882
   7D70 5F 0D 2C 00        3012 	.byte #0x5F,#0x0D,#0x2C,#0x00	; 2887007
   7D74 B5 15 2C 00        3013 	.byte #0xB5,#0x15,#0x2C,#0x00	; 2889141
   7D78 C0 19 2C 00        3014 	.byte #0xC0,#0x19,#0x2C,#0x00	; 2890176
   7D7C 61 24 2C 00        3015 	.byte #0x61,#0x24,#0x2C,#0x00	; 2892897
   7D80 14 28 2C 00        3016 	.byte #0x14,#0x28,#0x2C,#0x00	; 2893844
   7D84 FE 30 2C 00        3017 	.byte #0xFE,#0x30,#0x2C,#0x00	; 2896126
   7D88 8B 3C 2C 00        3018 	.byte #0x8B,#0x3C,#0x2C,#0x00	; 2899083
   7D8C C9 47 2C 00        3019 	.byte #0xC9,#0x47,#0x2C,#0x00	; 2901961
   7D90 BC 4B 2C 00        3020 	.byte #0xBC,#0x4B,#0x2C,#0x00	; 2902972
   7D94 56 53 2C 00        3021 	.byte #0x56,#0x53,#0x2C,#0x00	; 2904918
   7D98 23 5F 2C 00        3022 	.byte #0x23,#0x5F,#0x2C,#0x00	; 2907939
   7D9C 82 62 2C 00        3023 	.byte #0x82,#0x62,#0x2C,#0x00	; 2908802
   7DA0 F7 6E 2C 00        3024 	.byte #0xF7,#0x6E,#0x2C,#0x00	; 2911991
   7DA4 1D 76 2C 00        3025 	.byte #0x1D,#0x76,#0x2C,#0x00	; 2913821
   7DA8 68 7A 2C 00        3026 	.byte #0x68,#0x7A,#0x2C,#0x00	; 2914920
   7DAC 99 80 2C 00        3027 	.byte #0x99,#0x80,#0x2C,#0x00	; 2916505
   7DB0 EC 8C 2C 00        3028 	.byte #0xEC,#0x8C,#0x2C,#0x00	; 2919660
   7DB4 06 94 2C 00        3029 	.byte #0x06,#0x94,#0x2C,#0x00	; 2921478
   7DB8 73 98 2C 00        3030 	.byte #0x73,#0x98,#0x2C,#0x00	; 2922611
   7DBC D2 A5 2C 00        3031 	.byte #0xD2,#0xA5,#0x2C,#0x00	; 2926034
   7DC0 A7 A9 2C 00        3032 	.byte #0xA7,#0xA9,#0x2C,#0x00	; 2927015
   7DC4 4D B1 2C 00        3033 	.byte #0x4D,#0xB1,#0x2C,#0x00	; 2928973
   7DC8 38 BD 2C 00        3034 	.byte #0x38,#0xBD,#0x2C,#0x00	; 2932024
   7DCC 7A C6 2C 00        3035 	.byte #0x7A,#0xC6,#0x2C,#0x00	; 2934394
   7DD0 0F CA 2C 00        3036 	.byte #0x0F,#0xCA,#0x2C,#0x00	; 2935311
   7DD4 E5 D2 2C 00        3037 	.byte #0xE5,#0xD2,#0x2C,#0x00	; 2937573
   7DD8 90 DE 2C 00        3038 	.byte #0x90,#0xDE,#0x2C,#0x00	; 2940560
   7DDC 31 E3 2C 00        3039 	.byte #0x31,#0xE3,#0x2C,#0x00	; 2941745
   7DE0 44 EF 2C 00        3040 	.byte #0x44,#0xEF,#0x2C,#0x00	; 2944836
   7DE4 AE F7 2C 00        3041 	.byte #0xAE,#0xF7,#0x2C,#0x00	; 2946990
   7DE8 DB FB 2C 00        3042 	.byte #0xDB,#0xFB,#0x2C,#0x00	; 2948059
   7DEC 4C 02 2D 00        3043 	.byte #0x4C,#0x02,#0x2D,#0x00	; 2949708
   7DF0 39 0E 2D 00        3044 	.byte #0x39,#0x0E,#0x2D,#0x00	; 2952761
   7DF4 D3 16 2D 00        3045 	.byte #0xD3,#0x16,#0x2D,#0x00	; 2954963
   7DF8 A6 1A 2D 00        3046 	.byte #0xA6,#0x1A,#0x2D,#0x00	; 2955942
   7DFC 07 27 2D 00        3047 	.byte #0x07,#0x27,#0x2D,#0x00	; 2959111
   7E00 72 2B 2D 00        3048 	.byte #0x72,#0x2B,#0x2D,#0x00	; 2960242
   7E04 98 33 2D 00        3049 	.byte #0x98,#0x33,#0x2D,#0x00	; 2962328
   7E08 ED 3F 2D 00        3050 	.byte #0xED,#0x3F,#0x2D,#0x00	; 2965485
   7E0C AF 44 2D 00        3051 	.byte #0xAF,#0x44,#0x2D,#0x00	; 2966703
   7E10 DA 48 2D 00        3052 	.byte #0xDA,#0x48,#0x2D,#0x00	; 2967770
   7E14 30 50 2D 00        3053 	.byte #0x30,#0x50,#0x2D,#0x00	; 2969648
   7E18 45 5C 2D 00        3054 	.byte #0x45,#0x5C,#0x2D,#0x00	; 2972741
   7E1C E4 61 2D 00        3055 	.byte #0xE4,#0x61,#0x2D,#0x00	; 2974180
   7E20 91 6D 2D 00        3056 	.byte #0x91,#0x6D,#0x2D,#0x00	; 2977169
   7E24 7B 75 2D 00        3057 	.byte #0x7B,#0x75,#0x2D,#0x00	; 2979195
   7E28 0E 79 2D 00        3058 	.byte #0x0E,#0x79,#0x2D,#0x00	; 2980110
   7E2C FF 83 2D 00        3059 	.byte #0xFF,#0x83,#0x2D,#0x00	; 2982911
   7E30 8A 8F 2D 00        3060 	.byte #0x8A,#0x8F,#0x2D,#0x00	; 2985866
   7E34 60 97 2D 00        3061 	.byte #0x60,#0x97,#0x2D,#0x00	; 2987872
   7E38 15 9B 2D 00        3062 	.byte #0x15,#0x9B,#0x2D,#0x00	; 2988821
   7E3C B4 A6 2D 00        3063 	.byte #0xB4,#0xA6,#0x2D,#0x00	; 2991796
   7E40 C1 AA 2D 00        3064 	.byte #0xC1,#0xAA,#0x2D,#0x00	; 2992833
   7E44 2B B2 2D 00        3065 	.byte #0x2B,#0xB2,#0x2D,#0x00	; 2994731
   7E48 5E BE 2D 00        3066 	.byte #0x5E,#0xBE,#0x2D,#0x00	; 2997854
   7E4C 1C C5 2D 00        3067 	.byte #0x1C,#0xC5,#0x2D,#0x00	; 2999580
   7E50 69 C9 2D 00        3068 	.byte #0x69,#0xC9,#0x2D,#0x00	; 3000681
   7E54 83 D1 2D 00        3069 	.byte #0x83,#0xD1,#0x2D,#0x00	; 3002755
   7E58 F6 DD 2D 00        3070 	.byte #0xF6,#0xDD,#0x2D,#0x00	; 3005942
   7E5C 57 E0 2D 00        3071 	.byte #0x57,#0xE0,#0x2D,#0x00	; 3006551
   7E60 22 EC 2D 00        3072 	.byte #0x22,#0xEC,#0x2D,#0x00	; 3009570
   7E64 C8 F4 2D 00        3073 	.byte #0xC8,#0xF4,#0x2D,#0x00	; 3011784
   7E68 BD F8 2D 00        3074 	.byte #0xBD,#0xF8,#0x2D,#0x00	; 3012797
   7E6C E6 07 2E 00        3075 	.byte #0xE6,#0x07,#0x2E,#0x00	; 3016678
   7E70 93 0B 2E 00        3076 	.byte #0x93,#0x0B,#0x2E,#0x00	; 3017619
   7E74 79 13 2E 00        3077 	.byte #0x79,#0x13,#0x2E,#0x00	; 3019641
   7E78 0C 1F 2E 00        3078 	.byte #0x0C,#0x1F,#0x2E,#0x00	; 3022604
   7E7C AD 22 2E 00        3079 	.byte #0xAD,#0x22,#0x2E,#0x00	; 3023533
   7E80 D8 2E 2E 00        3080 	.byte #0xD8,#0x2E,#0x2E,#0x00	; 3026648
   7E84 32 36 2E 00        3081 	.byte #0x32,#0x36,#0x2E,#0x00	; 3028530
   7E88 47 3A 2E 00        3082 	.byte #0x47,#0x3A,#0x2E,#0x00	; 3029575
   7E8C 05 41 2E 00        3083 	.byte #0x05,#0x41,#0x2E,#0x00	; 3031301
   7E90 70 4D 2E 00        3084 	.byte #0x70,#0x4D,#0x2E,#0x00	; 3034480
   7E94 9A 55 2E 00        3085 	.byte #0x9A,#0x55,#0x2E,#0x00	; 3036570
   7E98 EF 59 2E 00        3086 	.byte #0xEF,#0x59,#0x2E,#0x00	; 3037679
   7E9C 4E 64 2E 00        3087 	.byte #0x4E,#0x64,#0x2E,#0x00	; 3040334
   7EA0 3B 68 2E 00        3088 	.byte #0x3B,#0x68,#0x2E,#0x00	; 3041339
   7EA4 D1 70 2E 00        3089 	.byte #0xD1,#0x70,#0x2E,#0x00	; 3043537
   7EA8 A4 7C 2E 00        3090 	.byte #0xA4,#0x7C,#0x2E,#0x00	; 3046564
   7EAC 55 86 2E 00        3091 	.byte #0x55,#0x86,#0x2E,#0x00	; 3049045
   7EB0 20 8A 2E 00        3092 	.byte #0x20,#0x8A,#0x2E,#0x00	; 3050016
   7EB4 CA 92 2E 00        3093 	.byte #0xCA,#0x92,#0x2E,#0x00	; 3052234
   7EB8 BF 9E 2E 00        3094 	.byte #0xBF,#0x9E,#0x2E,#0x00	; 3055295
   7EBC 1E A3 2E 00        3095 	.byte #0x1E,#0xA3,#0x2E,#0x00	; 3056414
   7EC0 6B AF 2E 00        3096 	.byte #0x6B,#0xAF,#0x2E,#0x00	; 3059563
   7EC4 81 B7 2E 00        3097 	.byte #0x81,#0xB7,#0x2E,#0x00	; 3061633
   7EC8 F4 BB 2E 00        3098 	.byte #0xF4,#0xBB,#0x2E,#0x00	; 3062772
   7ECC B6 C0 2E 00        3099 	.byte #0xB6,#0xC0,#0x2E,#0x00	; 3063990
   7ED0 C3 CC 2E 00        3100 	.byte #0xC3,#0xCC,#0x2E,#0x00	; 3067075
   7ED4 29 D4 2E 00        3101 	.byte #0x29,#0xD4,#0x2E,#0x00	; 3068969
   7ED8 5C D8 2E 00        3102 	.byte #0x5C,#0xD8,#0x2E,#0x00	; 3070044
   7EDC FD E5 2E 00        3103 	.byte #0xFD,#0xE5,#0x2E,#0x00	; 3073533
   7EE0 88 E9 2E 00        3104 	.byte #0x88,#0xE9,#0x2E,#0x00	; 3074440
   7EE4 62 F1 2E 00        3105 	.byte #0x62,#0xF1,#0x2E,#0x00	; 3076450
   7EE8 17 FD 2E 00        3106 	.byte #0x17,#0xFD,#0x2E,#0x00	; 3079447
   7EEC 80 04 2F 00        3107 	.byte #0x80,#0x04,#0x2F,#0x00	; 3081344
   7EF0 F5 08 2F 00        3108 	.byte #0xF5,#0x08,#0x2F,#0x00	; 3082485
   7EF4 1F 10 2F 00        3109 	.byte #0x1F,#0x10,#0x2F,#0x00	; 3084319
   7EF8 6A 1C 2F 00        3110 	.byte #0x6A,#0x1C,#0x2F,#0x00	; 3087466
   7EFC CB 21 2F 00        3111 	.byte #0xCB,#0x21,#0x2F,#0x00	; 3088843
   7F00 BE 2D 2F 00        3112 	.byte #0xBE,#0x2D,#0x2F,#0x00	; 3091902
   7F04 54 35 2F 00        3113 	.byte #0x54,#0x35,#0x2F,#0x00	; 3093844
   7F08 21 39 2F 00        3114 	.byte #0x21,#0x39,#0x2F,#0x00	; 3094817
   7F0C 63 42 2F 00        3115 	.byte #0x63,#0x42,#0x2F,#0x00	; 3097187
   7F10 16 4E 2F 00        3116 	.byte #0x16,#0x4E,#0x2F,#0x00	; 3100182
   7F14 FC 56 2F 00        3117 	.byte #0xFC,#0x56,#0x2F,#0x00	; 3102460
   7F18 89 5A 2F 00        3118 	.byte #0x89,#0x5A,#0x2F,#0x00	; 3103369
   7F1C 28 67 2F 00        3119 	.byte #0x28,#0x67,#0x2F,#0x00	; 3106600
   7F20 5D 6B 2F 00        3120 	.byte #0x5D,#0x6B,#0x2F,#0x00	; 3107677
   7F24 B7 73 2F 00        3121 	.byte #0xB7,#0x73,#0x2F,#0x00	; 3109815
   7F28 C2 7F 2F 00        3122 	.byte #0xC2,#0x7F,#0x2F,#0x00	; 3112898
   7F2C 33 85 2F 00        3123 	.byte #0x33,#0x85,#0x2F,#0x00	; 3114291
   7F30 46 89 2F 00        3124 	.byte #0x46,#0x89,#0x2F,#0x00	; 3115334
   7F34 AC 91 2F 00        3125 	.byte #0xAC,#0x91,#0x2F,#0x00	; 3117484
   7F38 D9 9D 2F 00        3126 	.byte #0xD9,#0x9D,#0x2F,#0x00	; 3120601
   7F3C 78 A0 2F 00        3127 	.byte #0x78,#0xA0,#0x2F,#0x00	; 3121272
   7F40 0D AC 2F 00        3128 	.byte #0x0D,#0xAC,#0x2F,#0x00	; 3124237
   7F44 E7 B4 2F 00        3129 	.byte #0xE7,#0xB4,#0x2F,#0x00	; 3126503
   7F48 92 B8 2F 00        3130 	.byte #0x92,#0xB8,#0x2F,#0x00	; 3127442
   7F4C D0 C3 2F 00        3131 	.byte #0xD0,#0xC3,#0x2F,#0x00	; 3130320
   7F50 A5 CF 2F 00        3132 	.byte #0xA5,#0xCF,#0x2F,#0x00	; 3133349
   7F54 4F D7 2F 00        3133 	.byte #0x4F,#0xD7,#0x2F,#0x00	; 3135311
   7F58 3A DB 2F 00        3134 	.byte #0x3A,#0xDB,#0x2F,#0x00	; 3136314
   7F5C 9B E6 2F 00        3135 	.byte #0x9B,#0xE6,#0x2F,#0x00	; 3139227
   7F60 EE EA 2F 00        3136 	.byte #0xEE,#0xEA,#0x2F,#0x00	; 3140334
   7F64 04 F2 2F 00        3137 	.byte #0x04,#0xF2,#0x2F,#0x00	; 3142148
   7F68 71 FE 2F 00        3138 	.byte #0x71,#0xFE,#0x2F,#0x00	; 3145329
   7F6C A9 04 30 00        3139 	.byte #0xA9,#0x04,#0x30,#0x00	; 3146921
   7F70 DC 08 30 00        3140 	.byte #0xDC,#0x08,#0x30,#0x00	; 3147996
   7F74 36 10 30 00        3141 	.byte #0x36,#0x10,#0x30,#0x00	; 3149878
   7F78 43 1C 30 00        3142 	.byte #0x43,#0x1C,#0x30,#0x00	; 3152963
   7F7C E2 21 30 00        3143 	.byte #0xE2,#0x21,#0x30,#0x00	; 3154402
   7F80 97 2D 30 00        3144 	.byte #0x97,#0x2D,#0x30,#0x00	; 3157399
   7F84 7D 35 30 00        3145 	.byte #0x7D,#0x35,#0x30,#0x00	; 3159421
   7F88 08 39 30 00        3146 	.byte #0x08,#0x39,#0x30,#0x00	; 3160328
   7F8C 4A 42 30 00        3147 	.byte #0x4A,#0x42,#0x30,#0x00	; 3162698
   7F90 3F 4E 30 00        3148 	.byte #0x3F,#0x4E,#0x30,#0x00	; 3165759
   7F94 D5 56 30 00        3149 	.byte #0xD5,#0x56,#0x30,#0x00	; 3167957
   7F98 A0 5A 30 00        3150 	.byte #0xA0,#0x5A,#0x30,#0x00	; 3168928
   7F9C 01 67 30 00        3151 	.byte #0x01,#0x67,#0x30,#0x00	; 3172097
   7FA0 74 6B 30 00        3152 	.byte #0x74,#0x6B,#0x30,#0x00	; 3173236
   7FA4 9E 73 30 00        3153 	.byte #0x9E,#0x73,#0x30,#0x00	; 3175326
   7FA8 EB 7F 30 00        3154 	.byte #0xEB,#0x7F,#0x30,#0x00	; 3178475
   7FAC 1A 85 30 00        3155 	.byte #0x1A,#0x85,#0x30,#0x00	; 3179802
   7FB0 6F 89 30 00        3156 	.byte #0x6F,#0x89,#0x30,#0x00	; 3180911
   7FB4 85 91 30 00        3157 	.byte #0x85,#0x91,#0x30,#0x00	; 3182981
   7FB8 F0 9D 30 00        3158 	.byte #0xF0,#0x9D,#0x30,#0x00	; 3186160
   7FBC 51 A0 30 00        3159 	.byte #0x51,#0xA0,#0x30,#0x00	; 3186769
   7FC0 24 AC 30 00        3160 	.byte #0x24,#0xAC,#0x30,#0x00	; 3189796
   7FC4 CE B4 30 00        3161 	.byte #0xCE,#0xB4,#0x30,#0x00	; 3192014
   7FC8 BB B8 30 00        3162 	.byte #0xBB,#0xB8,#0x30,#0x00	; 3193019
   7FCC F9 C3 30 00        3163 	.byte #0xF9,#0xC3,#0x30,#0x00	; 3195897
   7FD0 8C CF 30 00        3164 	.byte #0x8C,#0xCF,#0x30,#0x00	; 3198860
   7FD4 66 D7 30 00        3165 	.byte #0x66,#0xD7,#0x30,#0x00	; 3200870
   7FD8 13 DB 30 00        3166 	.byte #0x13,#0xDB,#0x30,#0x00	; 3201811
   7FDC B2 E6 30 00        3167 	.byte #0xB2,#0xE6,#0x30,#0x00	; 3204786
   7FE0 C7 EA 30 00        3168 	.byte #0xC7,#0xEA,#0x30,#0x00	; 3205831
   7FE4 2D F2 30 00        3169 	.byte #0x2D,#0xF2,#0x30,#0x00	; 3207725
   7FE8 58 FE 30 00        3170 	.byte #0x58,#0xFE,#0x30,#0x00	; 3210840
   7FEC CF 07 31 00        3171 	.byte #0xCF,#0x07,#0x31,#0x00	; 3213263
   7FF0 BA 0B 31 00        3172 	.byte #0xBA,#0x0B,#0x31,#0x00	; 3214266
   7FF4 50 13 31 00        3173 	.byte #0x50,#0x13,#0x31,#0x00	; 3216208
   7FF8 25 1F 31 00        3174 	.byte #0x25,#0x1F,#0x31,#0x00	; 3219237
   7FFC 84 22 31 00        3175 	.byte #0x84,#0x22,#0x31,#0x00	; 3220100
   8000 F1 2E 31 00        3176 	.byte #0xF1,#0x2E,#0x31,#0x00	; 3223281
   8004 1B 36 31 00        3177 	.byte #0x1B,#0x36,#0x31,#0x00	; 3225115
   8008 6E 3A 31 00        3178 	.byte #0x6E,#0x3A,#0x31,#0x00	; 3226222
   800C 2C 41 31 00        3179 	.byte #0x2C,#0x41,#0x31,#0x00	; 3227948
   8010 59 4D 31 00        3180 	.byte #0x59,#0x4D,#0x31,#0x00	; 3231065
   8014 B3 55 31 00        3181 	.byte #0xB3,#0x55,#0x31,#0x00	; 3233203
   8018 C6 59 31 00        3182 	.byte #0xC6,#0x59,#0x31,#0x00	; 3234246
   801C 67 64 31 00        3183 	.byte #0x67,#0x64,#0x31,#0x00	; 3236967
   8020 12 68 31 00        3184 	.byte #0x12,#0x68,#0x31,#0x00	; 3237906
   8024 F8 70 31 00        3185 	.byte #0xF8,#0x70,#0x31,#0x00	; 3240184
   8028 8D 7C 31 00        3186 	.byte #0x8D,#0x7C,#0x31,#0x00	; 3243149
   802C 7C 86 31 00        3187 	.byte #0x7C,#0x86,#0x31,#0x00	; 3245692
   8030 09 8A 31 00        3188 	.byte #0x09,#0x8A,#0x31,#0x00	; 3246601
   8034 E3 92 31 00        3189 	.byte #0xE3,#0x92,#0x31,#0x00	; 3248867
   8038 96 9E 31 00        3190 	.byte #0x96,#0x9E,#0x31,#0x00	; 3251862
   803C 37 A3 31 00        3191 	.byte #0x37,#0xA3,#0x31,#0x00	; 3253047
   8040 42 AF 31 00        3192 	.byte #0x42,#0xAF,#0x31,#0x00	; 3256130
   8044 A8 B7 31 00        3193 	.byte #0xA8,#0xB7,#0x31,#0x00	; 3258280
   8048 DD BB 31 00        3194 	.byte #0xDD,#0xBB,#0x31,#0x00	; 3259357
   804C 9F C0 31 00        3195 	.byte #0x9F,#0xC0,#0x31,#0x00	; 3260575
   8050 EA CC 31 00        3196 	.byte #0xEA,#0xCC,#0x31,#0x00	; 3263722
   8054 00 D4 31 00        3197 	.byte #0x00,#0xD4,#0x31,#0x00	; 3265536
   8058 75 D8 31 00        3198 	.byte #0x75,#0xD8,#0x31,#0x00	; 3266677
   805C D4 E5 31 00        3199 	.byte #0xD4,#0xE5,#0x31,#0x00	; 3270100
   8060 A1 E9 31 00        3200 	.byte #0xA1,#0xE9,#0x31,#0x00	; 3271073
   8064 4B F1 31 00        3201 	.byte #0x4B,#0xF1,#0x31,#0x00	; 3273035
   8068 3E FD 31 00        3202 	.byte #0x3E,#0xFD,#0x31,#0x00	; 3276094
   806C 65 02 32 00        3203 	.byte #0x65,#0x02,#0x32,#0x00	; 3277413
   8070 10 0E 32 00        3204 	.byte #0x10,#0x0E,#0x32,#0x00	; 3280400
   8074 FA 16 32 00        3205 	.byte #0xFA,#0x16,#0x32,#0x00	; 3282682
   8078 8F 1A 32 00        3206 	.byte #0x8F,#0x1A,#0x32,#0x00	; 3283599
   807C 2E 27 32 00        3207 	.byte #0x2E,#0x27,#0x32,#0x00	; 3286830
   8080 5B 2B 32 00        3208 	.byte #0x5B,#0x2B,#0x32,#0x00	; 3287899
   8084 B1 33 32 00        3209 	.byte #0xB1,#0x33,#0x32,#0x00	; 3290033
   8088 C4 3F 32 00        3210 	.byte #0xC4,#0x3F,#0x32,#0x00	; 3293124
   808C 86 44 32 00        3211 	.byte #0x86,#0x44,#0x32,#0x00	; 3294342
   8090 F3 48 32 00        3212 	.byte #0xF3,#0x48,#0x32,#0x00	; 3295475
   8094 19 50 32 00        3213 	.byte #0x19,#0x50,#0x32,#0x00	; 3297305
   8098 6C 5C 32 00        3214 	.byte #0x6C,#0x5C,#0x32,#0x00	; 3300460
   809C CD 61 32 00        3215 	.byte #0xCD,#0x61,#0x32,#0x00	; 3301837
   80A0 B8 6D 32 00        3216 	.byte #0xB8,#0x6D,#0x32,#0x00	; 3304888
   80A4 52 75 32 00        3217 	.byte #0x52,#0x75,#0x32,#0x00	; 3306834
   80A8 27 79 32 00        3218 	.byte #0x27,#0x79,#0x32,#0x00	; 3307815
   80AC D6 83 32 00        3219 	.byte #0xD6,#0x83,#0x32,#0x00	; 3310550
   80B0 A3 8F 32 00        3220 	.byte #0xA3,#0x8F,#0x32,#0x00	; 3313571
   80B4 49 97 32 00        3221 	.byte #0x49,#0x97,#0x32,#0x00	; 3315529
   80B8 3C 9B 32 00        3222 	.byte #0x3C,#0x9B,#0x32,#0x00	; 3316540
   80BC 9D A6 32 00        3223 	.byte #0x9D,#0xA6,#0x32,#0x00	; 3319453
   80C0 E8 AA 32 00        3224 	.byte #0xE8,#0xAA,#0x32,#0x00	; 3320552
   80C4 02 B2 32 00        3225 	.byte #0x02,#0xB2,#0x32,#0x00	; 3322370
   80C8 77 BE 32 00        3226 	.byte #0x77,#0xBE,#0x32,#0x00	; 3325559
   80CC 35 C5 32 00        3227 	.byte #0x35,#0xC5,#0x32,#0x00	; 3327285
   80D0 40 C9 32 00        3228 	.byte #0x40,#0xC9,#0x32,#0x00	; 3328320
   80D4 AA D1 32 00        3229 	.byte #0xAA,#0xD1,#0x32,#0x00	; 3330474
   80D8 DF DD 32 00        3230 	.byte #0xDF,#0xDD,#0x32,#0x00	; 3333599
   80DC 7E E0 32 00        3231 	.byte #0x7E,#0xE0,#0x32,#0x00	; 3334270
   80E0 0B EC 32 00        3232 	.byte #0x0B,#0xEC,#0x32,#0x00	; 3337227
   80E4 E1 F4 32 00        3233 	.byte #0xE1,#0xF4,#0x32,#0x00	; 3339489
   80E8 94 F8 32 00        3234 	.byte #0x94,#0xF8,#0x32,#0x00	; 3340436
   80EC 03 01 33 00        3235 	.byte #0x03,#0x01,#0x33,#0x00	; 3342595
   80F0 76 0D 33 00        3236 	.byte #0x76,#0x0D,#0x33,#0x00	; 3345782
   80F4 9C 15 33 00        3237 	.byte #0x9C,#0x15,#0x33,#0x00	; 3347868
   80F8 E9 19 33 00        3238 	.byte #0xE9,#0x19,#0x33,#0x00	; 3348969
   80FC 48 24 33 00        3239 	.byte #0x48,#0x24,#0x33,#0x00	; 3351624
   8100 3D 28 33 00        3240 	.byte #0x3D,#0x28,#0x33,#0x00	; 3352637
   8104 D7 30 33 00        3241 	.byte #0xD7,#0x30,#0x33,#0x00	; 3354839
   8108 A2 3C 33 00        3242 	.byte #0xA2,#0x3C,#0x33,#0x00	; 3357858
   810C E0 47 33 00        3243 	.byte #0xE0,#0x47,#0x33,#0x00	; 3360736
   8110 95 4B 33 00        3244 	.byte #0x95,#0x4B,#0x33,#0x00	; 3361685
   8114 7F 53 33 00        3245 	.byte #0x7F,#0x53,#0x33,#0x00	; 3363711
   8118 0A 5F 33 00        3246 	.byte #0x0A,#0x5F,#0x33,#0x00	; 3366666
   811C AB 62 33 00        3247 	.byte #0xAB,#0x62,#0x33,#0x00	; 3367595
   8120 DE 6E 33 00        3248 	.byte #0xDE,#0x6E,#0x33,#0x00	; 3370718
   8124 34 76 33 00        3249 	.byte #0x34,#0x76,#0x33,#0x00	; 3372596
   8128 41 7A 33 00        3250 	.byte #0x41,#0x7A,#0x33,#0x00	; 3373633
   812C B0 80 33 00        3251 	.byte #0xB0,#0x80,#0x33,#0x00	; 3375280
   8130 C5 8C 33 00        3252 	.byte #0xC5,#0x8C,#0x33,#0x00	; 3378373
   8134 2F 94 33 00        3253 	.byte #0x2F,#0x94,#0x33,#0x00	; 3380271
   8138 5A 98 33 00        3254 	.byte #0x5A,#0x98,#0x33,#0x00	; 3381338
   813C FB A5 33 00        3255 	.byte #0xFB,#0xA5,#0x33,#0x00	; 3384827
   8140 8E A9 33 00        3256 	.byte #0x8E,#0xA9,#0x33,#0x00	; 3385742
   8144 64 B1 33 00        3257 	.byte #0x64,#0xB1,#0x33,#0x00	; 3387748
   8148 11 BD 33 00        3258 	.byte #0x11,#0xBD,#0x33,#0x00	; 3390737
   814C 53 C6 33 00        3259 	.byte #0x53,#0xC6,#0x33,#0x00	; 3393107
   8150 26 CA 33 00        3260 	.byte #0x26,#0xCA,#0x33,#0x00	; 3394086
   8154 CC D2 33 00        3261 	.byte #0xCC,#0xD2,#0x33,#0x00	; 3396300
   8158 B9 DE 33 00        3262 	.byte #0xB9,#0xDE,#0x33,#0x00	; 3399353
   815C 18 E3 33 00        3263 	.byte #0x18,#0xE3,#0x33,#0x00	; 3400472
   8160 6D EF 33 00        3264 	.byte #0x6D,#0xEF,#0x33,#0x00	; 3403629
   8164 87 F7 33 00        3265 	.byte #0x87,#0xF7,#0x33,#0x00	; 3405703
   8168 F2 FB 33 00        3266 	.byte #0xF2,#0xFB,#0x33,#0x00	; 3406834
   816C 44 05 34 00        3267 	.byte #0x44,#0x05,#0x34,#0x00	; 3409220
   8170 31 09 34 00        3268 	.byte #0x31,#0x09,#0x34,#0x00	; 3410225
   8174 DB 11 34 00        3269 	.byte #0xDB,#0x11,#0x34,#0x00	; 3412443
   8178 AE 1D 34 00        3270 	.byte #0xAE,#0x1D,#0x34,#0x00	; 3415470
   817C 0F 20 34 00        3271 	.byte #0x0F,#0x20,#0x34,#0x00	; 3416079
   8180 7A 2C 34 00        3272 	.byte #0x7A,#0x2C,#0x34,#0x00	; 3419258
   8184 90 34 34 00        3273 	.byte #0x90,#0x34,#0x34,#0x00	; 3421328
   8188 E5 38 34 00        3274 	.byte #0xE5,#0x38,#0x34,#0x00	; 3422437
   818C A7 43 34 00        3275 	.byte #0xA7,#0x43,#0x34,#0x00	; 3425191
   8190 D2 4F 34 00        3276 	.byte #0xD2,#0x4F,#0x34,#0x00	; 3428306
   8194 38 57 34 00        3277 	.byte #0x38,#0x57,#0x34,#0x00	; 3430200
   8198 4D 5B 34 00        3278 	.byte #0x4D,#0x5B,#0x34,#0x00	; 3431245
   819C EC 66 34 00        3279 	.byte #0xEC,#0x66,#0x34,#0x00	; 3434220
   81A0 99 6A 34 00        3280 	.byte #0x99,#0x6A,#0x34,#0x00	; 3435161
   81A4 73 72 34 00        3281 	.byte #0x73,#0x72,#0x34,#0x00	; 3437171
   81A8 06 7E 34 00        3282 	.byte #0x06,#0x7E,#0x34,#0x00	; 3440134
   81AC F7 84 34 00        3283 	.byte #0xF7,#0x84,#0x34,#0x00	; 3441911
   81B0 82 88 34 00        3284 	.byte #0x82,#0x88,#0x34,#0x00	; 3442818
   81B4 68 90 34 00        3285 	.byte #0x68,#0x90,#0x34,#0x00	; 3444840
   81B8 1D 9C 34 00        3286 	.byte #0x1D,#0x9C,#0x34,#0x00	; 3447837
   81BC BC A1 34 00        3287 	.byte #0xBC,#0xA1,#0x34,#0x00	; 3449276
   81C0 C9 AD 34 00        3288 	.byte #0xC9,#0xAD,#0x34,#0x00	; 3452361
   81C4 23 B5 34 00        3289 	.byte #0x23,#0xB5,#0x34,#0x00	; 3454243
   81C8 56 B9 34 00        3290 	.byte #0x56,#0xB9,#0x34,#0x00	; 3455318
   81CC 14 C2 34 00        3291 	.byte #0x14,#0xC2,#0x34,#0x00	; 3457556
   81D0 61 CE 34 00        3292 	.byte #0x61,#0xCE,#0x34,#0x00	; 3460705
   81D4 8B D6 34 00        3293 	.byte #0x8B,#0xD6,#0x34,#0x00	; 3462795
   81D8 FE DA 34 00        3294 	.byte #0xFE,#0xDA,#0x34,#0x00	; 3463934
   81DC 5F E7 34 00        3295 	.byte #0x5F,#0xE7,#0x34,#0x00	; 3467103
   81E0 2A EB 34 00        3296 	.byte #0x2A,#0xEB,#0x34,#0x00	; 3468074
   81E4 C0 F3 34 00        3297 	.byte #0xC0,#0xF3,#0x34,#0x00	; 3470272
   81E8 B5 FF 34 00        3298 	.byte #0xB5,#0xFF,#0x34,#0x00	; 3473333
   81EC 22 06 35 00        3299 	.byte #0x22,#0x06,#0x35,#0x00	; 3474978
   81F0 57 0A 35 00        3300 	.byte #0x57,#0x0A,#0x35,#0x00	; 3476055
   81F4 BD 12 35 00        3301 	.byte #0xBD,#0x12,#0x35,#0x00	; 3478205
   81F8 C8 1E 35 00        3302 	.byte #0xC8,#0x1E,#0x35,#0x00	; 3481288
   81FC 69 23 35 00        3303 	.byte #0x69,#0x23,#0x35,#0x00	; 3482473
   8200 1C 2F 35 00        3304 	.byte #0x1C,#0x2F,#0x35,#0x00	; 3485468
   8204 F6 37 35 00        3305 	.byte #0xF6,#0x37,#0x35,#0x00	; 3487734
   8208 83 3B 35 00        3306 	.byte #0x83,#0x3B,#0x35,#0x00	; 3488643
   820C C1 40 35 00        3307 	.byte #0xC1,#0x40,#0x35,#0x00	; 3489985
   8210 B4 4C 35 00        3308 	.byte #0xB4,#0x4C,#0x35,#0x00	; 3493044
   8214 5E 54 35 00        3309 	.byte #0x5E,#0x54,#0x35,#0x00	; 3495006
   8218 2B 58 35 00        3310 	.byte #0x2B,#0x58,#0x35,#0x00	; 3495979
   821C 8A 65 35 00        3311 	.byte #0x8A,#0x65,#0x35,#0x00	; 3499402
   8220 FF 69 35 00        3312 	.byte #0xFF,#0x69,#0x35,#0x00	; 3500543
   8224 15 71 35 00        3313 	.byte #0x15,#0x71,#0x35,#0x00	; 3502357
   8228 60 7D 35 00        3314 	.byte #0x60,#0x7D,#0x35,#0x00	; 3505504
   822C 91 87 35 00        3315 	.byte #0x91,#0x87,#0x35,#0x00	; 3508113
   8230 E4 8B 35 00        3316 	.byte #0xE4,#0x8B,#0x35,#0x00	; 3509220
   8234 0E 93 35 00        3317 	.byte #0x0E,#0x93,#0x35,#0x00	; 3511054
   8238 7B 9F 35 00        3318 	.byte #0x7B,#0x9F,#0x35,#0x00	; 3514235
   823C DA A2 35 00        3319 	.byte #0xDA,#0xA2,#0x35,#0x00	; 3515098
   8240 AF AE 35 00        3320 	.byte #0xAF,#0xAE,#0x35,#0x00	; 3518127
   8244 45 B6 35 00        3321 	.byte #0x45,#0xB6,#0x35,#0x00	; 3520069
   8248 30 BA 35 00        3322 	.byte #0x30,#0xBA,#0x35,#0x00	; 3521072
   824C 72 C1 35 00        3323 	.byte #0x72,#0xC1,#0x35,#0x00	; 3522930
   8250 07 CD 35 00        3324 	.byte #0x07,#0xCD,#0x35,#0x00	; 3525895
   8254 ED D5 35 00        3325 	.byte #0xED,#0xD5,#0x35,#0x00	; 3528173
   8258 98 D9 35 00        3326 	.byte #0x98,#0xD9,#0x35,#0x00	; 3529112
   825C 39 E4 35 00        3327 	.byte #0x39,#0xE4,#0x35,#0x00	; 3531833
   8260 4C E8 35 00        3328 	.byte #0x4C,#0xE8,#0x35,#0x00	; 3532876
   8264 A6 F0 35 00        3329 	.byte #0xA6,#0xF0,#0x35,#0x00	; 3535014
   8268 D3 FC 35 00        3330 	.byte #0xD3,#0xFC,#0x35,#0x00	; 3538131
   826C 88 03 36 00        3331 	.byte #0x88,#0x03,#0x36,#0x00	; 3539848
   8270 FD 0F 36 00        3332 	.byte #0xFD,#0x0F,#0x36,#0x00	; 3543037
   8274 17 17 36 00        3333 	.byte #0x17,#0x17,#0x36,#0x00	; 3544855
   8278 62 1B 36 00        3334 	.byte #0x62,#0x1B,#0x36,#0x00	; 3545954
   827C C3 26 36 00        3335 	.byte #0xC3,#0x26,#0x36,#0x00	; 3548867
   8280 B6 2A 36 00        3336 	.byte #0xB6,#0x2A,#0x36,#0x00	; 3549878
   8284 5C 32 36 00        3337 	.byte #0x5C,#0x32,#0x36,#0x00	; 3551836
   8288 29 3E 36 00        3338 	.byte #0x29,#0x3E,#0x36,#0x00	; 3554857
   828C 6B 45 36 00        3339 	.byte #0x6B,#0x45,#0x36,#0x00	; 3556715
   8290 1E 49 36 00        3340 	.byte #0x1E,#0x49,#0x36,#0x00	; 3557662
   8294 F4 51 36 00        3341 	.byte #0xF4,#0x51,#0x36,#0x00	; 3559924
   8298 81 5D 36 00        3342 	.byte #0x81,#0x5D,#0x36,#0x00	; 3562881
   829C 20 60 36 00        3343 	.byte #0x20,#0x60,#0x36,#0x00	; 3563552
   82A0 55 6C 36 00        3344 	.byte #0x55,#0x6C,#0x36,#0x00	; 3566677
   82A4 BF 74 36 00        3345 	.byte #0xBF,#0x74,#0x36,#0x00	; 3568831
   82A8 CA 78 36 00        3346 	.byte #0xCA,#0x78,#0x36,#0x00	; 3569866
   82AC 3B 82 36 00        3347 	.byte #0x3B,#0x82,#0x36,#0x00	; 3572283
   82B0 4E 8E 36 00        3348 	.byte #0x4E,#0x8E,#0x36,#0x00	; 3575374
   82B4 A4 96 36 00        3349 	.byte #0xA4,#0x96,#0x36,#0x00	; 3577508
   82B8 D1 9A 36 00        3350 	.byte #0xD1,#0x9A,#0x36,#0x00	; 3578577
   82BC 70 A7 36 00        3351 	.byte #0x70,#0xA7,#0x36,#0x00	; 3581808
   82C0 05 AB 36 00        3352 	.byte #0x05,#0xAB,#0x36,#0x00	; 3582725
   82C4 EF B3 36 00        3353 	.byte #0xEF,#0xB3,#0x36,#0x00	; 3585007
   82C8 9A BF 36 00        3354 	.byte #0x9A,#0xBF,#0x36,#0x00	; 3587994
   82CC D8 C4 36 00        3355 	.byte #0xD8,#0xC4,#0x36,#0x00	; 3589336
   82D0 AD C8 36 00        3356 	.byte #0xAD,#0xC8,#0x36,#0x00	; 3590317
   82D4 47 D0 36 00        3357 	.byte #0x47,#0xD0,#0x36,#0x00	; 3592263
   82D8 32 DC 36 00        3358 	.byte #0x32,#0xDC,#0x36,#0x00	; 3595314
   82DC 93 E1 36 00        3359 	.byte #0x93,#0xE1,#0x36,#0x00	; 3596691
   82E0 E6 ED 36 00        3360 	.byte #0xE6,#0xED,#0x36,#0x00	; 3599846
   82E4 0C F5 36 00        3361 	.byte #0x0C,#0xF5,#0x36,#0x00	; 3601676
   82E8 79 F9 36 00        3362 	.byte #0x79,#0xF9,#0x36,#0x00	; 3602809
   82EC EE 00 37 00        3363 	.byte #0xEE,#0x00,#0x37,#0x00	; 3604718
   82F0 9B 0C 37 00        3364 	.byte #0x9B,#0x0C,#0x37,#0x00	; 3607707
   82F4 71 14 37 00        3365 	.byte #0x71,#0x14,#0x37,#0x00	; 3609713
   82F8 04 18 37 00        3366 	.byte #0x04,#0x18,#0x37,#0x00	; 3610628
   82FC A5 25 37 00        3367 	.byte #0xA5,#0x25,#0x37,#0x00	; 3614117
   8300 D0 29 37 00        3368 	.byte #0xD0,#0x29,#0x37,#0x00	; 3615184
   8304 3A 31 37 00        3369 	.byte #0x3A,#0x31,#0x37,#0x00	; 3617082
   8308 4F 3D 37 00        3370 	.byte #0x4F,#0x3D,#0x37,#0x00	; 3620175
   830C 0D 46 37 00        3371 	.byte #0x0D,#0x46,#0x37,#0x00	; 3622413
   8310 78 4A 37 00        3372 	.byte #0x78,#0x4A,#0x37,#0x00	; 3623544
   8314 92 52 37 00        3373 	.byte #0x92,#0x52,#0x37,#0x00	; 3625618
   8318 E7 5E 37 00        3374 	.byte #0xE7,#0x5E,#0x37,#0x00	; 3628775
   831C 46 63 37 00        3375 	.byte #0x46,#0x63,#0x37,#0x00	; 3629894
   8320 33 6F 37 00        3376 	.byte #0x33,#0x6F,#0x37,#0x00	; 3632947
   8324 D9 77 37 00        3377 	.byte #0xD9,#0x77,#0x37,#0x00	; 3635161
   8328 AC 7B 37 00        3378 	.byte #0xAC,#0x7B,#0x37,#0x00	; 3636140
   832C 5D 81 37 00        3379 	.byte #0x5D,#0x81,#0x37,#0x00	; 3637597
   8330 28 8D 37 00        3380 	.byte #0x28,#0x8D,#0x37,#0x00	; 3640616
   8334 C2 95 37 00        3381 	.byte #0xC2,#0x95,#0x37,#0x00	; 3642818
   8338 B7 99 37 00        3382 	.byte #0xB7,#0x99,#0x37,#0x00	; 3643831
   833C 16 A4 37 00        3383 	.byte #0x16,#0xA4,#0x37,#0x00	; 3646486
   8340 63 A8 37 00        3384 	.byte #0x63,#0xA8,#0x37,#0x00	; 3647587
   8344 89 B0 37 00        3385 	.byte #0x89,#0xB0,#0x37,#0x00	; 3649673
   8348 FC BC 37 00        3386 	.byte #0xFC,#0xBC,#0x37,#0x00	; 3652860
   834C BE C7 37 00        3387 	.byte #0xBE,#0xC7,#0x37,#0x00	; 3655614
   8350 CB CB 37 00        3388 	.byte #0xCB,#0xCB,#0x37,#0x00	; 3656651
   8354 21 D3 37 00        3389 	.byte #0x21,#0xD3,#0x37,#0x00	; 3658529
   8358 54 DF 37 00        3390 	.byte #0x54,#0xDF,#0x37,#0x00	; 3661652
   835C F5 E2 37 00        3391 	.byte #0xF5,#0xE2,#0x37,#0x00	; 3662581
   8360 80 EE 37 00        3392 	.byte #0x80,#0xEE,#0x37,#0x00	; 3665536
   8364 6A F6 37 00        3393 	.byte #0x6A,#0xF6,#0x37,#0x00	; 3667562
   8368 1F FA 37 00        3394 	.byte #0x1F,#0xFA,#0x37,#0x00	; 3668511
   836C 73 07 38 00        3395 	.byte #0x73,#0x07,#0x38,#0x00	; 3671923
   8370 06 0B 38 00        3396 	.byte #0x06,#0x0B,#0x38,#0x00	; 3672838
   8374 EC 13 38 00        3397 	.byte #0xEC,#0x13,#0x38,#0x00	; 3675116
   8378 99 1F 38 00        3398 	.byte #0x99,#0x1F,#0x38,#0x00	; 3678105
   837C 38 22 38 00        3399 	.byte #0x38,#0x22,#0x38,#0x00	; 3678776
   8380 4D 2E 38 00        3400 	.byte #0x4D,#0x2E,#0x38,#0x00	; 3681869
   8384 A7 36 38 00        3401 	.byte #0xA7,#0x36,#0x38,#0x00	; 3684007
   8388 D2 3A 38 00        3402 	.byte #0xD2,#0x3A,#0x38,#0x00	; 3685074
   838C 90 41 38 00        3403 	.byte #0x90,#0x41,#0x38,#0x00	; 3686800
   8390 E5 4D 38 00        3404 	.byte #0xE5,#0x4D,#0x38,#0x00	; 3689957
   8394 0F 55 38 00        3405 	.byte #0x0F,#0x55,#0x38,#0x00	; 3691791
   8398 7A 59 38 00        3406 	.byte #0x7A,#0x59,#0x38,#0x00	; 3692922
   839C DB 64 38 00        3407 	.byte #0xDB,#0x64,#0x38,#0x00	; 3695835
   83A0 AE 68 38 00        3408 	.byte #0xAE,#0x68,#0x38,#0x00	; 3696814
   83A4 44 70 38 00        3409 	.byte #0x44,#0x70,#0x38,#0x00	; 3698756
   83A8 31 7C 38 00        3410 	.byte #0x31,#0x7C,#0x38,#0x00	; 3701809
   83AC C0 86 38 00        3411 	.byte #0xC0,#0x86,#0x38,#0x00	; 3704512
   83B0 B5 8A 38 00        3412 	.byte #0xB5,#0x8A,#0x38,#0x00	; 3705525
   83B4 5F 92 38 00        3413 	.byte #0x5F,#0x92,#0x38,#0x00	; 3707487
   83B8 2A 9E 38 00        3414 	.byte #0x2A,#0x9E,#0x38,#0x00	; 3710506
   83BC 8B A3 38 00        3415 	.byte #0x8B,#0xA3,#0x38,#0x00	; 3711883
   83C0 FE AF 38 00        3416 	.byte #0xFE,#0xAF,#0x38,#0x00	; 3715070
   83C4 14 B7 38 00        3417 	.byte #0x14,#0xB7,#0x38,#0x00	; 3716884
   83C8 61 BB 38 00        3418 	.byte #0x61,#0xBB,#0x38,#0x00	; 3717985
   83CC 23 C0 38 00        3419 	.byte #0x23,#0xC0,#0x38,#0x00	; 3719203
   83D0 56 CC 38 00        3420 	.byte #0x56,#0xCC,#0x38,#0x00	; 3722326
   83D4 BC D4 38 00        3421 	.byte #0xBC,#0xD4,#0x38,#0x00	; 3724476
   83D8 C9 D8 38 00        3422 	.byte #0xC9,#0xD8,#0x38,#0x00	; 3725513
   83DC 68 E5 38 00        3423 	.byte #0x68,#0xE5,#0x38,#0x00	; 3728744
   83E0 1D E9 38 00        3424 	.byte #0x1D,#0xE9,#0x38,#0x00	; 3729693
   83E4 F7 F1 38 00        3425 	.byte #0xF7,#0xF1,#0x38,#0x00	; 3731959
   83E8 82 FD 38 00        3426 	.byte #0x82,#0xFD,#0x38,#0x00	; 3734914
   83EC 15 04 39 00        3427 	.byte #0x15,#0x04,#0x39,#0x00	; 3736597
   83F0 60 08 39 00        3428 	.byte #0x60,#0x08,#0x39,#0x00	; 3737696
   83F4 8A 10 39 00        3429 	.byte #0x8A,#0x10,#0x39,#0x00	; 3739786
   83F8 FF 1C 39 00        3430 	.byte #0xFF,#0x1C,#0x39,#0x00	; 3742975
   83FC 5E 21 39 00        3431 	.byte #0x5E,#0x21,#0x39,#0x00	; 3744094
   8400 2B 2D 39 00        3432 	.byte #0x2B,#0x2D,#0x39,#0x00	; 3747115
   8404 C1 35 39 00        3433 	.byte #0xC1,#0x35,#0x39,#0x00	; 3749313
   8408 B4 39 39 00        3434 	.byte #0xB4,#0x39,#0x39,#0x00	; 3750324
   840C F6 42 39 00        3435 	.byte #0xF6,#0x42,#0x39,#0x00	; 3752694
   8410 83 4E 39 00        3436 	.byte #0x83,#0x4E,#0x39,#0x00	; 3755651
   8414 69 56 39 00        3437 	.byte #0x69,#0x56,#0x39,#0x00	; 3757673
   8418 1C 5A 39 00        3438 	.byte #0x1C,#0x5A,#0x39,#0x00	; 3758620
   841C BD 67 39 00        3439 	.byte #0xBD,#0x67,#0x39,#0x00	; 3762109
   8420 C8 6B 39 00        3440 	.byte #0xC8,#0x6B,#0x39,#0x00	; 3763144
   8424 22 73 39 00        3441 	.byte #0x22,#0x73,#0x39,#0x00	; 3765026
   8428 57 7F 39 00        3442 	.byte #0x57,#0x7F,#0x39,#0x00	; 3768151
   842C A6 85 39 00        3443 	.byte #0xA6,#0x85,#0x39,#0x00	; 3769766
   8430 D3 89 39 00        3444 	.byte #0xD3,#0x89,#0x39,#0x00	; 3770835
   8434 39 91 39 00        3445 	.byte #0x39,#0x91,#0x39,#0x00	; 3772729
   8438 4C 9D 39 00        3446 	.byte #0x4C,#0x9D,#0x39,#0x00	; 3775820
   843C ED A0 39 00        3447 	.byte #0xED,#0xA0,#0x39,#0x00	; 3776749
   8440 98 AC 39 00        3448 	.byte #0x98,#0xAC,#0x39,#0x00	; 3779736
   8444 72 B4 39 00        3449 	.byte #0x72,#0xB4,#0x39,#0x00	; 3781746
   8448 07 B8 39 00        3450 	.byte #0x07,#0xB8,#0x39,#0x00	; 3782663
   844C 45 C3 39 00        3451 	.byte #0x45,#0xC3,#0x39,#0x00	; 3785541
   8450 30 CF 39 00        3452 	.byte #0x30,#0xCF,#0x39,#0x00	; 3788592
   8454 DA D7 39 00        3453 	.byte #0xDA,#0xD7,#0x39,#0x00	; 3790810
   8458 AF DB 39 00        3454 	.byte #0xAF,#0xDB,#0x39,#0x00	; 3791791
   845C 0E E6 39 00        3455 	.byte #0x0E,#0xE6,#0x39,#0x00	; 3794446
   8460 7B EA 39 00        3456 	.byte #0x7B,#0xEA,#0x39,#0x00	; 3795579
   8464 91 F2 39 00        3457 	.byte #0x91,#0xF2,#0x39,#0x00	; 3797649
   8468 E4 FE 39 00        3458 	.byte #0xE4,#0xFE,#0x39,#0x00	; 3800804
   846C BF 01 3A 00        3459 	.byte #0xBF,#0x01,#0x3A,#0x00	; 3801535
   8470 CA 0D 3A 00        3460 	.byte #0xCA,#0x0D,#0x3A,#0x00	; 3804618
   8474 20 15 3A 00        3461 	.byte #0x20,#0x15,#0x3A,#0x00	; 3806496
   8478 55 19 3A 00        3462 	.byte #0x55,#0x19,#0x3A,#0x00	; 3807573
   847C F4 24 3A 00        3463 	.byte #0xF4,#0x24,#0x3A,#0x00	; 3810548
   8480 81 28 3A 00        3464 	.byte #0x81,#0x28,#0x3A,#0x00	; 3811457
   8484 6B 30 3A 00        3465 	.byte #0x6B,#0x30,#0x3A,#0x00	; 3813483
   8488 1E 3C 3A 00        3466 	.byte #0x1E,#0x3C,#0x3A,#0x00	; 3816478
   848C 5C 47 3A 00        3467 	.byte #0x5C,#0x47,#0x3A,#0x00	; 3819356
   8490 29 4B 3A 00        3468 	.byte #0x29,#0x4B,#0x3A,#0x00	; 3820329
   8494 C3 53 3A 00        3469 	.byte #0xC3,#0x53,#0x3A,#0x00	; 3822531
   8498 B6 5F 3A 00        3470 	.byte #0xB6,#0x5F,#0x3A,#0x00	; 3825590
   849C 17 62 3A 00        3471 	.byte #0x17,#0x62,#0x3A,#0x00	; 3826199
   84A0 62 6E 3A 00        3472 	.byte #0x62,#0x6E,#0x3A,#0x00	; 3829346
   84A4 88 76 3A 00        3473 	.byte #0x88,#0x76,#0x3A,#0x00	; 3831432
   84A8 FD 7A 3A 00        3474 	.byte #0xFD,#0x7A,#0x3A,#0x00	; 3832573
   84AC 0C 80 3A 00        3475 	.byte #0x0C,#0x80,#0x3A,#0x00	; 3833868
   84B0 79 8C 3A 00        3476 	.byte #0x79,#0x8C,#0x3A,#0x00	; 3837049
   84B4 93 94 3A 00        3477 	.byte #0x93,#0x94,#0x3A,#0x00	; 3839123
   84B8 E6 98 3A 00        3478 	.byte #0xE6,#0x98,#0x3A,#0x00	; 3840230
   84BC 47 A5 3A 00        3479 	.byte #0x47,#0xA5,#0x3A,#0x00	; 3843399
   84C0 32 A9 3A 00        3480 	.byte #0x32,#0xA9,#0x3A,#0x00	; 3844402
   84C4 D8 B1 3A 00        3481 	.byte #0xD8,#0xB1,#0x3A,#0x00	; 3846616
   84C8 AD BD 3A 00        3482 	.byte #0xAD,#0xBD,#0x3A,#0x00	; 3849645
   84CC EF C6 3A 00        3483 	.byte #0xEF,#0xC6,#0x3A,#0x00	; 3852015
   84D0 9A CA 3A 00        3484 	.byte #0x9A,#0xCA,#0x3A,#0x00	; 3852954
   84D4 70 D2 3A 00        3485 	.byte #0x70,#0xD2,#0x3A,#0x00	; 3854960
   84D8 05 DE 3A 00        3486 	.byte #0x05,#0xDE,#0x3A,#0x00	; 3857925
   84DC A4 E3 3A 00        3487 	.byte #0xA4,#0xE3,#0x3A,#0x00	; 3859364
   84E0 D1 EF 3A 00        3488 	.byte #0xD1,#0xEF,#0x3A,#0x00	; 3862481
   84E4 3B F7 3A 00        3489 	.byte #0x3B,#0xF7,#0x3A,#0x00	; 3864379
   84E8 4E FB 3A 00        3490 	.byte #0x4E,#0xFB,#0x3A,#0x00	; 3865422
   84EC D9 02 3B 00        3491 	.byte #0xD9,#0x02,#0x3B,#0x00	; 3867353
   84F0 AC 0E 3B 00        3492 	.byte #0xAC,#0x0E,#0x3B,#0x00	; 3870380
   84F4 46 16 3B 00        3493 	.byte #0x46,#0x16,#0x3B,#0x00	; 3872326
   84F8 33 1A 3B 00        3494 	.byte #0x33,#0x1A,#0x3B,#0x00	; 3873331
   84FC 92 27 3B 00        3495 	.byte #0x92,#0x27,#0x3B,#0x00	; 3876754
   8500 E7 2B 3B 00        3496 	.byte #0xE7,#0x2B,#0x3B,#0x00	; 3877863
   8504 0D 33 3B 00        3497 	.byte #0x0D,#0x33,#0x3B,#0x00	; 3879693
   8508 78 3F 3B 00        3498 	.byte #0x78,#0x3F,#0x3B,#0x00	; 3882872
   850C 3A 44 3B 00        3499 	.byte #0x3A,#0x44,#0x3B,#0x00	; 3884090
   8510 4F 48 3B 00        3500 	.byte #0x4F,#0x48,#0x3B,#0x00	; 3885135
   8514 A5 50 3B 00        3501 	.byte #0xA5,#0x50,#0x3B,#0x00	; 3887269
   8518 D0 5C 3B 00        3502 	.byte #0xD0,#0x5C,#0x3B,#0x00	; 3890384
   851C 71 61 3B 00        3503 	.byte #0x71,#0x61,#0x3B,#0x00	; 3891569
   8520 04 6D 3B 00        3504 	.byte #0x04,#0x6D,#0x3B,#0x00	; 3894532
   8524 EE 75 3B 00        3505 	.byte #0xEE,#0x75,#0x3B,#0x00	; 3896814
   8528 9B 79 3B 00        3506 	.byte #0x9B,#0x79,#0x3B,#0x00	; 3897755
   852C 6A 83 3B 00        3507 	.byte #0x6A,#0x83,#0x3B,#0x00	; 3900266
   8530 1F 8F 3B 00        3508 	.byte #0x1F,#0x8F,#0x3B,#0x00	; 3903263
   8534 F5 97 3B 00        3509 	.byte #0xF5,#0x97,#0x3B,#0x00	; 3905525
   8538 80 9B 3B 00        3510 	.byte #0x80,#0x9B,#0x3B,#0x00	; 3906432
   853C 21 A6 3B 00        3511 	.byte #0x21,#0xA6,#0x3B,#0x00	; 3909153
   8540 54 AA 3B 00        3512 	.byte #0x54,#0xAA,#0x3B,#0x00	; 3910228
   8544 BE B2 3B 00        3513 	.byte #0xBE,#0xB2,#0x3B,#0x00	; 3912382
   8548 CB BE 3B 00        3514 	.byte #0xCB,#0xBE,#0x3B,#0x00	; 3915467
   854C 89 C5 3B 00        3515 	.byte #0x89,#0xC5,#0x3B,#0x00	; 3917193
   8550 FC C9 3B 00        3516 	.byte #0xFC,#0xC9,#0x3B,#0x00	; 3918332
   8554 16 D1 3B 00        3517 	.byte #0x16,#0xD1,#0x3B,#0x00	; 3920150
   8558 63 DD 3B 00        3518 	.byte #0x63,#0xDD,#0x3B,#0x00	; 3923299
   855C C2 E0 3B 00        3519 	.byte #0xC2,#0xE0,#0x3B,#0x00	; 3924162
   8560 B7 EC 3B 00        3520 	.byte #0xB7,#0xEC,#0x3B,#0x00	; 3927223
   8564 5D F4 3B 00        3521 	.byte #0x5D,#0xF4,#0x3B,#0x00	; 3929181
   8568 28 F8 3B 00        3522 	.byte #0x28,#0xF8,#0x3B,#0x00	; 3930152
   856C 9E 06 3C 00        3523 	.byte #0x9E,#0x06,#0x3C,#0x00	; 3933854
   8570 EB 0A 3C 00        3524 	.byte #0xEB,#0x0A,#0x3C,#0x00	; 3934955
   8574 01 12 3C 00        3525 	.byte #0x01,#0x12,#0x3C,#0x00	; 3936769
   8578 74 1E 3C 00        3526 	.byte #0x74,#0x1E,#0x3C,#0x00	; 3939956
   857C D5 23 3C 00        3527 	.byte #0xD5,#0x23,#0x3C,#0x00	; 3941333
   8580 A0 2F 3C 00        3528 	.byte #0xA0,#0x2F,#0x3C,#0x00	; 3944352
   8584 4A 37 3C 00        3529 	.byte #0x4A,#0x37,#0x3C,#0x00	; 3946314
   8588 3F 3B 3C 00        3530 	.byte #0x3F,#0x3B,#0x3C,#0x00	; 3947327
   858C 7D 40 3C 00        3531 	.byte #0x7D,#0x40,#0x3C,#0x00	; 3948669
   8590 08 4C 3C 00        3532 	.byte #0x08,#0x4C,#0x3C,#0x00	; 3951624
   8594 E2 54 3C 00        3533 	.byte #0xE2,#0x54,#0x3C,#0x00	; 3953890
   8598 97 58 3C 00        3534 	.byte #0x97,#0x58,#0x3C,#0x00	; 3954839
   859C 36 65 3C 00        3535 	.byte #0x36,#0x65,#0x3C,#0x00	; 3958070
   85A0 43 69 3C 00        3536 	.byte #0x43,#0x69,#0x3C,#0x00	; 3959107
   85A4 A9 71 3C 00        3537 	.byte #0xA9,#0x71,#0x3C,#0x00	; 3961257
   85A8 DC 7D 3C 00        3538 	.byte #0xDC,#0x7D,#0x3C,#0x00	; 3964380
   85AC 2D 87 3C 00        3539 	.byte #0x2D,#0x87,#0x3C,#0x00	; 3966765
   85B0 58 8B 3C 00        3540 	.byte #0x58,#0x8B,#0x3C,#0x00	; 3967832
   85B4 B2 93 3C 00        3541 	.byte #0xB2,#0x93,#0x3C,#0x00	; 3969970
   85B8 C7 9F 3C 00        3542 	.byte #0xC7,#0x9F,#0x3C,#0x00	; 3973063
   85BC 66 A2 3C 00        3543 	.byte #0x66,#0xA2,#0x3C,#0x00	; 3973734
   85C0 13 AE 3C 00        3544 	.byte #0x13,#0xAE,#0x3C,#0x00	; 3976723
   85C4 F9 B6 3C 00        3545 	.byte #0xF9,#0xB6,#0x3C,#0x00	; 3979001
   85C8 8C BA 3C 00        3546 	.byte #0x8C,#0xBA,#0x3C,#0x00	; 3979916
   85CC CE C1 3C 00        3547 	.byte #0xCE,#0xC1,#0x3C,#0x00	; 3981774
   85D0 BB CD 3C 00        3548 	.byte #0xBB,#0xCD,#0x3C,#0x00	; 3984827
   85D4 51 D5 3C 00        3549 	.byte #0x51,#0xD5,#0x3C,#0x00	; 3986769
   85D8 24 D9 3C 00        3550 	.byte #0x24,#0xD9,#0x3C,#0x00	; 3987748
   85DC 85 E4 3C 00        3551 	.byte #0x85,#0xE4,#0x3C,#0x00	; 3990661
   85E0 F0 E8 3C 00        3552 	.byte #0xF0,#0xE8,#0x3C,#0x00	; 3991792
   85E4 1A F0 3C 00        3553 	.byte #0x1A,#0xF0,#0x3C,#0x00	; 3993626
   85E8 6F FC 3C 00        3554 	.byte #0x6F,#0xFC,#0x3C,#0x00	; 3996783
   85EC F8 05 3D 00        3555 	.byte #0xF8,#0x05,#0x3D,#0x00	; 3999224
   85F0 8D 09 3D 00        3556 	.byte #0x8D,#0x09,#0x3D,#0x00	; 4000141
   85F4 67 11 3D 00        3557 	.byte #0x67,#0x11,#0x3D,#0x00	; 4002151
   85F8 12 1D 3D 00        3558 	.byte #0x12,#0x1D,#0x3D,#0x00	; 4005138
   85FC B3 20 3D 00        3559 	.byte #0xB3,#0x20,#0x3D,#0x00	; 4006067
   8600 C6 2C 3D 00        3560 	.byte #0xC6,#0x2C,#0x3D,#0x00	; 4009158
   8604 2C 34 3D 00        3561 	.byte #0x2C,#0x34,#0x3D,#0x00	; 4011052
   8608 59 38 3D 00        3562 	.byte #0x59,#0x38,#0x3D,#0x00	; 4012121
   860C 1B 43 3D 00        3563 	.byte #0x1B,#0x43,#0x3D,#0x00	; 4014875
   8610 6E 4F 3D 00        3564 	.byte #0x6E,#0x4F,#0x3D,#0x00	; 4018030
   8614 84 57 3D 00        3565 	.byte #0x84,#0x57,#0x3D,#0x00	; 4020100
   8618 F1 5B 3D 00        3566 	.byte #0xF1,#0x5B,#0x3D,#0x00	; 4021233
   861C 50 66 3D 00        3567 	.byte #0x50,#0x66,#0x3D,#0x00	; 4023888
   8620 25 6A 3D 00        3568 	.byte #0x25,#0x6A,#0x3D,#0x00	; 4024869
   8624 CF 72 3D 00        3569 	.byte #0xCF,#0x72,#0x3D,#0x00	; 4027087
   8628 BA 7E 3D 00        3570 	.byte #0xBA,#0x7E,#0x3D,#0x00	; 4030138
   862C 4B 84 3D 00        3571 	.byte #0x4B,#0x84,#0x3D,#0x00	; 4031563
   8630 3E 88 3D 00        3572 	.byte #0x3E,#0x88,#0x3D,#0x00	; 4032574
   8634 D4 90 3D 00        3573 	.byte #0xD4,#0x90,#0x3D,#0x00	; 4034772
   8638 A1 9C 3D 00        3574 	.byte #0xA1,#0x9C,#0x3D,#0x00	; 4037793
   863C 00 A1 3D 00        3575 	.byte #0x00,#0xA1,#0x3D,#0x00	; 4038912
   8640 75 AD 3D 00        3576 	.byte #0x75,#0xAD,#0x3D,#0x00	; 4042101
   8644 9F B5 3D 00        3577 	.byte #0x9F,#0xB5,#0x3D,#0x00	; 4044191
   8648 EA B9 3D 00        3578 	.byte #0xEA,#0xB9,#0x3D,#0x00	; 4045290
   864C A8 C2 3D 00        3579 	.byte #0xA8,#0xC2,#0x3D,#0x00	; 4047528
   8650 DD CE 3D 00        3580 	.byte #0xDD,#0xCE,#0x3D,#0x00	; 4050653
   8654 37 D6 3D 00        3581 	.byte #0x37,#0xD6,#0x3D,#0x00	; 4052535
   8658 42 DA 3D 00        3582 	.byte #0x42,#0xDA,#0x3D,#0x00	; 4053570
   865C E3 E7 3D 00        3583 	.byte #0xE3,#0xE7,#0x3D,#0x00	; 4057059
   8660 96 EB 3D 00        3584 	.byte #0x96,#0xEB,#0x3D,#0x00	; 4058006
   8664 7C F3 3D 00        3585 	.byte #0x7C,#0xF3,#0x3D,#0x00	; 4060028
   8668 09 FF 3D 00        3586 	.byte #0x09,#0xFF,#0x3D,#0x00	; 4062985
   866C 52 00 3E 00        3587 	.byte #0x52,#0x00,#0x3E,#0x00	; 4063314
   8670 27 0C 3E 00        3588 	.byte #0x27,#0x0C,#0x3E,#0x00	; 4066343
   8674 CD 14 3E 00        3589 	.byte #0xCD,#0x14,#0x3E,#0x00	; 4068557
   8678 B8 18 3E 00        3590 	.byte #0xB8,#0x18,#0x3E,#0x00	; 4069560
   867C 19 25 3E 00        3591 	.byte #0x19,#0x25,#0x3E,#0x00	; 4072729
   8680 6C 29 3E 00        3592 	.byte #0x6C,#0x29,#0x3E,#0x00	; 4073836
   8684 86 31 3E 00        3593 	.byte #0x86,#0x31,#0x3E,#0x00	; 4075910
   8688 F3 3D 3E 00        3594 	.byte #0xF3,#0x3D,#0x3E,#0x00	; 4079091
   868C B1 46 3E 00        3595 	.byte #0xB1,#0x46,#0x3E,#0x00	; 4081329
   8690 C4 4A 3E 00        3596 	.byte #0xC4,#0x4A,#0x3E,#0x00	; 4082372
   8694 2E 52 3E 00        3597 	.byte #0x2E,#0x52,#0x3E,#0x00	; 4084270
   8698 5B 5E 3E 00        3598 	.byte #0x5B,#0x5E,#0x3E,#0x00	; 4087387
   869C FA 63 3E 00        3599 	.byte #0xFA,#0x63,#0x3E,#0x00	; 4088826
   86A0 8F 6F 3E 00        3600 	.byte #0x8F,#0x6F,#0x3E,#0x00	; 4091791
   86A4 65 77 3E 00        3601 	.byte #0x65,#0x77,#0x3E,#0x00	; 4093797
   86A8 10 7B 3E 00        3602 	.byte #0x10,#0x7B,#0x3E,#0x00	; 4094736
   86AC E1 81 3E 00        3603 	.byte #0xE1,#0x81,#0x3E,#0x00	; 4096481
   86B0 94 8D 3E 00        3604 	.byte #0x94,#0x8D,#0x3E,#0x00	; 4099476
   86B4 7E 95 3E 00        3605 	.byte #0x7E,#0x95,#0x3E,#0x00	; 4101502
   86B8 0B 99 3E 00        3606 	.byte #0x0B,#0x99,#0x3E,#0x00	; 4102411
   86BC AA A4 3E 00        3607 	.byte #0xAA,#0xA4,#0x3E,#0x00	; 4105386
   86C0 DF A8 3E 00        3608 	.byte #0xDF,#0xA8,#0x3E,#0x00	; 4106463
   86C4 35 B0 3E 00        3609 	.byte #0x35,#0xB0,#0x3E,#0x00	; 4108341
   86C8 40 BC 3E 00        3610 	.byte #0x40,#0xBC,#0x3E,#0x00	; 4111424
   86CC 02 C7 3E 00        3611 	.byte #0x02,#0xC7,#0x3E,#0x00	; 4114178
   86D0 77 CB 3E 00        3612 	.byte #0x77,#0xCB,#0x3E,#0x00	; 4115319
   86D4 9D D3 3E 00        3613 	.byte #0x9D,#0xD3,#0x3E,#0x00	; 4117405
   86D8 E8 DF 3E 00        3614 	.byte #0xE8,#0xDF,#0x3E,#0x00	; 4120552
   86DC 49 E2 3E 00        3615 	.byte #0x49,#0xE2,#0x3E,#0x00	; 4121161
   86E0 3C EE 3E 00        3616 	.byte #0x3C,#0xEE,#0x3E,#0x00	; 4124220
   86E4 D6 F6 3E 00        3617 	.byte #0xD6,#0xF6,#0x3E,#0x00	; 4126422
   86E8 A3 FA 3E 00        3618 	.byte #0xA3,#0xFA,#0x3E,#0x00	; 4127395
   86EC 34 03 3F 00        3619 	.byte #0x34,#0x03,#0x3F,#0x00	; 4129588
   86F0 41 0F 3F 00        3620 	.byte #0x41,#0x0F,#0x3F,#0x00	; 4132673
   86F4 AB 17 3F 00        3621 	.byte #0xAB,#0x17,#0x3F,#0x00	; 4134827
   86F8 DE 1B 3F 00        3622 	.byte #0xDE,#0x1B,#0x3F,#0x00	; 4135902
   86FC 7F 26 3F 00        3623 	.byte #0x7F,#0x26,#0x3F,#0x00	; 4138623
   8700 0A 2A 3F 00        3624 	.byte #0x0A,#0x2A,#0x3F,#0x00	; 4139530
   8704 E0 32 3F 00        3625 	.byte #0xE0,#0x32,#0x3F,#0x00	; 4141792
   8708 95 3E 3F 00        3626 	.byte #0x95,#0x3E,#0x3F,#0x00	; 4144789
   870C D7 45 3F 00        3627 	.byte #0xD7,#0x45,#0x3F,#0x00	; 4146647
   8710 A2 49 3F 00        3628 	.byte #0xA2,#0x49,#0x3F,#0x00	; 4147618
   8714 48 51 3F 00        3629 	.byte #0x48,#0x51,#0x3F,#0x00	; 4149576
   8718 3D 5D 3F 00        3630 	.byte #0x3D,#0x5D,#0x3F,#0x00	; 4152637
   871C 9C 60 3F 00        3631 	.byte #0x9C,#0x60,#0x3F,#0x00	; 4153500
   8720 E9 6C 3F 00        3632 	.byte #0xE9,#0x6C,#0x3F,#0x00	; 4156649
   8724 03 74 3F 00        3633 	.byte #0x03,#0x74,#0x3F,#0x00	; 4158467
   8728 76 78 3F 00        3634 	.byte #0x76,#0x78,#0x3F,#0x00	; 4159606
   872C 87 82 3F 00        3635 	.byte #0x87,#0x82,#0x3F,#0x00	; 4162183
   8730 F2 8E 3F 00        3636 	.byte #0xF2,#0x8E,#0x3F,#0x00	; 4165362
   8734 18 96 3F 00        3637 	.byte #0x18,#0x96,#0x3F,#0x00	; 4167192
   8738 6D 9A 3F 00        3638 	.byte #0x6D,#0x9A,#0x3F,#0x00	; 4168301
   873C CC A7 3F 00        3639 	.byte #0xCC,#0xA7,#0x3F,#0x00	; 4171724
   8740 B9 AB 3F 00        3640 	.byte #0xB9,#0xAB,#0x3F,#0x00	; 4172729
   8744 53 B3 3F 00        3641 	.byte #0x53,#0xB3,#0x3F,#0x00	; 4174675
   8748 26 BF 3F 00        3642 	.byte #0x26,#0xBF,#0x3F,#0x00	; 4177702
   874C 64 C4 3F 00        3643 	.byte #0x64,#0xC4,#0x3F,#0x00	; 4179044
   8750 11 C8 3F 00        3644 	.byte #0x11,#0xC8,#0x3F,#0x00	; 4179985
   8754 FB D0 3F 00        3645 	.byte #0xFB,#0xD0,#0x3F,#0x00	; 4182267
   8758 8E DC 3F 00        3646 	.byte #0x8E,#0xDC,#0x3F,#0x00	; 4185230
   875C 2F E1 3F 00        3647 	.byte #0x2F,#0xE1,#0x3F,#0x00	; 4186415
   8760 5A ED 3F 00        3648 	.byte #0x5A,#0xED,#0x3F,#0x00	; 4189530
   8764 B0 F5 3F 00        3649 	.byte #0xB0,#0xF5,#0x3F,#0x00	; 4191664
   8768 C5 F9 3F 00        3650 	.byte #0xC5,#0xF9,#0x3F,#0x00	; 4192709
   876C 3A 06 40 00        3651 	.byte #0x3A,#0x06,#0x40,#0x00	; 4195898
   8770 4F 0A 40 00        3652 	.byte #0x4F,#0x0A,#0x40,#0x00	; 4196943
   8774 A5 12 40 00        3653 	.byte #0xA5,#0x12,#0x40,#0x00	; 4199077
   8778 D0 1E 40 00        3654 	.byte #0xD0,#0x1E,#0x40,#0x00	; 4202192
   877C 71 23 40 00        3655 	.byte #0x71,#0x23,#0x40,#0x00	; 4203377
   8780 04 2F 40 00        3656 	.byte #0x04,#0x2F,#0x40,#0x00	; 4206340
   8784 EE 37 40 00        3657 	.byte #0xEE,#0x37,#0x40,#0x00	; 4208622
   8788 9B 3B 40 00        3658 	.byte #0x9B,#0x3B,#0x40,#0x00	; 4209563
   878C D9 40 40 00        3659 	.byte #0xD9,#0x40,#0x40,#0x00	; 4210905
   8790 AC 4C 40 00        3660 	.byte #0xAC,#0x4C,#0x40,#0x00	; 4213932
   8794 46 54 40 00        3661 	.byte #0x46,#0x54,#0x40,#0x00	; 4215878
   8798 33 58 40 00        3662 	.byte #0x33,#0x58,#0x40,#0x00	; 4216883
   879C 92 65 40 00        3663 	.byte #0x92,#0x65,#0x40,#0x00	; 4220306
   87A0 E7 69 40 00        3664 	.byte #0xE7,#0x69,#0x40,#0x00	; 4221415
   87A4 0D 71 40 00        3665 	.byte #0x0D,#0x71,#0x40,#0x00	; 4223245
   87A8 78 7D 40 00        3666 	.byte #0x78,#0x7D,#0x40,#0x00	; 4226424
   87AC 89 87 40 00        3667 	.byte #0x89,#0x87,#0x40,#0x00	; 4229001
   87B0 FC 8B 40 00        3668 	.byte #0xFC,#0x8B,#0x40,#0x00	; 4230140
   87B4 16 93 40 00        3669 	.byte #0x16,#0x93,#0x40,#0x00	; 4231958
   87B8 63 9F 40 00        3670 	.byte #0x63,#0x9F,#0x40,#0x00	; 4235107
   87BC C2 A2 40 00        3671 	.byte #0xC2,#0xA2,#0x40,#0x00	; 4235970
   87C0 B7 AE 40 00        3672 	.byte #0xB7,#0xAE,#0x40,#0x00	; 4239031
   87C4 5D B6 40 00        3673 	.byte #0x5D,#0xB6,#0x40,#0x00	; 4240989
   87C8 28 BA 40 00        3674 	.byte #0x28,#0xBA,#0x40,#0x00	; 4241960
   87CC 6A C1 40 00        3675 	.byte #0x6A,#0xC1,#0x40,#0x00	; 4243818
   87D0 1F CD 40 00        3676 	.byte #0x1F,#0xCD,#0x40,#0x00	; 4246815
   87D4 F5 D5 40 00        3677 	.byte #0xF5,#0xD5,#0x40,#0x00	; 4249077
   87D8 80 D9 40 00        3678 	.byte #0x80,#0xD9,#0x40,#0x00	; 4249984
   87DC 21 E4 40 00        3679 	.byte #0x21,#0xE4,#0x40,#0x00	; 4252705
   87E0 54 E8 40 00        3680 	.byte #0x54,#0xE8,#0x40,#0x00	; 4253780
   87E4 BE F0 40 00        3681 	.byte #0xBE,#0xF0,#0x40,#0x00	; 4255934
   87E8 CB FC 40 00        3682 	.byte #0xCB,#0xFC,#0x40,#0x00	; 4259019
   87EC 5C 05 41 00        3683 	.byte #0x5C,#0x05,#0x41,#0x00	; 4261212
   87F0 29 09 41 00        3684 	.byte #0x29,#0x09,#0x41,#0x00	; 4262185
   87F4 C3 11 41 00        3685 	.byte #0xC3,#0x11,#0x41,#0x00	; 4264387
   87F8 B6 1D 41 00        3686 	.byte #0xB6,#0x1D,#0x41,#0x00	; 4267446
   87FC 17 20 41 00        3687 	.byte #0x17,#0x20,#0x41,#0x00	; 4268055
   8800 62 2C 41 00        3688 	.byte #0x62,#0x2C,#0x41,#0x00	; 4271202
   8804 88 34 41 00        3689 	.byte #0x88,#0x34,#0x41,#0x00	; 4273288
   8808 FD 38 41 00        3690 	.byte #0xFD,#0x38,#0x41,#0x00	; 4274429
   880C BF 43 41 00        3691 	.byte #0xBF,#0x43,#0x41,#0x00	; 4277183
   8810 CA 4F 41 00        3692 	.byte #0xCA,#0x4F,#0x41,#0x00	; 4280266
   8814 20 57 41 00        3693 	.byte #0x20,#0x57,#0x41,#0x00	; 4282144
   8818 55 5B 41 00        3694 	.byte #0x55,#0x5B,#0x41,#0x00	; 4283221
   881C F4 66 41 00        3695 	.byte #0xF4,#0x66,#0x41,#0x00	; 4286196
   8820 81 6A 41 00        3696 	.byte #0x81,#0x6A,#0x41,#0x00	; 4287105
   8824 6B 72 41 00        3697 	.byte #0x6B,#0x72,#0x41,#0x00	; 4289131
   8828 1E 7E 41 00        3698 	.byte #0x1E,#0x7E,#0x41,#0x00	; 4292126
   882C EF 84 41 00        3699 	.byte #0xEF,#0x84,#0x41,#0x00	; 4293871
   8830 9A 88 41 00        3700 	.byte #0x9A,#0x88,#0x41,#0x00	; 4294810
   8834 70 90 41 00        3701 	.byte #0x70,#0x90,#0x41,#0x00	; 4296816
   8838 05 9C 41 00        3702 	.byte #0x05,#0x9C,#0x41,#0x00	; 4299781
   883C A4 A1 41 00        3703 	.byte #0xA4,#0xA1,#0x41,#0x00	; 4301220
   8840 D1 AD 41 00        3704 	.byte #0xD1,#0xAD,#0x41,#0x00	; 4304337
   8844 3B B5 41 00        3705 	.byte #0x3B,#0xB5,#0x41,#0x00	; 4306235
   8848 4E B9 41 00        3706 	.byte #0x4E,#0xB9,#0x41,#0x00	; 4307278
   884C 0C C2 41 00        3707 	.byte #0x0C,#0xC2,#0x41,#0x00	; 4309516
   8850 79 CE 41 00        3708 	.byte #0x79,#0xCE,#0x41,#0x00	; 4312697
   8854 93 D6 41 00        3709 	.byte #0x93,#0xD6,#0x41,#0x00	; 4314771
   8858 E6 DA 41 00        3710 	.byte #0xE6,#0xDA,#0x41,#0x00	; 4315878
   885C 47 E7 41 00        3711 	.byte #0x47,#0xE7,#0x41,#0x00	; 4319047
   8860 32 EB 41 00        3712 	.byte #0x32,#0xEB,#0x41,#0x00	; 4320050
   8864 D8 F3 41 00        3713 	.byte #0xD8,#0xF3,#0x41,#0x00	; 4322264
   8868 AD FF 41 00        3714 	.byte #0xAD,#0xFF,#0x41,#0x00	; 4325293
   886C F6 00 42 00        3715 	.byte #0xF6,#0x00,#0x42,#0x00	; 4325622
   8870 83 0C 42 00        3716 	.byte #0x83,#0x0C,#0x42,#0x00	; 4328579
   8874 69 14 42 00        3717 	.byte #0x69,#0x14,#0x42,#0x00	; 4330601
   8878 1C 18 42 00        3718 	.byte #0x1C,#0x18,#0x42,#0x00	; 4331548
   887C BD 25 42 00        3719 	.byte #0xBD,#0x25,#0x42,#0x00	; 4335037
   8880 C8 29 42 00        3720 	.byte #0xC8,#0x29,#0x42,#0x00	; 4336072
   8884 22 31 42 00        3721 	.byte #0x22,#0x31,#0x42,#0x00	; 4337954
   8888 57 3D 42 00        3722 	.byte #0x57,#0x3D,#0x42,#0x00	; 4341079
   888C 15 46 42 00        3723 	.byte #0x15,#0x46,#0x42,#0x00	; 4343317
   8890 60 4A 42 00        3724 	.byte #0x60,#0x4A,#0x42,#0x00	; 4344416
   8894 8A 52 42 00        3725 	.byte #0x8A,#0x52,#0x42,#0x00	; 4346506
   8898 FF 5E 42 00        3726 	.byte #0xFF,#0x5E,#0x42,#0x00	; 4349695
   889C 5E 63 42 00        3727 	.byte #0x5E,#0x63,#0x42,#0x00	; 4350814
   88A0 2B 6F 42 00        3728 	.byte #0x2B,#0x6F,#0x42,#0x00	; 4353835
   88A4 C1 77 42 00        3729 	.byte #0xC1,#0x77,#0x42,#0x00	; 4356033
   88A8 B4 7B 42 00        3730 	.byte #0xB4,#0x7B,#0x42,#0x00	; 4357044
   88AC 45 81 42 00        3731 	.byte #0x45,#0x81,#0x42,#0x00	; 4358469
   88B0 30 8D 42 00        3732 	.byte #0x30,#0x8D,#0x42,#0x00	; 4361520
   88B4 DA 95 42 00        3733 	.byte #0xDA,#0x95,#0x42,#0x00	; 4363738
   88B8 AF 99 42 00        3734 	.byte #0xAF,#0x99,#0x42,#0x00	; 4364719
   88BC 0E A4 42 00        3735 	.byte #0x0E,#0xA4,#0x42,#0x00	; 4367374
   88C0 7B A8 42 00        3736 	.byte #0x7B,#0xA8,#0x42,#0x00	; 4368507
   88C4 91 B0 42 00        3737 	.byte #0x91,#0xB0,#0x42,#0x00	; 4370577
   88C8 E4 BC 42 00        3738 	.byte #0xE4,#0xBC,#0x42,#0x00	; 4373732
   88CC A6 C7 42 00        3739 	.byte #0xA6,#0xC7,#0x42,#0x00	; 4376486
   88D0 D3 CB 42 00        3740 	.byte #0xD3,#0xCB,#0x42,#0x00	; 4377555
   88D4 39 D3 42 00        3741 	.byte #0x39,#0xD3,#0x42,#0x00	; 4379449
   88D8 4C DF 42 00        3742 	.byte #0x4C,#0xDF,#0x42,#0x00	; 4382540
   88DC ED E2 42 00        3743 	.byte #0xED,#0xE2,#0x42,#0x00	; 4383469
   88E0 98 EE 42 00        3744 	.byte #0x98,#0xEE,#0x42,#0x00	; 4386456
   88E4 72 F6 42 00        3745 	.byte #0x72,#0xF6,#0x42,#0x00	; 4388466
   88E8 07 FA 42 00        3746 	.byte #0x07,#0xFA,#0x42,#0x00	; 4389383
   88EC 90 03 43 00        3747 	.byte #0x90,#0x03,#0x43,#0x00	; 4391824
   88F0 E5 0F 43 00        3748 	.byte #0xE5,#0x0F,#0x43,#0x00	; 4394981
   88F4 0F 17 43 00        3749 	.byte #0x0F,#0x17,#0x43,#0x00	; 4396815
   88F8 7A 1B 43 00        3750 	.byte #0x7A,#0x1B,#0x43,#0x00	; 4397946
   88FC DB 26 43 00        3751 	.byte #0xDB,#0x26,#0x43,#0x00	; 4400859
   8900 AE 2A 43 00        3752 	.byte #0xAE,#0x2A,#0x43,#0x00	; 4401838
   8904 44 32 43 00        3753 	.byte #0x44,#0x32,#0x43,#0x00	; 4403780
   8908 31 3E 43 00        3754 	.byte #0x31,#0x3E,#0x43,#0x00	; 4406833
   890C 73 45 43 00        3755 	.byte #0x73,#0x45,#0x43,#0x00	; 4408691
   8910 06 49 43 00        3756 	.byte #0x06,#0x49,#0x43,#0x00	; 4409606
   8914 EC 51 43 00        3757 	.byte #0xEC,#0x51,#0x43,#0x00	; 4411884
   8918 99 5D 43 00        3758 	.byte #0x99,#0x5D,#0x43,#0x00	; 4414873
   891C 38 60 43 00        3759 	.byte #0x38,#0x60,#0x43,#0x00	; 4415544
   8920 4D 6C 43 00        3760 	.byte #0x4D,#0x6C,#0x43,#0x00	; 4418637
   8924 A7 74 43 00        3761 	.byte #0xA7,#0x74,#0x43,#0x00	; 4420775
   8928 D2 78 43 00        3762 	.byte #0xD2,#0x78,#0x43,#0x00	; 4421842
   892C 23 82 43 00        3763 	.byte #0x23,#0x82,#0x43,#0x00	; 4424227
   8930 56 8E 43 00        3764 	.byte #0x56,#0x8E,#0x43,#0x00	; 4427350
   8934 BC 96 43 00        3765 	.byte #0xBC,#0x96,#0x43,#0x00	; 4429500
   8938 C9 9A 43 00        3766 	.byte #0xC9,#0x9A,#0x43,#0x00	; 4430537
   893C 68 A7 43 00        3767 	.byte #0x68,#0xA7,#0x43,#0x00	; 4433768
   8940 1D AB 43 00        3768 	.byte #0x1D,#0xAB,#0x43,#0x00	; 4434717
   8944 F7 B3 43 00        3769 	.byte #0xF7,#0xB3,#0x43,#0x00	; 4436983
   8948 82 BF 43 00        3770 	.byte #0x82,#0xBF,#0x43,#0x00	; 4439938
   894C C0 C4 43 00        3771 	.byte #0xC0,#0xC4,#0x43,#0x00	; 4441280
   8950 B5 C8 43 00        3772 	.byte #0xB5,#0xC8,#0x43,#0x00	; 4442293
   8954 5F D0 43 00        3773 	.byte #0x5F,#0xD0,#0x43,#0x00	; 4444255
   8958 2A DC 43 00        3774 	.byte #0x2A,#0xDC,#0x43,#0x00	; 4447274
   895C 8B E1 43 00        3775 	.byte #0x8B,#0xE1,#0x43,#0x00	; 4448651
   8960 FE ED 43 00        3776 	.byte #0xFE,#0xED,#0x43,#0x00	; 4451838
   8964 14 F5 43 00        3777 	.byte #0x14,#0xF5,#0x43,#0x00	; 4453652
   8968 61 F9 43 00        3778 	.byte #0x61,#0xF9,#0x43,#0x00	; 4454753
   896C D7 07 44 00        3779 	.byte #0xD7,#0x07,#0x44,#0x00	; 4458455
   8970 A2 0B 44 00        3780 	.byte #0xA2,#0x0B,#0x44,#0x00	; 4459426
   8974 48 13 44 00        3781 	.byte #0x48,#0x13,#0x44,#0x00	; 4461384
   8978 3D 1F 44 00        3782 	.byte #0x3D,#0x1F,#0x44,#0x00	; 4464445
   897C 9C 22 44 00        3783 	.byte #0x9C,#0x22,#0x44,#0x00	; 4465308
   8980 E9 2E 44 00        3784 	.byte #0xE9,#0x2E,#0x44,#0x00	; 4468457
   8984 03 36 44 00        3785 	.byte #0x03,#0x36,#0x44,#0x00	; 4470275
   8988 76 3A 44 00        3786 	.byte #0x76,#0x3A,#0x44,#0x00	; 4471414
   898C 34 41 44 00        3787 	.byte #0x34,#0x41,#0x44,#0x00	; 4473140
   8990 41 4D 44 00        3788 	.byte #0x41,#0x4D,#0x44,#0x00	; 4476225
   8994 AB 55 44 00        3789 	.byte #0xAB,#0x55,#0x44,#0x00	; 4478379
   8998 DE 59 44 00        3790 	.byte #0xDE,#0x59,#0x44,#0x00	; 4479454
   899C 7F 64 44 00        3791 	.byte #0x7F,#0x64,#0x44,#0x00	; 4482175
   89A0 0A 68 44 00        3792 	.byte #0x0A,#0x68,#0x44,#0x00	; 4483082
   89A4 E0 70 44 00        3793 	.byte #0xE0,#0x70,#0x44,#0x00	; 4485344
   89A8 95 7C 44 00        3794 	.byte #0x95,#0x7C,#0x44,#0x00	; 4488341
   89AC 64 86 44 00        3795 	.byte #0x64,#0x86,#0x44,#0x00	; 4490852
   89B0 11 8A 44 00        3796 	.byte #0x11,#0x8A,#0x44,#0x00	; 4491793
   89B4 FB 92 44 00        3797 	.byte #0xFB,#0x92,#0x44,#0x00	; 4494075
   89B8 8E 9E 44 00        3798 	.byte #0x8E,#0x9E,#0x44,#0x00	; 4497038
   89BC 2F A3 44 00        3799 	.byte #0x2F,#0xA3,#0x44,#0x00	; 4498223
   89C0 5A AF 44 00        3800 	.byte #0x5A,#0xAF,#0x44,#0x00	; 4501338
   89C4 B0 B7 44 00        3801 	.byte #0xB0,#0xB7,#0x44,#0x00	; 4503472
   89C8 C5 BB 44 00        3802 	.byte #0xC5,#0xBB,#0x44,#0x00	; 4504517
   89CC 87 C0 44 00        3803 	.byte #0x87,#0xC0,#0x44,#0x00	; 4505735
   89D0 F2 CC 44 00        3804 	.byte #0xF2,#0xCC,#0x44,#0x00	; 4508914
   89D4 18 D4 44 00        3805 	.byte #0x18,#0xD4,#0x44,#0x00	; 4510744
   89D8 6D D8 44 00        3806 	.byte #0x6D,#0xD8,#0x44,#0x00	; 4511853
   89DC CC E5 44 00        3807 	.byte #0xCC,#0xE5,#0x44,#0x00	; 4515276
   89E0 B9 E9 44 00        3808 	.byte #0xB9,#0xE9,#0x44,#0x00	; 4516281
   89E4 53 F1 44 00        3809 	.byte #0x53,#0xF1,#0x44,#0x00	; 4518227
   89E8 26 FD 44 00        3810 	.byte #0x26,#0xFD,#0x44,#0x00	; 4521254
   89EC B1 04 45 00        3811 	.byte #0xB1,#0x04,#0x45,#0x00	; 4523185
   89F0 C4 08 45 00        3812 	.byte #0xC4,#0x08,#0x45,#0x00	; 4524228
   89F4 2E 10 45 00        3813 	.byte #0x2E,#0x10,#0x45,#0x00	; 4526126
   89F8 5B 1C 45 00        3814 	.byte #0x5B,#0x1C,#0x45,#0x00	; 4529243
   89FC FA 21 45 00        3815 	.byte #0xFA,#0x21,#0x45,#0x00	; 4530682
   8A00 8F 2D 45 00        3816 	.byte #0x8F,#0x2D,#0x45,#0x00	; 4533647
   8A04 65 35 45 00        3817 	.byte #0x65,#0x35,#0x45,#0x00	; 4535653
   8A08 10 39 45 00        3818 	.byte #0x10,#0x39,#0x45,#0x00	; 4536592
   8A0C 52 42 45 00        3819 	.byte #0x52,#0x42,#0x45,#0x00	; 4538962
   8A10 27 4E 45 00        3820 	.byte #0x27,#0x4E,#0x45,#0x00	; 4541991
   8A14 CD 56 45 00        3821 	.byte #0xCD,#0x56,#0x45,#0x00	; 4544205
   8A18 B8 5A 45 00        3822 	.byte #0xB8,#0x5A,#0x45,#0x00	; 4545208
   8A1C 19 67 45 00        3823 	.byte #0x19,#0x67,#0x45,#0x00	; 4548377
   8A20 6C 6B 45 00        3824 	.byte #0x6C,#0x6B,#0x45,#0x00	; 4549484
   8A24 86 73 45 00        3825 	.byte #0x86,#0x73,#0x45,#0x00	; 4551558
   8A28 F3 7F 45 00        3826 	.byte #0xF3,#0x7F,#0x45,#0x00	; 4554739
   8A2C 02 85 45 00        3827 	.byte #0x02,#0x85,#0x45,#0x00	; 4556034
   8A30 77 89 45 00        3828 	.byte #0x77,#0x89,#0x45,#0x00	; 4557175
   8A34 9D 91 45 00        3829 	.byte #0x9D,#0x91,#0x45,#0x00	; 4559261
   8A38 E8 9D 45 00        3830 	.byte #0xE8,#0x9D,#0x45,#0x00	; 4562408
   8A3C 49 A0 45 00        3831 	.byte #0x49,#0xA0,#0x45,#0x00	; 4563017
   8A40 3C AC 45 00        3832 	.byte #0x3C,#0xAC,#0x45,#0x00	; 4566076
   8A44 D6 B4 45 00        3833 	.byte #0xD6,#0xB4,#0x45,#0x00	; 4568278
   8A48 A3 B8 45 00        3834 	.byte #0xA3,#0xB8,#0x45,#0x00	; 4569251
   8A4C E1 C3 45 00        3835 	.byte #0xE1,#0xC3,#0x45,#0x00	; 4572129
   8A50 94 CF 45 00        3836 	.byte #0x94,#0xCF,#0x45,#0x00	; 4575124
   8A54 7E D7 45 00        3837 	.byte #0x7E,#0xD7,#0x45,#0x00	; 4577150
   8A58 0B DB 45 00        3838 	.byte #0x0B,#0xDB,#0x45,#0x00	; 4578059
   8A5C AA E6 45 00        3839 	.byte #0xAA,#0xE6,#0x45,#0x00	; 4581034
   8A60 DF EA 45 00        3840 	.byte #0xDF,#0xEA,#0x45,#0x00	; 4582111
   8A64 35 F2 45 00        3841 	.byte #0x35,#0xF2,#0x45,#0x00	; 4583989
   8A68 40 FE 45 00        3842 	.byte #0x40,#0xFE,#0x45,#0x00	; 4587072
   8A6C 1B 01 46 00        3843 	.byte #0x1B,#0x01,#0x46,#0x00	; 4587803
   8A70 6E 0D 46 00        3844 	.byte #0x6E,#0x0D,#0x46,#0x00	; 4590958
   8A74 84 15 46 00        3845 	.byte #0x84,#0x15,#0x46,#0x00	; 4593028
   8A78 F1 19 46 00        3846 	.byte #0xF1,#0x19,#0x46,#0x00	; 4594161
   8A7C 50 24 46 00        3847 	.byte #0x50,#0x24,#0x46,#0x00	; 4596816
   8A80 25 28 46 00        3848 	.byte #0x25,#0x28,#0x46,#0x00	; 4597797
   8A84 CF 30 46 00        3849 	.byte #0xCF,#0x30,#0x46,#0x00	; 4600015
   8A88 BA 3C 46 00        3850 	.byte #0xBA,#0x3C,#0x46,#0x00	; 4603066
   8A8C F8 47 46 00        3851 	.byte #0xF8,#0x47,#0x46,#0x00	; 4605944
   8A90 8D 4B 46 00        3852 	.byte #0x8D,#0x4B,#0x46,#0x00	; 4606861
   8A94 67 53 46 00        3853 	.byte #0x67,#0x53,#0x46,#0x00	; 4608871
   8A98 12 5F 46 00        3854 	.byte #0x12,#0x5F,#0x46,#0x00	; 4611858
   8A9C B3 62 46 00        3855 	.byte #0xB3,#0x62,#0x46,#0x00	; 4612787
   8AA0 C6 6E 46 00        3856 	.byte #0xC6,#0x6E,#0x46,#0x00	; 4615878
   8AA4 2C 76 46 00        3857 	.byte #0x2C,#0x76,#0x46,#0x00	; 4617772
   8AA8 59 7A 46 00        3858 	.byte #0x59,#0x7A,#0x46,#0x00	; 4618841
   8AAC A8 80 46 00        3859 	.byte #0xA8,#0x80,#0x46,#0x00	; 4620456
   8AB0 DD 8C 46 00        3860 	.byte #0xDD,#0x8C,#0x46,#0x00	; 4623581
   8AB4 37 94 46 00        3861 	.byte #0x37,#0x94,#0x46,#0x00	; 4625463
   8AB8 42 98 46 00        3862 	.byte #0x42,#0x98,#0x46,#0x00	; 4626498
   8ABC E3 A5 46 00        3863 	.byte #0xE3,#0xA5,#0x46,#0x00	; 4629987
   8AC0 96 A9 46 00        3864 	.byte #0x96,#0xA9,#0x46,#0x00	; 4630934
   8AC4 7C B1 46 00        3865 	.byte #0x7C,#0xB1,#0x46,#0x00	; 4632956
   8AC8 09 BD 46 00        3866 	.byte #0x09,#0xBD,#0x46,#0x00	; 4635913
   8ACC 4B C6 46 00        3867 	.byte #0x4B,#0xC6,#0x46,#0x00	; 4638283
   8AD0 3E CA 46 00        3868 	.byte #0x3E,#0xCA,#0x46,#0x00	; 4639294
   8AD4 D4 D2 46 00        3869 	.byte #0xD4,#0xD2,#0x46,#0x00	; 4641492
   8AD8 A1 DE 46 00        3870 	.byte #0xA1,#0xDE,#0x46,#0x00	; 4644513
   8ADC 00 E3 46 00        3871 	.byte #0x00,#0xE3,#0x46,#0x00	; 4645632
   8AE0 75 EF 46 00        3872 	.byte #0x75,#0xEF,#0x46,#0x00	; 4648821
   8AE4 9F F7 46 00        3873 	.byte #0x9F,#0xF7,#0x46,#0x00	; 4650911
   8AE8 EA FB 46 00        3874 	.byte #0xEA,#0xFB,#0x46,#0x00	; 4652010
   8AEC 7D 02 47 00        3875 	.byte #0x7D,#0x02,#0x47,#0x00	; 4653693
   8AF0 08 0E 47 00        3876 	.byte #0x08,#0x0E,#0x47,#0x00	; 4656648
   8AF4 E2 16 47 00        3877 	.byte #0xE2,#0x16,#0x47,#0x00	; 4658914
   8AF8 97 1A 47 00        3878 	.byte #0x97,#0x1A,#0x47,#0x00	; 4659863
   8AFC 36 27 47 00        3879 	.byte #0x36,#0x27,#0x47,#0x00	; 4663094
   8B00 43 2B 47 00        3880 	.byte #0x43,#0x2B,#0x47,#0x00	; 4664131
   8B04 A9 33 47 00        3881 	.byte #0xA9,#0x33,#0x47,#0x00	; 4666281
   8B08 DC 3F 47 00        3882 	.byte #0xDC,#0x3F,#0x47,#0x00	; 4669404
   8B0C 9E 44 47 00        3883 	.byte #0x9E,#0x44,#0x47,#0x00	; 4670622
   8B10 EB 48 47 00        3884 	.byte #0xEB,#0x48,#0x47,#0x00	; 4671723
   8B14 01 50 47 00        3885 	.byte #0x01,#0x50,#0x47,#0x00	; 4673537
   8B18 74 5C 47 00        3886 	.byte #0x74,#0x5C,#0x47,#0x00	; 4676724
   8B1C D5 61 47 00        3887 	.byte #0xD5,#0x61,#0x47,#0x00	; 4678101
   8B20 A0 6D 47 00        3888 	.byte #0xA0,#0x6D,#0x47,#0x00	; 4681120
   8B24 4A 75 47 00        3889 	.byte #0x4A,#0x75,#0x47,#0x00	; 4683082
   8B28 3F 79 47 00        3890 	.byte #0x3F,#0x79,#0x47,#0x00	; 4684095
   8B2C CE 83 47 00        3891 	.byte #0xCE,#0x83,#0x47,#0x00	; 4686798
   8B30 BB 8F 47 00        3892 	.byte #0xBB,#0x8F,#0x47,#0x00	; 4689851
   8B34 51 97 47 00        3893 	.byte #0x51,#0x97,#0x47,#0x00	; 4691793
   8B38 24 9B 47 00        3894 	.byte #0x24,#0x9B,#0x47,#0x00	; 4692772
   8B3C 85 A6 47 00        3895 	.byte #0x85,#0xA6,#0x47,#0x00	; 4695685
   8B40 F0 AA 47 00        3896 	.byte #0xF0,#0xAA,#0x47,#0x00	; 4696816
   8B44 1A B2 47 00        3897 	.byte #0x1A,#0xB2,#0x47,#0x00	; 4698650
   8B48 6F BE 47 00        3898 	.byte #0x6F,#0xBE,#0x47,#0x00	; 4701807
   8B4C 2D C5 47 00        3899 	.byte #0x2D,#0xC5,#0x47,#0x00	; 4703533
   8B50 58 C9 47 00        3900 	.byte #0x58,#0xC9,#0x47,#0x00	; 4704600
   8B54 B2 D1 47 00        3901 	.byte #0xB2,#0xD1,#0x47,#0x00	; 4706738
   8B58 C7 DD 47 00        3902 	.byte #0xC7,#0xDD,#0x47,#0x00	; 4709831
   8B5C 66 E0 47 00        3903 	.byte #0x66,#0xE0,#0x47,#0x00	; 4710502
   8B60 13 EC 47 00        3904 	.byte #0x13,#0xEC,#0x47,#0x00	; 4713491
   8B64 F9 F4 47 00        3905 	.byte #0xF9,#0xF4,#0x47,#0x00	; 4715769
   8B68 8C F8 47 00        3906 	.byte #0x8C,#0xF8,#0x47,#0x00	; 4716684
   8B6C E0 05 48 00        3907 	.byte #0xE0,#0x05,#0x48,#0x00	; 4720096
   8B70 95 09 48 00        3908 	.byte #0x95,#0x09,#0x48,#0x00	; 4721045
   8B74 7F 11 48 00        3909 	.byte #0x7F,#0x11,#0x48,#0x00	; 4723071
   8B78 0A 1D 48 00        3910 	.byte #0x0A,#0x1D,#0x48,#0x00	; 4726026
   8B7C AB 20 48 00        3911 	.byte #0xAB,#0x20,#0x48,#0x00	; 4726955
   8B80 DE 2C 48 00        3912 	.byte #0xDE,#0x2C,#0x48,#0x00	; 4730078
   8B84 34 34 48 00        3913 	.byte #0x34,#0x34,#0x48,#0x00	; 4731956
   8B88 41 38 48 00        3914 	.byte #0x41,#0x38,#0x48,#0x00	; 4732993
   8B8C 03 43 48 00        3915 	.byte #0x03,#0x43,#0x48,#0x00	; 4735747
   8B90 76 4F 48 00        3916 	.byte #0x76,#0x4F,#0x48,#0x00	; 4738934
   8B94 9C 57 48 00        3917 	.byte #0x9C,#0x57,#0x48,#0x00	; 4741020
   8B98 E9 5B 48 00        3918 	.byte #0xE9,#0x5B,#0x48,#0x00	; 4742121
   8B9C 48 66 48 00        3919 	.byte #0x48,#0x66,#0x48,#0x00	; 4744776
   8BA0 3D 6A 48 00        3920 	.byte #0x3D,#0x6A,#0x48,#0x00	; 4745789
   8BA4 D7 72 48 00        3921 	.byte #0xD7,#0x72,#0x48,#0x00	; 4747991
   8BA8 A2 7E 48 00        3922 	.byte #0xA2,#0x7E,#0x48,#0x00	; 4751010
   8BAC 53 84 48 00        3923 	.byte #0x53,#0x84,#0x48,#0x00	; 4752467
   8BB0 26 88 48 00        3924 	.byte #0x26,#0x88,#0x48,#0x00	; 4753446
   8BB4 CC 90 48 00        3925 	.byte #0xCC,#0x90,#0x48,#0x00	; 4755660
   8BB8 B9 9C 48 00        3926 	.byte #0xB9,#0x9C,#0x48,#0x00	; 4758713
   8BBC 18 A1 48 00        3927 	.byte #0x18,#0xA1,#0x48,#0x00	; 4759832
   8BC0 6D AD 48 00        3928 	.byte #0x6D,#0xAD,#0x48,#0x00	; 4762989
   8BC4 87 B5 48 00        3929 	.byte #0x87,#0xB5,#0x48,#0x00	; 4765063
   8BC8 F2 B9 48 00        3930 	.byte #0xF2,#0xB9,#0x48,#0x00	; 4766194
   8BCC B0 C2 48 00        3931 	.byte #0xB0,#0xC2,#0x48,#0x00	; 4768432
   8BD0 C5 CE 48 00        3932 	.byte #0xC5,#0xCE,#0x48,#0x00	; 4771525
   8BD4 2F D6 48 00        3933 	.byte #0x2F,#0xD6,#0x48,#0x00	; 4773423
   8BD8 5A DA 48 00        3934 	.byte #0x5A,#0xDA,#0x48,#0x00	; 4774490
   8BDC FB E7 48 00        3935 	.byte #0xFB,#0xE7,#0x48,#0x00	; 4777979
   8BE0 8E EB 48 00        3936 	.byte #0x8E,#0xEB,#0x48,#0x00	; 4778894
   8BE4 64 F3 48 00        3937 	.byte #0x64,#0xF3,#0x48,#0x00	; 4780900
   8BE8 11 FF 48 00        3938 	.byte #0x11,#0xFF,#0x48,#0x00	; 4783889
   8BEC 86 06 49 00        3939 	.byte #0x86,#0x06,#0x49,#0x00	; 4785798
   8BF0 F3 0A 49 00        3940 	.byte #0xF3,#0x0A,#0x49,#0x00	; 4786931
   8BF4 19 12 49 00        3941 	.byte #0x19,#0x12,#0x49,#0x00	; 4788761
   8BF8 6C 1E 49 00        3942 	.byte #0x6C,#0x1E,#0x49,#0x00	; 4791916
   8BFC CD 23 49 00        3943 	.byte #0xCD,#0x23,#0x49,#0x00	; 4793293
   8C00 B8 2F 49 00        3944 	.byte #0xB8,#0x2F,#0x49,#0x00	; 4796344
   8C04 52 37 49 00        3945 	.byte #0x52,#0x37,#0x49,#0x00	; 4798290
   8C08 27 3B 49 00        3946 	.byte #0x27,#0x3B,#0x49,#0x00	; 4799271
   8C0C 65 40 49 00        3947 	.byte #0x65,#0x40,#0x49,#0x00	; 4800613
   8C10 10 4C 49 00        3948 	.byte #0x10,#0x4C,#0x49,#0x00	; 4803600
   8C14 FA 54 49 00        3949 	.byte #0xFA,#0x54,#0x49,#0x00	; 4805882
   8C18 8F 58 49 00        3950 	.byte #0x8F,#0x58,#0x49,#0x00	; 4806799
   8C1C 2E 65 49 00        3951 	.byte #0x2E,#0x65,#0x49,#0x00	; 4810030
   8C20 5B 69 49 00        3952 	.byte #0x5B,#0x69,#0x49,#0x00	; 4811099
   8C24 B1 71 49 00        3953 	.byte #0xB1,#0x71,#0x49,#0x00	; 4813233
   8C28 C4 7D 49 00        3954 	.byte #0xC4,#0x7D,#0x49,#0x00	; 4816324
   8C2C 35 87 49 00        3955 	.byte #0x35,#0x87,#0x49,#0x00	; 4818741
   8C30 40 8B 49 00        3956 	.byte #0x40,#0x8B,#0x49,#0x00	; 4819776
   8C34 AA 93 49 00        3957 	.byte #0xAA,#0x93,#0x49,#0x00	; 4821930
   8C38 DF 9F 49 00        3958 	.byte #0xDF,#0x9F,#0x49,#0x00	; 4825055
   8C3C 7E A2 49 00        3959 	.byte #0x7E,#0xA2,#0x49,#0x00	; 4825726
   8C40 0B AE 49 00        3960 	.byte #0x0B,#0xAE,#0x49,#0x00	; 4828683
   8C44 E1 B6 49 00        3961 	.byte #0xE1,#0xB6,#0x49,#0x00	; 4830945
   8C48 94 BA 49 00        3962 	.byte #0x94,#0xBA,#0x49,#0x00	; 4831892
   8C4C D6 C1 49 00        3963 	.byte #0xD6,#0xC1,#0x49,#0x00	; 4833750
   8C50 A3 CD 49 00        3964 	.byte #0xA3,#0xCD,#0x49,#0x00	; 4836771
   8C54 49 D5 49 00        3965 	.byte #0x49,#0xD5,#0x49,#0x00	; 4838729
   8C58 3C D9 49 00        3966 	.byte #0x3C,#0xD9,#0x49,#0x00	; 4839740
   8C5C 9D E4 49 00        3967 	.byte #0x9D,#0xE4,#0x49,#0x00	; 4842653
   8C60 E8 E8 49 00        3968 	.byte #0xE8,#0xE8,#0x49,#0x00	; 4843752
   8C64 02 F0 49 00        3969 	.byte #0x02,#0xF0,#0x49,#0x00	; 4845570
   8C68 77 FC 49 00        3970 	.byte #0x77,#0xFC,#0x49,#0x00	; 4848759
   8C6C 2C 03 4A 00        3971 	.byte #0x2C,#0x03,#0x4A,#0x00	; 4850476
   8C70 59 0F 4A 00        3972 	.byte #0x59,#0x0F,#0x4A,#0x00	; 4853593
   8C74 B3 17 4A 00        3973 	.byte #0xB3,#0x17,#0x4A,#0x00	; 4855731
   8C78 C6 1B 4A 00        3974 	.byte #0xC6,#0x1B,#0x4A,#0x00	; 4856774
   8C7C 67 26 4A 00        3975 	.byte #0x67,#0x26,#0x4A,#0x00	; 4859495
   8C80 12 2A 4A 00        3976 	.byte #0x12,#0x2A,#0x4A,#0x00	; 4860434
   8C84 F8 32 4A 00        3977 	.byte #0xF8,#0x32,#0x4A,#0x00	; 4862712
   8C88 8D 3E 4A 00        3978 	.byte #0x8D,#0x3E,#0x4A,#0x00	; 4865677
   8C8C CF 45 4A 00        3979 	.byte #0xCF,#0x45,#0x4A,#0x00	; 4867535
   8C90 BA 49 4A 00        3980 	.byte #0xBA,#0x49,#0x4A,#0x00	; 4868538
   8C94 50 51 4A 00        3981 	.byte #0x50,#0x51,#0x4A,#0x00	; 4870480
   8C98 25 5D 4A 00        3982 	.byte #0x25,#0x5D,#0x4A,#0x00	; 4873509
   8C9C 84 60 4A 00        3983 	.byte #0x84,#0x60,#0x4A,#0x00	; 4874372
   8CA0 F1 6C 4A 00        3984 	.byte #0xF1,#0x6C,#0x4A,#0x00	; 4877553
   8CA4 1B 74 4A 00        3985 	.byte #0x1B,#0x74,#0x4A,#0x00	; 4879387
   8CA8 6E 78 4A 00        3986 	.byte #0x6E,#0x78,#0x4A,#0x00	; 4880494
   8CAC 9F 82 4A 00        3987 	.byte #0x9F,#0x82,#0x4A,#0x00	; 4883103
   8CB0 EA 8E 4A 00        3988 	.byte #0xEA,#0x8E,#0x4A,#0x00	; 4886250
   8CB4 00 96 4A 00        3989 	.byte #0x00,#0x96,#0x4A,#0x00	; 4888064
   8CB8 75 9A 4A 00        3990 	.byte #0x75,#0x9A,#0x4A,#0x00	; 4889205
   8CBC D4 A7 4A 00        3991 	.byte #0xD4,#0xA7,#0x4A,#0x00	; 4892628
   8CC0 A1 AB 4A 00        3992 	.byte #0xA1,#0xAB,#0x4A,#0x00	; 4893601
   8CC4 4B B3 4A 00        3993 	.byte #0x4B,#0xB3,#0x4A,#0x00	; 4895563
   8CC8 3E BF 4A 00        3994 	.byte #0x3E,#0xBF,#0x4A,#0x00	; 4898622
   8CCC 7C C4 4A 00        3995 	.byte #0x7C,#0xC4,#0x4A,#0x00	; 4899964
   8CD0 09 C8 4A 00        3996 	.byte #0x09,#0xC8,#0x4A,#0x00	; 4900873
   8CD4 E3 D0 4A 00        3997 	.byte #0xE3,#0xD0,#0x4A,#0x00	; 4903139
   8CD8 96 DC 4A 00        3998 	.byte #0x96,#0xDC,#0x4A,#0x00	; 4906134
   8CDC 37 E1 4A 00        3999 	.byte #0x37,#0xE1,#0x4A,#0x00	; 4907319
   8CE0 42 ED 4A 00        4000 	.byte #0x42,#0xED,#0x4A,#0x00	; 4910402
   8CE4 A8 F5 4A 00        4001 	.byte #0xA8,#0xF5,#0x4A,#0x00	; 4912552
   8CE8 DD F9 4A 00        4002 	.byte #0xDD,#0xF9,#0x4A,#0x00	; 4913629
   8CEC 4A 00 4B 00        4003 	.byte #0x4A,#0x00,#0x4B,#0x00	; 4915274
   8CF0 3F 0C 4B 00        4004 	.byte #0x3F,#0x0C,#0x4B,#0x00	; 4918335
   8CF4 D5 14 4B 00        4005 	.byte #0xD5,#0x14,#0x4B,#0x00	; 4920533
   8CF8 A0 18 4B 00        4006 	.byte #0xA0,#0x18,#0x4B,#0x00	; 4921504
   8CFC 01 25 4B 00        4007 	.byte #0x01,#0x25,#0x4B,#0x00	; 4924673
   8D00 74 29 4B 00        4008 	.byte #0x74,#0x29,#0x4B,#0x00	; 4925812
   8D04 9E 31 4B 00        4009 	.byte #0x9E,#0x31,#0x4B,#0x00	; 4927902
   8D08 EB 3D 4B 00        4010 	.byte #0xEB,#0x3D,#0x4B,#0x00	; 4931051
   8D0C A9 46 4B 00        4011 	.byte #0xA9,#0x46,#0x4B,#0x00	; 4933289
   8D10 DC 4A 4B 00        4012 	.byte #0xDC,#0x4A,#0x4B,#0x00	; 4934364
   8D14 36 52 4B 00        4013 	.byte #0x36,#0x52,#0x4B,#0x00	; 4936246
   8D18 43 5E 4B 00        4014 	.byte #0x43,#0x5E,#0x4B,#0x00	; 4939331
   8D1C E2 63 4B 00        4015 	.byte #0xE2,#0x63,#0x4B,#0x00	; 4940770
   8D20 97 6F 4B 00        4016 	.byte #0x97,#0x6F,#0x4B,#0x00	; 4943767
   8D24 7D 77 4B 00        4017 	.byte #0x7D,#0x77,#0x4B,#0x00	; 4945789
   8D28 08 7B 4B 00        4018 	.byte #0x08,#0x7B,#0x4B,#0x00	; 4946696
   8D2C F9 81 4B 00        4019 	.byte #0xF9,#0x81,#0x4B,#0x00	; 4948473
   8D30 8C 8D 4B 00        4020 	.byte #0x8C,#0x8D,#0x4B,#0x00	; 4951436
   8D34 66 95 4B 00        4021 	.byte #0x66,#0x95,#0x4B,#0x00	; 4953446
   8D38 13 99 4B 00        4022 	.byte #0x13,#0x99,#0x4B,#0x00	; 4954387
   8D3C B2 A4 4B 00        4023 	.byte #0xB2,#0xA4,#0x4B,#0x00	; 4957362
   8D40 C7 A8 4B 00        4024 	.byte #0xC7,#0xA8,#0x4B,#0x00	; 4958407
   8D44 2D B0 4B 00        4025 	.byte #0x2D,#0xB0,#0x4B,#0x00	; 4960301
   8D48 58 BC 4B 00        4026 	.byte #0x58,#0xBC,#0x4B,#0x00	; 4963416
   8D4C 1A C7 4B 00        4027 	.byte #0x1A,#0xC7,#0x4B,#0x00	; 4966170
   8D50 6F CB 4B 00        4028 	.byte #0x6F,#0xCB,#0x4B,#0x00	; 4967279
   8D54 85 D3 4B 00        4029 	.byte #0x85,#0xD3,#0x4B,#0x00	; 4969349
   8D58 F0 DF 4B 00        4030 	.byte #0xF0,#0xDF,#0x4B,#0x00	; 4972528
   8D5C 51 E2 4B 00        4031 	.byte #0x51,#0xE2,#0x4B,#0x00	; 4973137
   8D60 24 EE 4B 00        4032 	.byte #0x24,#0xEE,#0x4B,#0x00	; 4976164
   8D64 CE F6 4B 00        4033 	.byte #0xCE,#0xF6,#0x4B,#0x00	; 4978382
   8D68 BB FA 4B 00        4034 	.byte #0xBB,#0xFA,#0x4B,#0x00	; 4979387
   8D6C 0D 04 4C 00        4035 	.byte #0x0D,#0x04,#0x4C,#0x00	; 4981773
   8D70 78 08 4C 00        4036 	.byte #0x78,#0x08,#0x4C,#0x00	; 4982904
   8D74 92 10 4C 00        4037 	.byte #0x92,#0x10,#0x4C,#0x00	; 4984978
   8D78 E7 1C 4C 00        4038 	.byte #0xE7,#0x1C,#0x4C,#0x00	; 4988135
   8D7C 46 21 4C 00        4039 	.byte #0x46,#0x21,#0x4C,#0x00	; 4989254
   8D80 33 2D 4C 00        4040 	.byte #0x33,#0x2D,#0x4C,#0x00	; 4992307
   8D84 D9 35 4C 00        4041 	.byte #0xD9,#0x35,#0x4C,#0x00	; 4994521
   8D88 AC 39 4C 00        4042 	.byte #0xAC,#0x39,#0x4C,#0x00	; 4995500
   8D8C EE 42 4C 00        4043 	.byte #0xEE,#0x42,#0x4C,#0x00	; 4997870
   8D90 9B 4E 4C 00        4044 	.byte #0x9B,#0x4E,#0x4C,#0x00	; 5000859
   8D94 71 56 4C 00        4045 	.byte #0x71,#0x56,#0x4C,#0x00	; 5002865
   8D98 04 5A 4C 00        4046 	.byte #0x04,#0x5A,#0x4C,#0x00	; 5003780
   8D9C A5 67 4C 00        4047 	.byte #0xA5,#0x67,#0x4C,#0x00	; 5007269
   8DA0 D0 6B 4C 00        4048 	.byte #0xD0,#0x6B,#0x4C,#0x00	; 5008336
   8DA4 3A 73 4C 00        4049 	.byte #0x3A,#0x73,#0x4C,#0x00	; 5010234
   8DA8 4F 7F 4C 00        4050 	.byte #0x4F,#0x7F,#0x4C,#0x00	; 5013327
   8DAC BE 85 4C 00        4051 	.byte #0xBE,#0x85,#0x4C,#0x00	; 5014974
   8DB0 CB 89 4C 00        4052 	.byte #0xCB,#0x89,#0x4C,#0x00	; 5016011
   8DB4 21 91 4C 00        4053 	.byte #0x21,#0x91,#0x4C,#0x00	; 5017889
   8DB8 54 9D 4C 00        4054 	.byte #0x54,#0x9D,#0x4C,#0x00	; 5021012
   8DBC F5 A0 4C 00        4055 	.byte #0xF5,#0xA0,#0x4C,#0x00	; 5021941
   8DC0 80 AC 4C 00        4056 	.byte #0x80,#0xAC,#0x4C,#0x00	; 5024896
   8DC4 6A B4 4C 00        4057 	.byte #0x6A,#0xB4,#0x4C,#0x00	; 5026922
   8DC8 1F B8 4C 00        4058 	.byte #0x1F,#0xB8,#0x4C,#0x00	; 5027871
   8DCC 5D C3 4C 00        4059 	.byte #0x5D,#0xC3,#0x4C,#0x00	; 5030749
   8DD0 28 CF 4C 00        4060 	.byte #0x28,#0xCF,#0x4C,#0x00	; 5033768
   8DD4 C2 D7 4C 00        4061 	.byte #0xC2,#0xD7,#0x4C,#0x00	; 5035970
   8DD8 B7 DB 4C 00        4062 	.byte #0xB7,#0xDB,#0x4C,#0x00	; 5036983
   8DDC 16 E6 4C 00        4063 	.byte #0x16,#0xE6,#0x4C,#0x00	; 5039638
   8DE0 63 EA 4C 00        4064 	.byte #0x63,#0xEA,#0x4C,#0x00	; 5040739
   8DE4 89 F2 4C 00        4065 	.byte #0x89,#0xF2,#0x4C,#0x00	; 5042825
   8DE8 FC FE 4C 00        4066 	.byte #0xFC,#0xFE,#0x4C,#0x00	; 5046012
   8DEC 6B 07 4D 00        4067 	.byte #0x6B,#0x07,#0x4D,#0x00	; 5048171
   8DF0 1E 0B 4D 00        4068 	.byte #0x1E,#0x0B,#0x4D,#0x00	; 5049118
   8DF4 F4 13 4D 00        4069 	.byte #0xF4,#0x13,#0x4D,#0x00	; 5051380
   8DF8 81 1F 4D 00        4070 	.byte #0x81,#0x1F,#0x4D,#0x00	; 5054337
   8DFC 20 22 4D 00        4071 	.byte #0x20,#0x22,#0x4D,#0x00	; 5055008
   8E00 55 2E 4D 00        4072 	.byte #0x55,#0x2E,#0x4D,#0x00	; 5058133
   8E04 BF 36 4D 00        4073 	.byte #0xBF,#0x36,#0x4D,#0x00	; 5060287
   8E08 CA 3A 4D 00        4074 	.byte #0xCA,#0x3A,#0x4D,#0x00	; 5061322
   8E0C 88 41 4D 00        4075 	.byte #0x88,#0x41,#0x4D,#0x00	; 5063048
   8E10 FD 4D 4D 00        4076 	.byte #0xFD,#0x4D,#0x4D,#0x00	; 5066237
   8E14 17 55 4D 00        4077 	.byte #0x17,#0x55,#0x4D,#0x00	; 5068055
   8E18 62 59 4D 00        4078 	.byte #0x62,#0x59,#0x4D,#0x00	; 5069154
   8E1C C3 64 4D 00        4079 	.byte #0xC3,#0x64,#0x4D,#0x00	; 5072067
   8E20 B6 68 4D 00        4080 	.byte #0xB6,#0x68,#0x4D,#0x00	; 5073078
   8E24 5C 70 4D 00        4081 	.byte #0x5C,#0x70,#0x4D,#0x00	; 5075036
   8E28 29 7C 4D 00        4082 	.byte #0x29,#0x7C,#0x4D,#0x00	; 5078057
   8E2C D8 86 4D 00        4083 	.byte #0xD8,#0x86,#0x4D,#0x00	; 5080792
   8E30 AD 8A 4D 00        4084 	.byte #0xAD,#0x8A,#0x4D,#0x00	; 5081773
   8E34 47 92 4D 00        4085 	.byte #0x47,#0x92,#0x4D,#0x00	; 5083719
   8E38 32 9E 4D 00        4086 	.byte #0x32,#0x9E,#0x4D,#0x00	; 5086770
   8E3C 93 A3 4D 00        4087 	.byte #0x93,#0xA3,#0x4D,#0x00	; 5088147
   8E40 E6 AF 4D 00        4088 	.byte #0xE6,#0xAF,#0x4D,#0x00	; 5091302
   8E44 0C B7 4D 00        4089 	.byte #0x0C,#0xB7,#0x4D,#0x00	; 5093132
   8E48 79 BB 4D 00        4090 	.byte #0x79,#0xBB,#0x4D,#0x00	; 5094265
   8E4C 3B C0 4D 00        4091 	.byte #0x3B,#0xC0,#0x4D,#0x00	; 5095483
   8E50 4E CC 4D 00        4092 	.byte #0x4E,#0xCC,#0x4D,#0x00	; 5098574
   8E54 A4 D4 4D 00        4093 	.byte #0xA4,#0xD4,#0x4D,#0x00	; 5100708
   8E58 D1 D8 4D 00        4094 	.byte #0xD1,#0xD8,#0x4D,#0x00	; 5101777
   8E5C 70 E5 4D 00        4095 	.byte #0x70,#0xE5,#0x4D,#0x00	; 5105008
   8E60 05 E9 4D 00        4096 	.byte #0x05,#0xE9,#0x4D,#0x00	; 5105925
   8E64 EF F1 4D 00        4097 	.byte #0xEF,#0xF1,#0x4D,#0x00	; 5108207
   8E68 9A FD 4D 00        4098 	.byte #0x9A,#0xFD,#0x4D,#0x00	; 5111194
   8E6C C1 02 4E 00        4099 	.byte #0xC1,#0x02,#0x4E,#0x00	; 5112513
   8E70 B4 0E 4E 00        4100 	.byte #0xB4,#0x0E,#0x4E,#0x00	; 5115572
   8E74 5E 16 4E 00        4101 	.byte #0x5E,#0x16,#0x4E,#0x00	; 5117534
   8E78 2B 1A 4E 00        4102 	.byte #0x2B,#0x1A,#0x4E,#0x00	; 5118507
   8E7C 8A 27 4E 00        4103 	.byte #0x8A,#0x27,#0x4E,#0x00	; 5121930
   8E80 FF 2B 4E 00        4104 	.byte #0xFF,#0x2B,#0x4E,#0x00	; 5123071
   8E84 15 33 4E 00        4105 	.byte #0x15,#0x33,#0x4E,#0x00	; 5124885
   8E88 60 3F 4E 00        4106 	.byte #0x60,#0x3F,#0x4E,#0x00	; 5128032
   8E8C 22 44 4E 00        4107 	.byte #0x22,#0x44,#0x4E,#0x00	; 5129250
   8E90 57 48 4E 00        4108 	.byte #0x57,#0x48,#0x4E,#0x00	; 5130327
   8E94 BD 50 4E 00        4109 	.byte #0xBD,#0x50,#0x4E,#0x00	; 5132477
   8E98 C8 5C 4E 00        4110 	.byte #0xC8,#0x5C,#0x4E,#0x00	; 5135560
   8E9C 69 61 4E 00        4111 	.byte #0x69,#0x61,#0x4E,#0x00	; 5136745
   8EA0 1C 6D 4E 00        4112 	.byte #0x1C,#0x6D,#0x4E,#0x00	; 5139740
   8EA4 F6 75 4E 00        4113 	.byte #0xF6,#0x75,#0x4E,#0x00	; 5142006
   8EA8 83 79 4E 00        4114 	.byte #0x83,#0x79,#0x4E,#0x00	; 5142915
   8EAC 72 83 4E 00        4115 	.byte #0x72,#0x83,#0x4E,#0x00	; 5145458
   8EB0 07 8F 4E 00        4116 	.byte #0x07,#0x8F,#0x4E,#0x00	; 5148423
   8EB4 ED 97 4E 00        4117 	.byte #0xED,#0x97,#0x4E,#0x00	; 5150701
   8EB8 98 9B 4E 00        4118 	.byte #0x98,#0x9B,#0x4E,#0x00	; 5151640
   8EBC 39 A6 4E 00        4119 	.byte #0x39,#0xA6,#0x4E,#0x00	; 5154361
   8EC0 4C AA 4E 00        4120 	.byte #0x4C,#0xAA,#0x4E,#0x00	; 5155404
   8EC4 A6 B2 4E 00        4121 	.byte #0xA6,#0xB2,#0x4E,#0x00	; 5157542
   8EC8 D3 BE 4E 00        4122 	.byte #0xD3,#0xBE,#0x4E,#0x00	; 5160659
   8ECC 91 C5 4E 00        4123 	.byte #0x91,#0xC5,#0x4E,#0x00	; 5162385
   8ED0 E4 C9 4E 00        4124 	.byte #0xE4,#0xC9,#0x4E,#0x00	; 5163492
   8ED4 0E D1 4E 00        4125 	.byte #0x0E,#0xD1,#0x4E,#0x00	; 5165326
   8ED8 7B DD 4E 00        4126 	.byte #0x7B,#0xDD,#0x4E,#0x00	; 5168507
   8EDC DA E0 4E 00        4127 	.byte #0xDA,#0xE0,#0x4E,#0x00	; 5169370
   8EE0 AF EC 4E 00        4128 	.byte #0xAF,#0xEC,#0x4E,#0x00	; 5172399
   8EE4 45 F4 4E 00        4129 	.byte #0x45,#0xF4,#0x4E,#0x00	; 5174341
   8EE8 30 F8 4E 00        4130 	.byte #0x30,#0xF8,#0x4E,#0x00	; 5175344
   8EEC A7 01 4F 00        4131 	.byte #0xA7,#0x01,#0x4F,#0x00	; 5177767
   8EF0 D2 0D 4F 00        4132 	.byte #0xD2,#0x0D,#0x4F,#0x00	; 5180882
   8EF4 38 15 4F 00        4133 	.byte #0x38,#0x15,#0x4F,#0x00	; 5182776
   8EF8 4D 19 4F 00        4134 	.byte #0x4D,#0x19,#0x4F,#0x00	; 5183821
   8EFC EC 24 4F 00        4135 	.byte #0xEC,#0x24,#0x4F,#0x00	; 5186796
   8F00 99 28 4F 00        4136 	.byte #0x99,#0x28,#0x4F,#0x00	; 5187737
   8F04 73 30 4F 00        4137 	.byte #0x73,#0x30,#0x4F,#0x00	; 5189747
   8F08 06 3C 4F 00        4138 	.byte #0x06,#0x3C,#0x4F,#0x00	; 5192710
   8F0C 44 47 4F 00        4139 	.byte #0x44,#0x47,#0x4F,#0x00	; 5195588
   8F10 31 4B 4F 00        4140 	.byte #0x31,#0x4B,#0x4F,#0x00	; 5196593
   8F14 DB 53 4F 00        4141 	.byte #0xDB,#0x53,#0x4F,#0x00	; 5198811
   8F18 AE 5F 4F 00        4142 	.byte #0xAE,#0x5F,#0x4F,#0x00	; 5201838
   8F1C 0F 62 4F 00        4143 	.byte #0x0F,#0x62,#0x4F,#0x00	; 5202447
   8F20 7A 6E 4F 00        4144 	.byte #0x7A,#0x6E,#0x4F,#0x00	; 5205626
   8F24 90 76 4F 00        4145 	.byte #0x90,#0x76,#0x4F,#0x00	; 5207696
   8F28 E5 7A 4F 00        4146 	.byte #0xE5,#0x7A,#0x4F,#0x00	; 5208805
   8F2C 14 80 4F 00        4147 	.byte #0x14,#0x80,#0x4F,#0x00	; 5210132
   8F30 61 8C 4F 00        4148 	.byte #0x61,#0x8C,#0x4F,#0x00	; 5213281
   8F34 8B 94 4F 00        4149 	.byte #0x8B,#0x94,#0x4F,#0x00	; 5215371
   8F38 FE 98 4F 00        4150 	.byte #0xFE,#0x98,#0x4F,#0x00	; 5216510
   8F3C 5F A5 4F 00        4151 	.byte #0x5F,#0xA5,#0x4F,#0x00	; 5219679
   8F40 2A A9 4F 00        4152 	.byte #0x2A,#0xA9,#0x4F,#0x00	; 5220650
   8F44 C0 B1 4F 00        4153 	.byte #0xC0,#0xB1,#0x4F,#0x00	; 5222848
   8F48 B5 BD 4F 00        4154 	.byte #0xB5,#0xBD,#0x4F,#0x00	; 5225909
   8F4C F7 C6 4F 00        4155 	.byte #0xF7,#0xC6,#0x4F,#0x00	; 5228279
   8F50 82 CA 4F 00        4156 	.byte #0x82,#0xCA,#0x4F,#0x00	; 5229186
   8F54 68 D2 4F 00        4157 	.byte #0x68,#0xD2,#0x4F,#0x00	; 5231208
   8F58 1D DE 4F 00        4158 	.byte #0x1D,#0xDE,#0x4F,#0x00	; 5234205
   8F5C BC E3 4F 00        4159 	.byte #0xBC,#0xE3,#0x4F,#0x00	; 5235644
   8F60 C9 EF 4F 00        4160 	.byte #0xC9,#0xEF,#0x4F,#0x00	; 5238729
   8F64 23 F7 4F 00        4161 	.byte #0x23,#0xF7,#0x4F,#0x00	; 5240611
   8F68 56 FB 4F 00        4162 	.byte #0x56,#0xFB,#0x4F,#0x00	; 5241686
   8F6C 8E 01 50 00        4163 	.byte #0x8E,#0x01,#0x50,#0x00	; 5243278
   8F70 FB 0D 50 00        4164 	.byte #0xFB,#0x0D,#0x50,#0x00	; 5246459
   8F74 11 15 50 00        4165 	.byte #0x11,#0x15,#0x50,#0x00	; 5248273
   8F78 64 19 50 00        4166 	.byte #0x64,#0x19,#0x50,#0x00	; 5249380
   8F7C C5 24 50 00        4167 	.byte #0xC5,#0x24,#0x50,#0x00	; 5252293
   8F80 B0 28 50 00        4168 	.byte #0xB0,#0x28,#0x50,#0x00	; 5253296
   8F84 5A 30 50 00        4169 	.byte #0x5A,#0x30,#0x50,#0x00	; 5255258
   8F88 2F 3C 50 00        4170 	.byte #0x2F,#0x3C,#0x50,#0x00	; 5258287
   8F8C 6D 47 50 00        4171 	.byte #0x6D,#0x47,#0x50,#0x00	; 5261165
   8F90 18 4B 50 00        4172 	.byte #0x18,#0x4B,#0x50,#0x00	; 5262104
   8F94 F2 53 50 00        4173 	.byte #0xF2,#0x53,#0x50,#0x00	; 5264370
   8F98 87 5F 50 00        4174 	.byte #0x87,#0x5F,#0x50,#0x00	; 5267335
   8F9C 26 62 50 00        4175 	.byte #0x26,#0x62,#0x50,#0x00	; 5268006
   8FA0 53 6E 50 00        4176 	.byte #0x53,#0x6E,#0x50,#0x00	; 5271123
   8FA4 B9 76 50 00        4177 	.byte #0xB9,#0x76,#0x50,#0x00	; 5273273
   8FA8 CC 7A 50 00        4178 	.byte #0xCC,#0x7A,#0x50,#0x00	; 5274316
   8FAC 3D 80 50 00        4179 	.byte #0x3D,#0x80,#0x50,#0x00	; 5275709
   8FB0 48 8C 50 00        4180 	.byte #0x48,#0x8C,#0x50,#0x00	; 5278792
   8FB4 A2 94 50 00        4181 	.byte #0xA2,#0x94,#0x50,#0x00	; 5280930
   8FB8 D7 98 50 00        4182 	.byte #0xD7,#0x98,#0x50,#0x00	; 5282007
   8FBC 76 A5 50 00        4183 	.byte #0x76,#0xA5,#0x50,#0x00	; 5285238
   8FC0 03 A9 50 00        4184 	.byte #0x03,#0xA9,#0x50,#0x00	; 5286147
   8FC4 E9 B1 50 00        4185 	.byte #0xE9,#0xB1,#0x50,#0x00	; 5288425
   8FC8 9C BD 50 00        4186 	.byte #0x9C,#0xBD,#0x50,#0x00	; 5291420
   8FCC DE C6 50 00        4187 	.byte #0xDE,#0xC6,#0x50,#0x00	; 5293790
   8FD0 AB CA 50 00        4188 	.byte #0xAB,#0xCA,#0x50,#0x00	; 5294763
   8FD4 41 D2 50 00        4189 	.byte #0x41,#0xD2,#0x50,#0x00	; 5296705
   8FD8 34 DE 50 00        4190 	.byte #0x34,#0xDE,#0x50,#0x00	; 5299764
   8FDC 95 E3 50 00        4191 	.byte #0x95,#0xE3,#0x50,#0x00	; 5301141
   8FE0 E0 EF 50 00        4192 	.byte #0xE0,#0xEF,#0x50,#0x00	; 5304288
   8FE4 0A F7 50 00        4193 	.byte #0x0A,#0xF7,#0x50,#0x00	; 5306122
   8FE8 7F FB 50 00        4194 	.byte #0x7F,#0xFB,#0x50,#0x00	; 5307263
   8FEC E8 02 51 00        4195 	.byte #0xE8,#0x02,#0x51,#0x00	; 5309160
   8FF0 9D 0E 51 00        4196 	.byte #0x9D,#0x0E,#0x51,#0x00	; 5312157
   8FF4 77 16 51 00        4197 	.byte #0x77,#0x16,#0x51,#0x00	; 5314167
   8FF8 02 1A 51 00        4198 	.byte #0x02,#0x1A,#0x51,#0x00	; 5315074
   8FFC A3 27 51 00        4199 	.byte #0xA3,#0x27,#0x51,#0x00	; 5318563
   9000 D6 2B 51 00        4200 	.byte #0xD6,#0x2B,#0x51,#0x00	; 5319638
   9004 3C 33 51 00        4201 	.byte #0x3C,#0x33,#0x51,#0x00	; 5321532
   9008 49 3F 51 00        4202 	.byte #0x49,#0x3F,#0x51,#0x00	; 5324617
   900C 0B 44 51 00        4203 	.byte #0x0B,#0x44,#0x51,#0x00	; 5325835
   9010 7E 48 51 00        4204 	.byte #0x7E,#0x48,#0x51,#0x00	; 5326974
   9014 94 50 51 00        4205 	.byte #0x94,#0x50,#0x51,#0x00	; 5329044
   9018 E1 5C 51 00        4206 	.byte #0xE1,#0x5C,#0x51,#0x00	; 5332193
   901C 40 61 51 00        4207 	.byte #0x40,#0x61,#0x51,#0x00	; 5333312
   9020 35 6D 51 00        4208 	.byte #0x35,#0x6D,#0x51,#0x00	; 5336373
   9024 DF 75 51 00        4209 	.byte #0xDF,#0x75,#0x51,#0x00	; 5338591
   9028 AA 79 51 00        4210 	.byte #0xAA,#0x79,#0x51,#0x00	; 5339562
   902C 5B 83 51 00        4211 	.byte #0x5B,#0x83,#0x51,#0x00	; 5342043
   9030 2E 8F 51 00        4212 	.byte #0x2E,#0x8F,#0x51,#0x00	; 5345070
   9034 C4 97 51 00        4213 	.byte #0xC4,#0x97,#0x51,#0x00	; 5347268
   9038 B1 9B 51 00        4214 	.byte #0xB1,#0x9B,#0x51,#0x00	; 5348273
   903C 10 A6 51 00        4215 	.byte #0x10,#0xA6,#0x51,#0x00	; 5350928
   9040 65 AA 51 00        4216 	.byte #0x65,#0xAA,#0x51,#0x00	; 5352037
   9044 8F B2 51 00        4217 	.byte #0x8F,#0xB2,#0x51,#0x00	; 5354127
   9048 FA BE 51 00        4218 	.byte #0xFA,#0xBE,#0x51,#0x00	; 5357306
   904C B8 C5 51 00        4219 	.byte #0xB8,#0xC5,#0x51,#0x00	; 5359032
   9050 CD C9 51 00        4220 	.byte #0xCD,#0xC9,#0x51,#0x00	; 5360077
   9054 27 D1 51 00        4221 	.byte #0x27,#0xD1,#0x51,#0x00	; 5361959
   9058 52 DD 51 00        4222 	.byte #0x52,#0xDD,#0x51,#0x00	; 5365074
   905C F3 E0 51 00        4223 	.byte #0xF3,#0xE0,#0x51,#0x00	; 5366003
   9060 86 EC 51 00        4224 	.byte #0x86,#0xEC,#0x51,#0x00	; 5368966
   9064 6C F4 51 00        4225 	.byte #0x6C,#0xF4,#0x51,#0x00	; 5370988
   9068 19 F8 51 00        4226 	.byte #0x19,#0xF8,#0x51,#0x00	; 5371929
   906C 42 07 52 00        4227 	.byte #0x42,#0x07,#0x52,#0x00	; 5375810
   9070 37 0B 52 00        4228 	.byte #0x37,#0x0B,#0x52,#0x00	; 5376823
   9074 DD 13 52 00        4229 	.byte #0xDD,#0x13,#0x52,#0x00	; 5379037
   9078 A8 1F 52 00        4230 	.byte #0xA8,#0x1F,#0x52,#0x00	; 5382056
   907C 09 22 52 00        4231 	.byte #0x09,#0x22,#0x52,#0x00	; 5382665
   9080 7C 2E 52 00        4232 	.byte #0x7C,#0x2E,#0x52,#0x00	; 5385852
   9084 96 36 52 00        4233 	.byte #0x96,#0x36,#0x52,#0x00	; 5387926
   9088 E3 3A 52 00        4234 	.byte #0xE3,#0x3A,#0x52,#0x00	; 5389027
   908C A1 41 52 00        4235 	.byte #0xA1,#0x41,#0x52,#0x00	; 5390753
   9090 D4 4D 52 00        4236 	.byte #0xD4,#0x4D,#0x52,#0x00	; 5393876
   9094 3E 55 52 00        4237 	.byte #0x3E,#0x55,#0x52,#0x00	; 5395774
   9098 4B 59 52 00        4238 	.byte #0x4B,#0x59,#0x52,#0x00	; 5396811
   909C EA 64 52 00        4239 	.byte #0xEA,#0x64,#0x52,#0x00	; 5399786
   90A0 9F 68 52 00        4240 	.byte #0x9F,#0x68,#0x52,#0x00	; 5400735
   90A4 75 70 52 00        4241 	.byte #0x75,#0x70,#0x52,#0x00	; 5402741
   90A8 00 7C 52 00        4242 	.byte #0x00,#0x7C,#0x52,#0x00	; 5405696
   90AC F1 86 52 00        4243 	.byte #0xF1,#0x86,#0x52,#0x00	; 5408497
   90B0 84 8A 52 00        4244 	.byte #0x84,#0x8A,#0x52,#0x00	; 5409412
   90B4 6E 92 52 00        4245 	.byte #0x6E,#0x92,#0x52,#0x00	; 5411438
   90B8 1B 9E 52 00        4246 	.byte #0x1B,#0x9E,#0x52,#0x00	; 5414427
   90BC BA A3 52 00        4247 	.byte #0xBA,#0xA3,#0x52,#0x00	; 5415866
   90C0 CF AF 52 00        4248 	.byte #0xCF,#0xAF,#0x52,#0x00	; 5418959
   90C4 25 B7 52 00        4249 	.byte #0x25,#0xB7,#0x52,#0x00	; 5420837
   90C8 50 BB 52 00        4250 	.byte #0x50,#0xBB,#0x52,#0x00	; 5421904
   90CC 12 C0 52 00        4251 	.byte #0x12,#0xC0,#0x52,#0x00	; 5423122
   90D0 67 CC 52 00        4252 	.byte #0x67,#0xCC,#0x52,#0x00	; 5426279
   90D4 8D D4 52 00        4253 	.byte #0x8D,#0xD4,#0x52,#0x00	; 5428365
   90D8 F8 D8 52 00        4254 	.byte #0xF8,#0xD8,#0x52,#0x00	; 5429496
   90DC 59 E5 52 00        4255 	.byte #0x59,#0xE5,#0x52,#0x00	; 5432665
   90E0 2C E9 52 00        4256 	.byte #0x2C,#0xE9,#0x52,#0x00	; 5433644
   90E4 C6 F1 52 00        4257 	.byte #0xC6,#0xF1,#0x52,#0x00	; 5435846
   90E8 B3 FD 52 00        4258 	.byte #0xB3,#0xFD,#0x52,#0x00	; 5438899
   90EC 24 04 53 00        4259 	.byte #0x24,#0x04,#0x53,#0x00	; 5440548
   90F0 51 08 53 00        4260 	.byte #0x51,#0x08,#0x53,#0x00	; 5441617
   90F4 BB 10 53 00        4261 	.byte #0xBB,#0x10,#0x53,#0x00	; 5443771
   90F8 CE 1C 53 00        4262 	.byte #0xCE,#0x1C,#0x53,#0x00	; 5446862
   90FC 6F 21 53 00        4263 	.byte #0x6F,#0x21,#0x53,#0x00	; 5448047
   9100 1A 2D 53 00        4264 	.byte #0x1A,#0x2D,#0x53,#0x00	; 5451034
   9104 F0 35 53 00        4265 	.byte #0xF0,#0x35,#0x53,#0x00	; 5453296
   9108 85 39 53 00        4266 	.byte #0x85,#0x39,#0x53,#0x00	; 5454213
   910C C7 42 53 00        4267 	.byte #0xC7,#0x42,#0x53,#0x00	; 5456583
   9110 B2 4E 53 00        4268 	.byte #0xB2,#0x4E,#0x53,#0x00	; 5459634
   9114 58 56 53 00        4269 	.byte #0x58,#0x56,#0x53,#0x00	; 5461592
   9118 2D 5A 53 00        4270 	.byte #0x2D,#0x5A,#0x53,#0x00	; 5462573
   911C 8C 67 53 00        4271 	.byte #0x8C,#0x67,#0x53,#0x00	; 5465996
   9120 F9 6B 53 00        4272 	.byte #0xF9,#0x6B,#0x53,#0x00	; 5467129
   9124 13 73 53 00        4273 	.byte #0x13,#0x73,#0x53,#0x00	; 5468947
   9128 66 7F 53 00        4274 	.byte #0x66,#0x7F,#0x53,#0x00	; 5472102
   912C 97 85 53 00        4275 	.byte #0x97,#0x85,#0x53,#0x00	; 5473687
   9130 E2 89 53 00        4276 	.byte #0xE2,#0x89,#0x53,#0x00	; 5474786
   9134 08 91 53 00        4277 	.byte #0x08,#0x91,#0x53,#0x00	; 5476616
   9138 7D 9D 53 00        4278 	.byte #0x7D,#0x9D,#0x53,#0x00	; 5479805
   913C DC A0 53 00        4279 	.byte #0xDC,#0xA0,#0x53,#0x00	; 5480668
   9140 A9 AC 53 00        4280 	.byte #0xA9,#0xAC,#0x53,#0x00	; 5483689
   9144 43 B4 53 00        4281 	.byte #0x43,#0xB4,#0x53,#0x00	; 5485635
   9148 36 B8 53 00        4282 	.byte #0x36,#0xB8,#0x53,#0x00	; 5486646
   914C 74 C3 53 00        4283 	.byte #0x74,#0xC3,#0x53,#0x00	; 5489524
   9150 01 CF 53 00        4284 	.byte #0x01,#0xCF,#0x53,#0x00	; 5492481
   9154 EB D7 53 00        4285 	.byte #0xEB,#0xD7,#0x53,#0x00	; 5494763
   9158 9E DB 53 00        4286 	.byte #0x9E,#0xDB,#0x53,#0x00	; 5495710
   915C 3F E6 53 00        4287 	.byte #0x3F,#0xE6,#0x53,#0x00	; 5498431
   9160 4A EA 53 00        4288 	.byte #0x4A,#0xEA,#0x53,#0x00	; 5499466
   9164 A0 F2 53 00        4289 	.byte #0xA0,#0xF2,#0x53,#0x00	; 5501600
   9168 D5 FE 53 00        4290 	.byte #0xD5,#0xFE,#0x53,#0x00	; 5504725
   916C 63 00 54 00        4291 	.byte #0x63,#0x00,#0x54,#0x00	; 5505123
   9170 16 0C 54 00        4292 	.byte #0x16,#0x0C,#0x54,#0x00	; 5508118
   9174 FC 14 54 00        4293 	.byte #0xFC,#0x14,#0x54,#0x00	; 5510396
   9178 89 18 54 00        4294 	.byte #0x89,#0x18,#0x54,#0x00	; 5511305
   917C 28 25 54 00        4295 	.byte #0x28,#0x25,#0x54,#0x00	; 5514536
   9180 5D 29 54 00        4296 	.byte #0x5D,#0x29,#0x54,#0x00	; 5515613
   9184 B7 31 54 00        4297 	.byte #0xB7,#0x31,#0x54,#0x00	; 5517751
   9188 C2 3D 54 00        4298 	.byte #0xC2,#0x3D,#0x54,#0x00	; 5520834
   918C 80 46 54 00        4299 	.byte #0x80,#0x46,#0x54,#0x00	; 5523072
   9190 F5 4A 54 00        4300 	.byte #0xF5,#0x4A,#0x54,#0x00	; 5524213
   9194 1F 52 54 00        4301 	.byte #0x1F,#0x52,#0x54,#0x00	; 5526047
   9198 6A 5E 54 00        4302 	.byte #0x6A,#0x5E,#0x54,#0x00	; 5529194
   919C CB 63 54 00        4303 	.byte #0xCB,#0x63,#0x54,#0x00	; 5530571
   91A0 BE 6F 54 00        4304 	.byte #0xBE,#0x6F,#0x54,#0x00	; 5533630
   91A4 54 77 54 00        4305 	.byte #0x54,#0x77,#0x54,#0x00	; 5535572
   91A8 21 7B 54 00        4306 	.byte #0x21,#0x7B,#0x54,#0x00	; 5536545
   91AC D0 81 54 00        4307 	.byte #0xD0,#0x81,#0x54,#0x00	; 5538256
   91B0 A5 8D 54 00        4308 	.byte #0xA5,#0x8D,#0x54,#0x00	; 5541285
   91B4 4F 95 54 00        4309 	.byte #0x4F,#0x95,#0x54,#0x00	; 5543247
   91B8 3A 99 54 00        4310 	.byte #0x3A,#0x99,#0x54,#0x00	; 5544250
   91BC 9B A4 54 00        4311 	.byte #0x9B,#0xA4,#0x54,#0x00	; 5547163
   91C0 EE A8 54 00        4312 	.byte #0xEE,#0xA8,#0x54,#0x00	; 5548270
   91C4 04 B0 54 00        4313 	.byte #0x04,#0xB0,#0x54,#0x00	; 5550084
   91C8 71 BC 54 00        4314 	.byte #0x71,#0xBC,#0x54,#0x00	; 5553265
   91CC 33 C7 54 00        4315 	.byte #0x33,#0xC7,#0x54,#0x00	; 5556019
   91D0 46 CB 54 00        4316 	.byte #0x46,#0xCB,#0x54,#0x00	; 5557062
   91D4 AC D3 54 00        4317 	.byte #0xAC,#0xD3,#0x54,#0x00	; 5559212
   91D8 D9 DF 54 00        4318 	.byte #0xD9,#0xDF,#0x54,#0x00	; 5562329
   91DC 78 E2 54 00        4319 	.byte #0x78,#0xE2,#0x54,#0x00	; 5563000
   91E0 0D EE 54 00        4320 	.byte #0x0D,#0xEE,#0x54,#0x00	; 5565965
   91E4 E7 F6 54 00        4321 	.byte #0xE7,#0xF6,#0x54,#0x00	; 5568231
   91E8 92 FA 54 00        4322 	.byte #0x92,#0xFA,#0x54,#0x00	; 5569170
   91EC 05 03 55 00        4323 	.byte #0x05,#0x03,#0x55,#0x00	; 5571333
   91F0 70 0F 55 00        4324 	.byte #0x70,#0x0F,#0x55,#0x00	; 5574512
   91F4 9A 17 55 00        4325 	.byte #0x9A,#0x17,#0x55,#0x00	; 5576602
   91F8 EF 1B 55 00        4326 	.byte #0xEF,#0x1B,#0x55,#0x00	; 5577711
   91FC 4E 26 55 00        4327 	.byte #0x4E,#0x26,#0x55,#0x00	; 5580366
   9200 3B 2A 55 00        4328 	.byte #0x3B,#0x2A,#0x55,#0x00	; 5581371
   9204 D1 32 55 00        4329 	.byte #0xD1,#0x32,#0x55,#0x00	; 5583569
   9208 A4 3E 55 00        4330 	.byte #0xA4,#0x3E,#0x55,#0x00	; 5586596
   920C E6 45 55 00        4331 	.byte #0xE6,#0x45,#0x55,#0x00	; 5588454
   9210 93 49 55 00        4332 	.byte #0x93,#0x49,#0x55,#0x00	; 5589395
   9214 79 51 55 00        4333 	.byte #0x79,#0x51,#0x55,#0x00	; 5591417
   9218 0C 5D 55 00        4334 	.byte #0x0C,#0x5D,#0x55,#0x00	; 5594380
   921C AD 60 55 00        4335 	.byte #0xAD,#0x60,#0x55,#0x00	; 5595309
   9220 D8 6C 55 00        4336 	.byte #0xD8,#0x6C,#0x55,#0x00	; 5598424
   9224 32 74 55 00        4337 	.byte #0x32,#0x74,#0x55,#0x00	; 5600306
   9228 47 78 55 00        4338 	.byte #0x47,#0x78,#0x55,#0x00	; 5601351
   922C B6 82 55 00        4339 	.byte #0xB6,#0x82,#0x55,#0x00	; 5604022
   9230 C3 8E 55 00        4340 	.byte #0xC3,#0x8E,#0x55,#0x00	; 5607107
   9234 29 96 55 00        4341 	.byte #0x29,#0x96,#0x55,#0x00	; 5609001
   9238 5C 9A 55 00        4342 	.byte #0x5C,#0x9A,#0x55,#0x00	; 5610076
   923C FD A7 55 00        4343 	.byte #0xFD,#0xA7,#0x55,#0x00	; 5613565
   9240 88 AB 55 00        4344 	.byte #0x88,#0xAB,#0x55,#0x00	; 5614472
   9244 62 B3 55 00        4345 	.byte #0x62,#0xB3,#0x55,#0x00	; 5616482
   9248 17 BF 55 00        4346 	.byte #0x17,#0xBF,#0x55,#0x00	; 5619479
   924C 55 C4 55 00        4347 	.byte #0x55,#0xC4,#0x55,#0x00	; 5620821
   9250 20 C8 55 00        4348 	.byte #0x20,#0xC8,#0x55,#0x00	; 5621792
   9254 CA D0 55 00        4349 	.byte #0xCA,#0xD0,#0x55,#0x00	; 5624010
   9258 BF DC 55 00        4350 	.byte #0xBF,#0xDC,#0x55,#0x00	; 5627071
   925C 1E E1 55 00        4351 	.byte #0x1E,#0xE1,#0x55,#0x00	; 5628190
   9260 6B ED 55 00        4352 	.byte #0x6B,#0xED,#0x55,#0x00	; 5631339
   9264 81 F5 55 00        4353 	.byte #0x81,#0xF5,#0x55,#0x00	; 5633409
   9268 F4 F9 55 00        4354 	.byte #0xF4,#0xF9,#0x55,#0x00	; 5634548
   926C AF 06 56 00        4355 	.byte #0xAF,#0x06,#0x56,#0x00	; 5637807
   9270 DA 0A 56 00        4356 	.byte #0xDA,#0x0A,#0x56,#0x00	; 5638874
   9274 30 12 56 00        4357 	.byte #0x30,#0x12,#0x56,#0x00	; 5640752
   9278 45 1E 56 00        4358 	.byte #0x45,#0x1E,#0x56,#0x00	; 5643845
   927C E4 23 56 00        4359 	.byte #0xE4,#0x23,#0x56,#0x00	; 5645284
   9280 91 2F 56 00        4360 	.byte #0x91,#0x2F,#0x56,#0x00	; 5648273
   9284 7B 37 56 00        4361 	.byte #0x7B,#0x37,#0x56,#0x00	; 5650299
   9288 0E 3B 56 00        4362 	.byte #0x0E,#0x3B,#0x56,#0x00	; 5651214
   928C 4C 40 56 00        4363 	.byte #0x4C,#0x40,#0x56,#0x00	; 5652556
   9290 39 4C 56 00        4364 	.byte #0x39,#0x4C,#0x56,#0x00	; 5655609
   9294 D3 54 56 00        4365 	.byte #0xD3,#0x54,#0x56,#0x00	; 5657811
   9298 A6 58 56 00        4366 	.byte #0xA6,#0x58,#0x56,#0x00	; 5658790
   929C 07 65 56 00        4367 	.byte #0x07,#0x65,#0x56,#0x00	; 5661959
   92A0 72 69 56 00        4368 	.byte #0x72,#0x69,#0x56,#0x00	; 5663090
   92A4 98 71 56 00        4369 	.byte #0x98,#0x71,#0x56,#0x00	; 5665176
   92A8 ED 7D 56 00        4370 	.byte #0xED,#0x7D,#0x56,#0x00	; 5668333
   92AC 1C 87 56 00        4371 	.byte #0x1C,#0x87,#0x56,#0x00	; 5670684
   92B0 69 8B 56 00        4372 	.byte #0x69,#0x8B,#0x56,#0x00	; 5671785
   92B4 83 93 56 00        4373 	.byte #0x83,#0x93,#0x56,#0x00	; 5673859
   92B8 F6 9F 56 00        4374 	.byte #0xF6,#0x9F,#0x56,#0x00	; 5677046
   92BC 57 A2 56 00        4375 	.byte #0x57,#0xA2,#0x56,#0x00	; 5677655
   92C0 22 AE 56 00        4376 	.byte #0x22,#0xAE,#0x56,#0x00	; 5680674
   92C4 C8 B6 56 00        4377 	.byte #0xC8,#0xB6,#0x56,#0x00	; 5682888
   92C8 BD BA 56 00        4378 	.byte #0xBD,#0xBA,#0x56,#0x00	; 5683901
   92CC FF C1 56 00        4379 	.byte #0xFF,#0xC1,#0x56,#0x00	; 5685759
   92D0 8A CD 56 00        4380 	.byte #0x8A,#0xCD,#0x56,#0x00	; 5688714
   92D4 60 D5 56 00        4381 	.byte #0x60,#0xD5,#0x56,#0x00	; 5690720
   92D8 15 D9 56 00        4382 	.byte #0x15,#0xD9,#0x56,#0x00	; 5691669
   92DC B4 E4 56 00        4383 	.byte #0xB4,#0xE4,#0x56,#0x00	; 5694644
   92E0 C1 E8 56 00        4384 	.byte #0xC1,#0xE8,#0x56,#0x00	; 5695681
   92E4 2B F0 56 00        4385 	.byte #0x2B,#0xF0,#0x56,#0x00	; 5697579
   92E8 5E FC 56 00        4386 	.byte #0x5E,#0xFC,#0x56,#0x00	; 5700702
   92EC C9 05 57 00        4387 	.byte #0xC9,#0x05,#0x57,#0x00	; 5703113
   92F0 BC 09 57 00        4388 	.byte #0xBC,#0x09,#0x57,#0x00	; 5704124
   92F4 56 11 57 00        4389 	.byte #0x56,#0x11,#0x57,#0x00	; 5706070
   92F8 23 1D 57 00        4390 	.byte #0x23,#0x1D,#0x57,#0x00	; 5709091
   92FC 82 20 57 00        4391 	.byte #0x82,#0x20,#0x57,#0x00	; 5709954
   9300 F7 2C 57 00        4392 	.byte #0xF7,#0x2C,#0x57,#0x00	; 5713143
   9304 1D 34 57 00        4393 	.byte #0x1D,#0x34,#0x57,#0x00	; 5714973
   9308 68 38 57 00        4394 	.byte #0x68,#0x38,#0x57,#0x00	; 5716072
   930C 2A 43 57 00        4395 	.byte #0x2A,#0x43,#0x57,#0x00	; 5718826
   9310 5F 4F 57 00        4396 	.byte #0x5F,#0x4F,#0x57,#0x00	; 5721951
   9314 B5 57 57 00        4397 	.byte #0xB5,#0x57,#0x57,#0x00	; 5724085
   9318 C0 5B 57 00        4398 	.byte #0xC0,#0x5B,#0x57,#0x00	; 5725120
   931C 61 66 57 00        4399 	.byte #0x61,#0x66,#0x57,#0x00	; 5727841
   9320 14 6A 57 00        4400 	.byte #0x14,#0x6A,#0x57,#0x00	; 5728788
   9324 FE 72 57 00        4401 	.byte #0xFE,#0x72,#0x57,#0x00	; 5731070
   9328 8B 7E 57 00        4402 	.byte #0x8B,#0x7E,#0x57,#0x00	; 5734027
   932C 7A 84 57 00        4403 	.byte #0x7A,#0x84,#0x57,#0x00	; 5735546
   9330 0F 88 57 00        4404 	.byte #0x0F,#0x88,#0x57,#0x00	; 5736463
   9334 E5 90 57 00        4405 	.byte #0xE5,#0x90,#0x57,#0x00	; 5738725
   9338 90 9C 57 00        4406 	.byte #0x90,#0x9C,#0x57,#0x00	; 5741712
   933C 31 A1 57 00        4407 	.byte #0x31,#0xA1,#0x57,#0x00	; 5742897
   9340 44 AD 57 00        4408 	.byte #0x44,#0xAD,#0x57,#0x00	; 5745988
   9344 AE B5 57 00        4409 	.byte #0xAE,#0xB5,#0x57,#0x00	; 5748142
   9348 DB B9 57 00        4410 	.byte #0xDB,#0xB9,#0x57,#0x00	; 5749211
   934C 99 C2 57 00        4411 	.byte #0x99,#0xC2,#0x57,#0x00	; 5751449
   9350 EC CE 57 00        4412 	.byte #0xEC,#0xCE,#0x57,#0x00	; 5754604
   9354 06 D6 57 00        4413 	.byte #0x06,#0xD6,#0x57,#0x00	; 5756422
   9358 73 DA 57 00        4414 	.byte #0x73,#0xDA,#0x57,#0x00	; 5757555
   935C D2 E7 57 00        4415 	.byte #0xD2,#0xE7,#0x57,#0x00	; 5760978
   9360 A7 EB 57 00        4416 	.byte #0xA7,#0xEB,#0x57,#0x00	; 5761959
   9364 4D F3 57 00        4417 	.byte #0x4D,#0xF3,#0x57,#0x00	; 5763917
   9368 38 FF 57 00        4418 	.byte #0x38,#0xFF,#0x57,#0x00	; 5766968
   936C 54 02 58 00        4419 	.byte #0x54,#0x02,#0x58,#0x00	; 5767764
   9370 21 0E 58 00        4420 	.byte #0x21,#0x0E,#0x58,#0x00	; 5770785
   9374 CB 16 58 00        4421 	.byte #0xCB,#0x16,#0x58,#0x00	; 5773003
   9378 BE 1A 58 00        4422 	.byte #0xBE,#0x1A,#0x58,#0x00	; 5774014
   937C 1F 27 58 00        4423 	.byte #0x1F,#0x27,#0x58,#0x00	; 5777183
   9380 6A 2B 58 00        4424 	.byte #0x6A,#0x2B,#0x58,#0x00	; 5778282
   9384 80 33 58 00        4425 	.byte #0x80,#0x33,#0x58,#0x00	; 5780352
   9388 F5 3F 58 00        4426 	.byte #0xF5,#0x3F,#0x58,#0x00	; 5783541
   938C B7 44 58 00        4427 	.byte #0xB7,#0x44,#0x58,#0x00	; 5784759
   9390 C2 48 58 00        4428 	.byte #0xC2,#0x48,#0x58,#0x00	; 5785794
   9394 28 50 58 00        4429 	.byte #0x28,#0x50,#0x58,#0x00	; 5787688
   9398 5D 5C 58 00        4430 	.byte #0x5D,#0x5C,#0x58,#0x00	; 5790813
   939C FC 61 58 00        4431 	.byte #0xFC,#0x61,#0x58,#0x00	; 5792252
   93A0 89 6D 58 00        4432 	.byte #0x89,#0x6D,#0x58,#0x00	; 5795209
   93A4 63 75 58 00        4433 	.byte #0x63,#0x75,#0x58,#0x00	; 5797219
   93A8 16 79 58 00        4434 	.byte #0x16,#0x79,#0x58,#0x00	; 5798166
   93AC E7 83 58 00        4435 	.byte #0xE7,#0x83,#0x58,#0x00	; 5800935
   93B0 92 8F 58 00        4436 	.byte #0x92,#0x8F,#0x58,#0x00	; 5803922
   93B4 78 97 58 00        4437 	.byte #0x78,#0x97,#0x58,#0x00	; 5805944
   93B8 0D 9B 58 00        4438 	.byte #0x0D,#0x9B,#0x58,#0x00	; 5806861
   93BC AC A6 58 00        4439 	.byte #0xAC,#0xA6,#0x58,#0x00	; 5809836
   93C0 D9 AA 58 00        4440 	.byte #0xD9,#0xAA,#0x58,#0x00	; 5810905
   93C4 33 B2 58 00        4441 	.byte #0x33,#0xB2,#0x58,#0x00	; 5812787
   93C8 46 BE 58 00        4442 	.byte #0x46,#0xBE,#0x58,#0x00	; 5815878
   93CC 04 C5 58 00        4443 	.byte #0x04,#0xC5,#0x58,#0x00	; 5817604
   93D0 71 C9 58 00        4444 	.byte #0x71,#0xC9,#0x58,#0x00	; 5818737
   93D4 9B D1 58 00        4445 	.byte #0x9B,#0xD1,#0x58,#0x00	; 5820827
   93D8 EE DD 58 00        4446 	.byte #0xEE,#0xDD,#0x58,#0x00	; 5823982
   93DC 4F E0 58 00        4447 	.byte #0x4F,#0xE0,#0x58,#0x00	; 5824591
   93E0 3A EC 58 00        4448 	.byte #0x3A,#0xEC,#0x58,#0x00	; 5827642
   93E4 D0 F4 58 00        4449 	.byte #0xD0,#0xF4,#0x58,#0x00	; 5829840
   93E8 A5 F8 58 00        4450 	.byte #0xA5,#0xF8,#0x58,#0x00	; 5830821
   93EC 32 01 59 00        4451 	.byte #0x32,#0x01,#0x59,#0x00	; 5833010
   93F0 47 0D 59 00        4452 	.byte #0x47,#0x0D,#0x59,#0x00	; 5836103
   93F4 AD 15 59 00        4453 	.byte #0xAD,#0x15,#0x59,#0x00	; 5838253
   93F8 D8 19 59 00        4454 	.byte #0xD8,#0x19,#0x59,#0x00	; 5839320
   93FC 79 24 59 00        4455 	.byte #0x79,#0x24,#0x59,#0x00	; 5842041
   9400 0C 28 59 00        4456 	.byte #0x0C,#0x28,#0x59,#0x00	; 5842956
   9404 E6 30 59 00        4457 	.byte #0xE6,#0x30,#0x59,#0x00	; 5845222
   9408 93 3C 59 00        4458 	.byte #0x93,#0x3C,#0x59,#0x00	; 5848211
   940C D1 47 59 00        4459 	.byte #0xD1,#0x47,#0x59,#0x00	; 5851089
   9410 A4 4B 59 00        4460 	.byte #0xA4,#0x4B,#0x59,#0x00	; 5852068
   9414 4E 53 59 00        4461 	.byte #0x4E,#0x53,#0x59,#0x00	; 5854030
   9418 3B 5F 59 00        4462 	.byte #0x3B,#0x5F,#0x59,#0x00	; 5857083
   941C 9A 62 59 00        4463 	.byte #0x9A,#0x62,#0x59,#0x00	; 5857946
   9420 EF 6E 59 00        4464 	.byte #0xEF,#0x6E,#0x59,#0x00	; 5861103
   9424 05 76 59 00        4465 	.byte #0x05,#0x76,#0x59,#0x00	; 5862917
   9428 70 7A 59 00        4466 	.byte #0x70,#0x7A,#0x59,#0x00	; 5864048
   942C 81 80 59 00        4467 	.byte #0x81,#0x80,#0x59,#0x00	; 5865601
   9430 F4 8C 59 00        4468 	.byte #0xF4,#0x8C,#0x59,#0x00	; 5868788
   9434 1E 94 59 00        4469 	.byte #0x1E,#0x94,#0x59,#0x00	; 5870622
   9438 6B 98 59 00        4470 	.byte #0x6B,#0x98,#0x59,#0x00	; 5871723
   943C CA A5 59 00        4471 	.byte #0xCA,#0xA5,#0x59,#0x00	; 5875146
   9440 BF A9 59 00        4472 	.byte #0xBF,#0xA9,#0x59,#0x00	; 5876159
   9444 55 B1 59 00        4473 	.byte #0x55,#0xB1,#0x59,#0x00	; 5878101
   9448 20 BD 59 00        4474 	.byte #0x20,#0xBD,#0x59,#0x00	; 5881120
   944C 62 C6 59 00        4475 	.byte #0x62,#0xC6,#0x59,#0x00	; 5883490
   9450 17 CA 59 00        4476 	.byte #0x17,#0xCA,#0x59,#0x00	; 5884439
   9454 FD D2 59 00        4477 	.byte #0xFD,#0xD2,#0x59,#0x00	; 5886717
   9458 88 DE 59 00        4478 	.byte #0x88,#0xDE,#0x59,#0x00	; 5889672
   945C 29 E3 59 00        4479 	.byte #0x29,#0xE3,#0x59,#0x00	; 5890857
   9460 5C EF 59 00        4480 	.byte #0x5C,#0xEF,#0x59,#0x00	; 5893980
   9464 B6 F7 59 00        4481 	.byte #0xB6,#0xF7,#0x59,#0x00	; 5896118
   9468 C3 FB 59 00        4482 	.byte #0xC3,#0xFB,#0x59,#0x00	; 5897155
   946C 98 04 5A 00        4483 	.byte #0x98,#0x04,#0x5A,#0x00	; 5899416
   9470 ED 08 5A 00        4484 	.byte #0xED,#0x08,#0x5A,#0x00	; 5900525
   9474 07 10 5A 00        4485 	.byte #0x07,#0x10,#0x5A,#0x00	; 5902343
   9478 72 1C 5A 00        4486 	.byte #0x72,#0x1C,#0x5A,#0x00	; 5905522
   947C D3 21 5A 00        4487 	.byte #0xD3,#0x21,#0x5A,#0x00	; 5906899
   9480 A6 2D 5A 00        4488 	.byte #0xA6,#0x2D,#0x5A,#0x00	; 5909926
   9484 4C 35 5A 00        4489 	.byte #0x4C,#0x35,#0x5A,#0x00	; 5911884
   9488 39 39 5A 00        4490 	.byte #0x39,#0x39,#0x5A,#0x00	; 5912889
   948C 7B 42 5A 00        4491 	.byte #0x7B,#0x42,#0x5A,#0x00	; 5915259
   9490 0E 4E 5A 00        4492 	.byte #0x0E,#0x4E,#0x5A,#0x00	; 5918222
   9494 E4 56 5A 00        4493 	.byte #0xE4,#0x56,#0x5A,#0x00	; 5920484
   9498 91 5A 5A 00        4494 	.byte #0x91,#0x5A,#0x5A,#0x00	; 5921425
   949C 30 67 5A 00        4495 	.byte #0x30,#0x67,#0x5A,#0x00	; 5924656
   94A0 45 6B 5A 00        4496 	.byte #0x45,#0x6B,#0x5A,#0x00	; 5925701
   94A4 AF 73 5A 00        4497 	.byte #0xAF,#0x73,#0x5A,#0x00	; 5927855
   94A8 DA 7F 5A 00        4498 	.byte #0xDA,#0x7F,#0x5A,#0x00	; 5930970
   94AC 2B 85 5A 00        4499 	.byte #0x2B,#0x85,#0x5A,#0x00	; 5932331
   94B0 5E 89 5A 00        4500 	.byte #0x5E,#0x89,#0x5A,#0x00	; 5933406
   94B4 B4 91 5A 00        4501 	.byte #0xB4,#0x91,#0x5A,#0x00	; 5935540
   94B8 C1 9D 5A 00        4502 	.byte #0xC1,#0x9D,#0x5A,#0x00	; 5938625
   94BC 60 A0 5A 00        4503 	.byte #0x60,#0xA0,#0x5A,#0x00	; 5939296
   94C0 15 AC 5A 00        4504 	.byte #0x15,#0xAC,#0x5A,#0x00	; 5942293
   94C4 FF B4 5A 00        4505 	.byte #0xFF,#0xB4,#0x5A,#0x00	; 5944575
   94C8 8A B8 5A 00        4506 	.byte #0x8A,#0xB8,#0x5A,#0x00	; 5945482
   94CC C8 C3 5A 00        4507 	.byte #0xC8,#0xC3,#0x5A,#0x00	; 5948360
   94D0 BD CF 5A 00        4508 	.byte #0xBD,#0xCF,#0x5A,#0x00	; 5951421
   94D4 57 D7 5A 00        4509 	.byte #0x57,#0xD7,#0x5A,#0x00	; 5953367
   94D8 22 DB 5A 00        4510 	.byte #0x22,#0xDB,#0x5A,#0x00	; 5954338
   94DC 83 E6 5A 00        4511 	.byte #0x83,#0xE6,#0x5A,#0x00	; 5957251
   94E0 F6 EA 5A 00        4512 	.byte #0xF6,#0xEA,#0x5A,#0x00	; 5958390
   94E4 1C F2 5A 00        4513 	.byte #0x1C,#0xF2,#0x5A,#0x00	; 5960220
   94E8 69 FE 5A 00        4514 	.byte #0x69,#0xFE,#0x5A,#0x00	; 5963369
   94EC FE 07 5B 00        4515 	.byte #0xFE,#0x07,#0x5B,#0x00	; 5965822
   94F0 8B 0B 5B 00        4516 	.byte #0x8B,#0x0B,#0x5B,#0x00	; 5966731
   94F4 61 13 5B 00        4517 	.byte #0x61,#0x13,#0x5B,#0x00	; 5968737
   94F8 14 1F 5B 00        4518 	.byte #0x14,#0x1F,#0x5B,#0x00	; 5971732
   94FC B5 22 5B 00        4519 	.byte #0xB5,#0x22,#0x5B,#0x00	; 5972661
   9500 C0 2E 5B 00        4520 	.byte #0xC0,#0x2E,#0x5B,#0x00	; 5975744
   9504 2A 36 5B 00        4521 	.byte #0x2A,#0x36,#0x5B,#0x00	; 5977642
   9508 5F 3A 5B 00        4522 	.byte #0x5F,#0x3A,#0x5B,#0x00	; 5978719
   950C 1D 41 5B 00        4523 	.byte #0x1D,#0x41,#0x5B,#0x00	; 5980445
   9510 68 4D 5B 00        4524 	.byte #0x68,#0x4D,#0x5B,#0x00	; 5983592
   9514 82 55 5B 00        4525 	.byte #0x82,#0x55,#0x5B,#0x00	; 5985666
   9518 F7 59 5B 00        4526 	.byte #0xF7,#0x59,#0x5B,#0x00	; 5986807
   951C 56 64 5B 00        4527 	.byte #0x56,#0x64,#0x5B,#0x00	; 5989462
   9520 23 68 5B 00        4528 	.byte #0x23,#0x68,#0x5B,#0x00	; 5990435
   9524 C9 70 5B 00        4529 	.byte #0xC9,#0x70,#0x5B,#0x00	; 5992649
   9528 BC 7C 5B 00        4530 	.byte #0xBC,#0x7C,#0x5B,#0x00	; 5995708
   952C 4D 86 5B 00        4531 	.byte #0x4D,#0x86,#0x5B,#0x00	; 5998157
   9530 38 8A 5B 00        4532 	.byte #0x38,#0x8A,#0x5B,#0x00	; 5999160
   9534 D2 92 5B 00        4533 	.byte #0xD2,#0x92,#0x5B,#0x00	; 6001362
   9538 A7 9E 5B 00        4534 	.byte #0xA7,#0x9E,#0x5B,#0x00	; 6004391
   953C 06 A3 5B 00        4535 	.byte #0x06,#0xA3,#0x5B,#0x00	; 6005510
   9540 73 AF 5B 00        4536 	.byte #0x73,#0xAF,#0x5B,#0x00	; 6008691
   9544 99 B7 5B 00        4537 	.byte #0x99,#0xB7,#0x5B,#0x00	; 6010777
   9548 EC BB 5B 00        4538 	.byte #0xEC,#0xBB,#0x5B,#0x00	; 6011884
   954C AE C0 5B 00        4539 	.byte #0xAE,#0xC0,#0x5B,#0x00	; 6013102
   9550 DB CC 5B 00        4540 	.byte #0xDB,#0xCC,#0x5B,#0x00	; 6016219
   9554 31 D4 5B 00        4541 	.byte #0x31,#0xD4,#0x5B,#0x00	; 6018097
   9558 44 D8 5B 00        4542 	.byte #0x44,#0xD8,#0x5B,#0x00	; 6019140
   955C E5 E5 5B 00        4543 	.byte #0xE5,#0xE5,#0x5B,#0x00	; 6022629
   9560 90 E9 5B 00        4544 	.byte #0x90,#0xE9,#0x5B,#0x00	; 6023568
   9564 7A F1 5B 00        4545 	.byte #0x7A,#0xF1,#0x5B,#0x00	; 6025594
   9568 0F FD 5B 00        4546 	.byte #0x0F,#0xFD,#0x5B,#0x00	; 6028559
   956C B9 03 5C 00        4547 	.byte #0xB9,#0x03,#0x5C,#0x00	; 6030265
   9570 CC 0F 5C 00        4548 	.byte #0xCC,#0x0F,#0x5C,#0x00	; 6033356
   9574 26 17 5C 00        4549 	.byte #0x26,#0x17,#0x5C,#0x00	; 6035238
   9578 53 1B 5C 00        4550 	.byte #0x53,#0x1B,#0x5C,#0x00	; 6036307
   957C F2 26 5C 00        4551 	.byte #0xF2,#0x26,#0x5C,#0x00	; 6039282
   9580 87 2A 5C 00        4552 	.byte #0x87,#0x2A,#0x5C,#0x00	; 6040199
   9584 6D 32 5C 00        4553 	.byte #0x6D,#0x32,#0x5C,#0x00	; 6042221
   9588 18 3E 5C 00        4554 	.byte #0x18,#0x3E,#0x5C,#0x00	; 6045208
   958C 5A 45 5C 00        4555 	.byte #0x5A,#0x45,#0x5C,#0x00	; 6047066
   9590 2F 49 5C 00        4556 	.byte #0x2F,#0x49,#0x5C,#0x00	; 6048047
   9594 C5 51 5C 00        4557 	.byte #0xC5,#0x51,#0x5C,#0x00	; 6050245
   9598 B0 5D 5C 00        4558 	.byte #0xB0,#0x5D,#0x5C,#0x00	; 6053296
   959C 11 60 5C 00        4559 	.byte #0x11,#0x60,#0x5C,#0x00	; 6053905
   95A0 64 6C 5C 00        4560 	.byte #0x64,#0x6C,#0x5C,#0x00	; 6057060
   95A4 8E 74 5C 00        4561 	.byte #0x8E,#0x74,#0x5C,#0x00	; 6059150
   95A8 FB 78 5C 00        4562 	.byte #0xFB,#0x78,#0x5C,#0x00	; 6060283
   95AC 0A 82 5C 00        4563 	.byte #0x0A,#0x82,#0x5C,#0x00	; 6062602
   95B0 7F 8E 5C 00        4564 	.byte #0x7F,#0x8E,#0x5C,#0x00	; 6065791
   95B4 95 96 5C 00        4565 	.byte #0x95,#0x96,#0x5C,#0x00	; 6067861
   95B8 E0 9A 5C 00        4566 	.byte #0xE0,#0x9A,#0x5C,#0x00	; 6068960
   95BC 41 A7 5C 00        4567 	.byte #0x41,#0xA7,#0x5C,#0x00	; 6072129
   95C0 34 AB 5C 00        4568 	.byte #0x34,#0xAB,#0x5C,#0x00	; 6073140
   95C4 DE B3 5C 00        4569 	.byte #0xDE,#0xB3,#0x5C,#0x00	; 6075358
   95C8 AB BF 5C 00        4570 	.byte #0xAB,#0xBF,#0x5C,#0x00	; 6078379
   95CC E9 C4 5C 00        4571 	.byte #0xE9,#0xC4,#0x5C,#0x00	; 6079721
   95D0 9C C8 5C 00        4572 	.byte #0x9C,#0xC8,#0x5C,#0x00	; 6080668
   95D4 76 D0 5C 00        4573 	.byte #0x76,#0xD0,#0x5C,#0x00	; 6082678
   95D8 03 DC 5C 00        4574 	.byte #0x03,#0xDC,#0x5C,#0x00	; 6085635
   95DC A2 E1 5C 00        4575 	.byte #0xA2,#0xE1,#0x5C,#0x00	; 6087074
   95E0 D7 ED 5C 00        4576 	.byte #0xD7,#0xED,#0x5C,#0x00	; 6090199
   95E4 3D F5 5C 00        4577 	.byte #0x3D,#0xF5,#0x5C,#0x00	; 6092093
   95E8 48 F9 5C 00        4578 	.byte #0x48,#0xF9,#0x5C,#0x00	; 6093128
   95EC DF 00 5D 00        4579 	.byte #0xDF,#0x00,#0x5D,#0x00	; 6095071
   95F0 AA 0C 5D 00        4580 	.byte #0xAA,#0x0C,#0x5D,#0x00	; 6098090
   95F4 40 14 5D 00        4581 	.byte #0x40,#0x14,#0x5D,#0x00	; 6100032
   95F8 35 18 5D 00        4582 	.byte #0x35,#0x18,#0x5D,#0x00	; 6101045
   95FC 94 25 5D 00        4583 	.byte #0x94,#0x25,#0x5D,#0x00	; 6104468
   9600 E1 29 5D 00        4584 	.byte #0xE1,#0x29,#0x5D,#0x00	; 6105569
   9604 0B 31 5D 00        4585 	.byte #0x0B,#0x31,#0x5D,#0x00	; 6107403
   9608 7E 3D 5D 00        4586 	.byte #0x7E,#0x3D,#0x5D,#0x00	; 6110590
   960C 3C 46 5D 00        4587 	.byte #0x3C,#0x46,#0x5D,#0x00	; 6112828
   9610 49 4A 5D 00        4588 	.byte #0x49,#0x4A,#0x5D,#0x00	; 6113865
   9614 A3 52 5D 00        4589 	.byte #0xA3,#0x52,#0x5D,#0x00	; 6116003
   9618 D6 5E 5D 00        4590 	.byte #0xD6,#0x5E,#0x5D,#0x00	; 6119126
   961C 77 63 5D 00        4591 	.byte #0x77,#0x63,#0x5D,#0x00	; 6120311
   9620 02 6F 5D 00        4592 	.byte #0x02,#0x6F,#0x5D,#0x00	; 6123266
   9624 E8 77 5D 00        4593 	.byte #0xE8,#0x77,#0x5D,#0x00	; 6125544
   9628 9D 7B 5D 00        4594 	.byte #0x9D,#0x7B,#0x5D,#0x00	; 6126493
   962C 6C 81 5D 00        4595 	.byte #0x6C,#0x81,#0x5D,#0x00	; 6127980
   9630 19 8D 5D 00        4596 	.byte #0x19,#0x8D,#0x5D,#0x00	; 6130969
   9634 F3 95 5D 00        4597 	.byte #0xF3,#0x95,#0x5D,#0x00	; 6133235
   9638 86 99 5D 00        4598 	.byte #0x86,#0x99,#0x5D,#0x00	; 6134150
   963C 27 A4 5D 00        4599 	.byte #0x27,#0xA4,#0x5D,#0x00	; 6136871
   9640 52 A8 5D 00        4600 	.byte #0x52,#0xA8,#0x5D,#0x00	; 6137938
   9644 B8 B0 5D 00        4601 	.byte #0xB8,#0xB0,#0x5D,#0x00	; 6140088
   9648 CD BC 5D 00        4602 	.byte #0xCD,#0xBC,#0x5D,#0x00	; 6143181
   964C 8F C7 5D 00        4603 	.byte #0x8F,#0xC7,#0x5D,#0x00	; 6145935
   9650 FA CB 5D 00        4604 	.byte #0xFA,#0xCB,#0x5D,#0x00	; 6147066
   9654 10 D3 5D 00        4605 	.byte #0x10,#0xD3,#0x5D,#0x00	; 6148880
   9658 65 DF 5D 00        4606 	.byte #0x65,#0xDF,#0x5D,#0x00	; 6152037
   965C C4 E2 5D 00        4607 	.byte #0xC4,#0xE2,#0x5D,#0x00	; 6152900
   9660 B1 EE 5D 00        4608 	.byte #0xB1,#0xEE,#0x5D,#0x00	; 6155953
   9664 5B F6 5D 00        4609 	.byte #0x5B,#0xF6,#0x5D,#0x00	; 6157915
   9668 2E FA 5D 00        4610 	.byte #0x2E,#0xFA,#0x5D,#0x00	; 6158894
   966C 75 05 5E 00        4611 	.byte #0x75,#0x05,#0x5E,#0x00	; 6161781
   9670 00 09 5E 00        4612 	.byte #0x00,#0x09,#0x5E,#0x00	; 6162688
   9674 EA 11 5E 00        4613 	.byte #0xEA,#0x11,#0x5E,#0x00	; 6164970
   9678 9F 1D 5E 00        4614 	.byte #0x9F,#0x1D,#0x5E,#0x00	; 6167967
   967C 3E 20 5E 00        4615 	.byte #0x3E,#0x20,#0x5E,#0x00	; 6168638
   9680 4B 2C 5E 00        4616 	.byte #0x4B,#0x2C,#0x5E,#0x00	; 6171723
   9684 A1 34 5E 00        4617 	.byte #0xA1,#0x34,#0x5E,#0x00	; 6173857
   9688 D4 38 5E 00        4618 	.byte #0xD4,#0x38,#0x5E,#0x00	; 6174932
   968C 96 43 5E 00        4619 	.byte #0x96,#0x43,#0x5E,#0x00	; 6177686
   9690 E3 4F 5E 00        4620 	.byte #0xE3,#0x4F,#0x5E,#0x00	; 6180835
   9694 09 57 5E 00        4621 	.byte #0x09,#0x57,#0x5E,#0x00	; 6182665
   9698 7C 5B 5E 00        4622 	.byte #0x7C,#0x5B,#0x5E,#0x00	; 6183804
   969C DD 66 5E 00        4623 	.byte #0xDD,#0x66,#0x5E,#0x00	; 6186717
   96A0 A8 6A 5E 00        4624 	.byte #0xA8,#0x6A,#0x5E,#0x00	; 6187688
   96A4 42 72 5E 00        4625 	.byte #0x42,#0x72,#0x5E,#0x00	; 6189634
   96A8 37 7E 5E 00        4626 	.byte #0x37,#0x7E,#0x5E,#0x00	; 6192695
   96AC C6 84 5E 00        4627 	.byte #0xC6,#0x84,#0x5E,#0x00	; 6194374
   96B0 B3 88 5E 00        4628 	.byte #0xB3,#0x88,#0x5E,#0x00	; 6195379
   96B4 59 90 5E 00        4629 	.byte #0x59,#0x90,#0x5E,#0x00	; 6197337
   96B8 2C 9C 5E 00        4630 	.byte #0x2C,#0x9C,#0x5E,#0x00	; 6200364
   96BC 8D A1 5E 00        4631 	.byte #0x8D,#0xA1,#0x5E,#0x00	; 6201741
   96C0 F8 AD 5E 00        4632 	.byte #0xF8,#0xAD,#0x5E,#0x00	; 6204920
   96C4 12 B5 5E 00        4633 	.byte #0x12,#0xB5,#0x5E,#0x00	; 6206738
   96C8 67 B9 5E 00        4634 	.byte #0x67,#0xB9,#0x5E,#0x00	; 6207847
   96CC 25 C2 5E 00        4635 	.byte #0x25,#0xC2,#0x5E,#0x00	; 6210085
   96D0 50 CE 5E 00        4636 	.byte #0x50,#0xCE,#0x5E,#0x00	; 6213200
   96D4 BA D6 5E 00        4637 	.byte #0xBA,#0xD6,#0x5E,#0x00	; 6215354
   96D8 CF DA 5E 00        4638 	.byte #0xCF,#0xDA,#0x5E,#0x00	; 6216399
   96DC 6E E7 5E 00        4639 	.byte #0x6E,#0xE7,#0x5E,#0x00	; 6219630
   96E0 1B EB 5E 00        4640 	.byte #0x1B,#0xEB,#0x5E,#0x00	; 6220571
   96E4 F1 F3 5E 00        4641 	.byte #0xF1,#0xF3,#0x5E,#0x00	; 6222833
   96E8 84 FF 5E 00        4642 	.byte #0x84,#0xFF,#0x5E,#0x00	; 6225796
   96EC 13 06 5F 00        4643 	.byte #0x13,#0x06,#0x5F,#0x00	; 6227475
   96F0 66 0A 5F 00        4644 	.byte #0x66,#0x0A,#0x5F,#0x00	; 6228582
   96F4 8C 12 5F 00        4645 	.byte #0x8C,#0x12,#0x5F,#0x00	; 6230668
   96F8 F9 1E 5F 00        4646 	.byte #0xF9,#0x1E,#0x5F,#0x00	; 6233849
   96FC 58 23 5F 00        4647 	.byte #0x58,#0x23,#0x5F,#0x00	; 6234968
   9700 2D 2F 5F 00        4648 	.byte #0x2D,#0x2F,#0x5F,#0x00	; 6237997
   9704 C7 37 5F 00        4649 	.byte #0xC7,#0x37,#0x5F,#0x00	; 6240199
   9708 B2 3B 5F 00        4650 	.byte #0xB2,#0x3B,#0x5F,#0x00	; 6241202
   970C F0 40 5F 00        4651 	.byte #0xF0,#0x40,#0x5F,#0x00	; 6242544
   9710 85 4C 5F 00        4652 	.byte #0x85,#0x4C,#0x5F,#0x00	; 6245509
   9714 6F 54 5F 00        4653 	.byte #0x6F,#0x54,#0x5F,#0x00	; 6247535
   9718 1A 58 5F 00        4654 	.byte #0x1A,#0x58,#0x5F,#0x00	; 6248474
   971C BB 65 5F 00        4655 	.byte #0xBB,#0x65,#0x5F,#0x00	; 6251963
   9720 CE 69 5F 00        4656 	.byte #0xCE,#0x69,#0x5F,#0x00	; 6253006
   9724 24 71 5F 00        4657 	.byte #0x24,#0x71,#0x5F,#0x00	; 6254884
   9728 51 7D 5F 00        4658 	.byte #0x51,#0x7D,#0x5F,#0x00	; 6258001
   972C A0 87 5F 00        4659 	.byte #0xA0,#0x87,#0x5F,#0x00	; 6260640
   9730 D5 8B 5F 00        4660 	.byte #0xD5,#0x8B,#0x5F,#0x00	; 6261717
   9734 3F 93 5F 00        4661 	.byte #0x3F,#0x93,#0x5F,#0x00	; 6263615
   9738 4A 9F 5F 00        4662 	.byte #0x4A,#0x9F,#0x5F,#0x00	; 6266698
   973C EB A2 5F 00        4663 	.byte #0xEB,#0xA2,#0x5F,#0x00	; 6267627
   9740 9E AE 5F 00        4664 	.byte #0x9E,#0xAE,#0x5F,#0x00	; 6270622
   9744 74 B6 5F 00        4665 	.byte #0x74,#0xB6,#0x5F,#0x00	; 6272628
   9748 01 BA 5F 00        4666 	.byte #0x01,#0xBA,#0x5F,#0x00	; 6273537
   974C 43 C1 5F 00        4667 	.byte #0x43,#0xC1,#0x5F,#0x00	; 6275395
   9750 36 CD 5F 00        4668 	.byte #0x36,#0xCD,#0x5F,#0x00	; 6278454
   9754 DC D5 5F 00        4669 	.byte #0xDC,#0xD5,#0x5F,#0x00	; 6280668
   9758 A9 D9 5F 00        4670 	.byte #0xA9,#0xD9,#0x5F,#0x00	; 6281641
   975C 08 E4 5F 00        4671 	.byte #0x08,#0xE4,#0x5F,#0x00	; 6284296
   9760 7D E8 5F 00        4672 	.byte #0x7D,#0xE8,#0x5F,#0x00	; 6285437
   9764 97 F0 5F 00        4673 	.byte #0x97,#0xF0,#0x5F,#0x00	; 6287511
   9768 E2 FC 5F 00        4674 	.byte #0xE2,#0xFC,#0x5F,#0x00	; 6290658
   976C 27 05 60 00        4675 	.byte #0x27,#0x05,#0x60,#0x00	; 6292775
   9770 52 09 60 00        4676 	.byte #0x52,#0x09,#0x60,#0x00	; 6293842
   9774 B8 11 60 00        4677 	.byte #0xB8,#0x11,#0x60,#0x00	; 6295992
   9778 CD 1D 60 00        4678 	.byte #0xCD,#0x1D,#0x60,#0x00	; 6299085
   977C 6C 20 60 00        4679 	.byte #0x6C,#0x20,#0x60,#0x00	; 6299756
   9780 19 2C 60 00        4680 	.byte #0x19,#0x2C,#0x60,#0x00	; 6302745
   9784 F3 34 60 00        4681 	.byte #0xF3,#0x34,#0x60,#0x00	; 6305011
   9788 86 38 60 00        4682 	.byte #0x86,#0x38,#0x60,#0x00	; 6305926
   978C C4 43 60 00        4683 	.byte #0xC4,#0x43,#0x60,#0x00	; 6308804
   9790 B1 4F 60 00        4684 	.byte #0xB1,#0x4F,#0x60,#0x00	; 6311857
   9794 5B 57 60 00        4685 	.byte #0x5B,#0x57,#0x60,#0x00	; 6313819
   9798 2E 5B 60 00        4686 	.byte #0x2E,#0x5B,#0x60,#0x00	; 6314798
   979C 8F 66 60 00        4687 	.byte #0x8F,#0x66,#0x60,#0x00	; 6317711
   97A0 FA 6A 60 00        4688 	.byte #0xFA,#0x6A,#0x60,#0x00	; 6318842
   97A4 10 72 60 00        4689 	.byte #0x10,#0x72,#0x60,#0x00	; 6320656
   97A8 65 7E 60 00        4690 	.byte #0x65,#0x7E,#0x60,#0x00	; 6323813
   97AC 94 84 60 00        4691 	.byte #0x94,#0x84,#0x60,#0x00	; 6325396
   97B0 E1 88 60 00        4692 	.byte #0xE1,#0x88,#0x60,#0x00	; 6326497
   97B4 0B 90 60 00        4693 	.byte #0x0B,#0x90,#0x60,#0x00	; 6328331
   97B8 7E 9C 60 00        4694 	.byte #0x7E,#0x9C,#0x60,#0x00	; 6331518
   97BC DF A1 60 00        4695 	.byte #0xDF,#0xA1,#0x60,#0x00	; 6332895
   97C0 AA AD 60 00        4696 	.byte #0xAA,#0xAD,#0x60,#0x00	; 6335914
   97C4 40 B5 60 00        4697 	.byte #0x40,#0xB5,#0x60,#0x00	; 6337856
   97C8 35 B9 60 00        4698 	.byte #0x35,#0xB9,#0x60,#0x00	; 6338869
   97CC 77 C2 60 00        4699 	.byte #0x77,#0xC2,#0x60,#0x00	; 6341239
   97D0 02 CE 60 00        4700 	.byte #0x02,#0xCE,#0x60,#0x00	; 6344194
   97D4 E8 D6 60 00        4701 	.byte #0xE8,#0xD6,#0x60,#0x00	; 6346472
   97D8 9D DA 60 00        4702 	.byte #0x9D,#0xDA,#0x60,#0x00	; 6347421
   97DC 3C E7 60 00        4703 	.byte #0x3C,#0xE7,#0x60,#0x00	; 6350652
   97E0 49 EB 60 00        4704 	.byte #0x49,#0xEB,#0x60,#0x00	; 6351689
   97E4 A3 F3 60 00        4705 	.byte #0xA3,#0xF3,#0x60,#0x00	; 6353827
   97E8 D6 FF 60 00        4706 	.byte #0xD6,#0xFF,#0x60,#0x00	; 6356950
   97EC 41 06 61 00        4707 	.byte #0x41,#0x06,#0x61,#0x00	; 6358593
   97F0 34 0A 61 00        4708 	.byte #0x34,#0x0A,#0x61,#0x00	; 6359604
   97F4 DE 12 61 00        4709 	.byte #0xDE,#0x12,#0x61,#0x00	; 6361822
   97F8 AB 1E 61 00        4710 	.byte #0xAB,#0x1E,#0x61,#0x00	; 6364843
   97FC 0A 23 61 00        4711 	.byte #0x0A,#0x23,#0x61,#0x00	; 6365962
   9800 7F 2F 61 00        4712 	.byte #0x7F,#0x2F,#0x61,#0x00	; 6369151
   9804 95 37 61 00        4713 	.byte #0x95,#0x37,#0x61,#0x00	; 6371221
   9808 E0 3B 61 00        4714 	.byte #0xE0,#0x3B,#0x61,#0x00	; 6372320
   980C A2 40 61 00        4715 	.byte #0xA2,#0x40,#0x61,#0x00	; 6373538
   9810 D7 4C 61 00        4716 	.byte #0xD7,#0x4C,#0x61,#0x00	; 6376663
   9814 3D 54 61 00        4717 	.byte #0x3D,#0x54,#0x61,#0x00	; 6378557
   9818 48 58 61 00        4718 	.byte #0x48,#0x58,#0x61,#0x00	; 6379592
   981C E9 65 61 00        4719 	.byte #0xE9,#0x65,#0x61,#0x00	; 6383081
   9820 9C 69 61 00        4720 	.byte #0x9C,#0x69,#0x61,#0x00	; 6384028
   9824 76 71 61 00        4721 	.byte #0x76,#0x71,#0x61,#0x00	; 6386038
   9828 03 7D 61 00        4722 	.byte #0x03,#0x7D,#0x61,#0x00	; 6388995
   982C F2 87 61 00        4723 	.byte #0xF2,#0x87,#0x61,#0x00	; 6391794
   9830 87 8B 61 00        4724 	.byte #0x87,#0x8B,#0x61,#0x00	; 6392711
   9834 6D 93 61 00        4725 	.byte #0x6D,#0x93,#0x61,#0x00	; 6394733
   9838 18 9F 61 00        4726 	.byte #0x18,#0x9F,#0x61,#0x00	; 6397720
   983C B9 A2 61 00        4727 	.byte #0xB9,#0xA2,#0x61,#0x00	; 6398649
   9840 CC AE 61 00        4728 	.byte #0xCC,#0xAE,#0x61,#0x00	; 6401740
   9844 26 B6 61 00        4729 	.byte #0x26,#0xB6,#0x61,#0x00	; 6403622
   9848 53 BA 61 00        4730 	.byte #0x53,#0xBA,#0x61,#0x00	; 6404691
   984C 11 C1 61 00        4731 	.byte #0x11,#0xC1,#0x61,#0x00	; 6406417
   9850 64 CD 61 00        4732 	.byte #0x64,#0xCD,#0x61,#0x00	; 6409572
   9854 8E D5 61 00        4733 	.byte #0x8E,#0xD5,#0x61,#0x00	; 6411662
   9858 FB D9 61 00        4734 	.byte #0xFB,#0xD9,#0x61,#0x00	; 6412795
   985C 5A E4 61 00        4735 	.byte #0x5A,#0xE4,#0x61,#0x00	; 6415450
   9860 2F E8 61 00        4736 	.byte #0x2F,#0xE8,#0x61,#0x00	; 6416431
   9864 C5 F0 61 00        4737 	.byte #0xC5,#0xF0,#0x61,#0x00	; 6418629
   9868 B0 FC 61 00        4738 	.byte #0xB0,#0xFC,#0x61,#0x00	; 6421680
   986C EB 03 62 00        4739 	.byte #0xEB,#0x03,#0x62,#0x00	; 6423531
   9870 9E 0F 62 00        4740 	.byte #0x9E,#0x0F,#0x62,#0x00	; 6426526
   9874 74 17 62 00        4741 	.byte #0x74,#0x17,#0x62,#0x00	; 6428532
   9878 01 1B 62 00        4742 	.byte #0x01,#0x1B,#0x62,#0x00	; 6429441
   987C A0 26 62 00        4743 	.byte #0xA0,#0x26,#0x62,#0x00	; 6432416
   9880 D5 2A 62 00        4744 	.byte #0xD5,#0x2A,#0x62,#0x00	; 6433493
   9884 3F 32 62 00        4745 	.byte #0x3F,#0x32,#0x62,#0x00	; 6435391
   9888 4A 3E 62 00        4746 	.byte #0x4A,#0x3E,#0x62,#0x00	; 6438474
   988C 08 45 62 00        4747 	.byte #0x08,#0x45,#0x62,#0x00	; 6440200
   9890 7D 49 62 00        4748 	.byte #0x7D,#0x49,#0x62,#0x00	; 6441341
   9894 97 51 62 00        4749 	.byte #0x97,#0x51,#0x62,#0x00	; 6443415
   9898 E2 5D 62 00        4750 	.byte #0xE2,#0x5D,#0x62,#0x00	; 6446562
   989C 43 60 62 00        4751 	.byte #0x43,#0x60,#0x62,#0x00	; 6447171
   98A0 36 6C 62 00        4752 	.byte #0x36,#0x6C,#0x62,#0x00	; 6450230
   98A4 DC 74 62 00        4753 	.byte #0xDC,#0x74,#0x62,#0x00	; 6452444
   98A8 A9 78 62 00        4754 	.byte #0xA9,#0x78,#0x62,#0x00	; 6453417
   98AC 58 82 62 00        4755 	.byte #0x58,#0x82,#0x62,#0x00	; 6455896
   98B0 2D 8E 62 00        4756 	.byte #0x2D,#0x8E,#0x62,#0x00	; 6458925
   98B4 C7 96 62 00        4757 	.byte #0xC7,#0x96,#0x62,#0x00	; 6461127
   98B8 B2 9A 62 00        4758 	.byte #0xB2,#0x9A,#0x62,#0x00	; 6462130
   98BC 13 A7 62 00        4759 	.byte #0x13,#0xA7,#0x62,#0x00	; 6465299
   98C0 66 AB 62 00        4760 	.byte #0x66,#0xAB,#0x62,#0x00	; 6466406
   98C4 8C B3 62 00        4761 	.byte #0x8C,#0xB3,#0x62,#0x00	; 6468492
   98C8 F9 BF 62 00        4762 	.byte #0xF9,#0xBF,#0x62,#0x00	; 6471673
   98CC BB C4 62 00        4763 	.byte #0xBB,#0xC4,#0x62,#0x00	; 6472891
   98D0 CE C8 62 00        4764 	.byte #0xCE,#0xC8,#0x62,#0x00	; 6473934
   98D4 24 D0 62 00        4765 	.byte #0x24,#0xD0,#0x62,#0x00	; 6475812
   98D8 51 DC 62 00        4766 	.byte #0x51,#0xDC,#0x62,#0x00	; 6478929
   98DC F0 E1 62 00        4767 	.byte #0xF0,#0xE1,#0x62,#0x00	; 6480368
   98E0 85 ED 62 00        4768 	.byte #0x85,#0xED,#0x62,#0x00	; 6483333
   98E4 6F F5 62 00        4769 	.byte #0x6F,#0xF5,#0x62,#0x00	; 6485359
   98E8 1A F9 62 00        4770 	.byte #0x1A,#0xF9,#0x62,#0x00	; 6486298
   98EC 8D 00 63 00        4771 	.byte #0x8D,#0x00,#0x63,#0x00	; 6488205
   98F0 F8 0C 63 00        4772 	.byte #0xF8,#0x0C,#0x63,#0x00	; 6491384
   98F4 12 14 63 00        4773 	.byte #0x12,#0x14,#0x63,#0x00	; 6493202
   98F8 67 18 63 00        4774 	.byte #0x67,#0x18,#0x63,#0x00	; 6494311
   98FC C6 25 63 00        4775 	.byte #0xC6,#0x25,#0x63,#0x00	; 6497734
   9900 B3 29 63 00        4776 	.byte #0xB3,#0x29,#0x63,#0x00	; 6498739
   9904 59 31 63 00        4777 	.byte #0x59,#0x31,#0x63,#0x00	; 6500697
   9908 2C 3D 63 00        4778 	.byte #0x2C,#0x3D,#0x63,#0x00	; 6503724
   990C 6E 46 63 00        4779 	.byte #0x6E,#0x46,#0x63,#0x00	; 6506094
   9910 1B 4A 63 00        4780 	.byte #0x1B,#0x4A,#0x63,#0x00	; 6507035
   9914 F1 52 63 00        4781 	.byte #0xF1,#0x52,#0x63,#0x00	; 6509297
   9918 84 5E 63 00        4782 	.byte #0x84,#0x5E,#0x63,#0x00	; 6512260
   991C 25 63 63 00        4783 	.byte #0x25,#0x63,#0x63,#0x00	; 6513445
   9920 50 6F 63 00        4784 	.byte #0x50,#0x6F,#0x63,#0x00	; 6516560
   9924 BA 77 63 00        4785 	.byte #0xBA,#0x77,#0x63,#0x00	; 6518714
   9928 CF 7B 63 00        4786 	.byte #0xCF,#0x7B,#0x63,#0x00	; 6519759
   992C 3E 81 63 00        4787 	.byte #0x3E,#0x81,#0x63,#0x00	; 6521150
   9930 4B 8D 63 00        4788 	.byte #0x4B,#0x8D,#0x63,#0x00	; 6524235
   9934 A1 95 63 00        4789 	.byte #0xA1,#0x95,#0x63,#0x00	; 6526369
   9938 D4 99 63 00        4790 	.byte #0xD4,#0x99,#0x63,#0x00	; 6527444
   993C 75 A4 63 00        4791 	.byte #0x75,#0xA4,#0x63,#0x00	; 6530165
   9940 00 A8 63 00        4792 	.byte #0x00,#0xA8,#0x63,#0x00	; 6531072
   9944 EA B0 63 00        4793 	.byte #0xEA,#0xB0,#0x63,#0x00	; 6533354
   9948 9F BC 63 00        4794 	.byte #0x9F,#0xBC,#0x63,#0x00	; 6536351
   994C DD C7 63 00        4795 	.byte #0xDD,#0xC7,#0x63,#0x00	; 6539229
   9950 A8 CB 63 00        4796 	.byte #0xA8,#0xCB,#0x63,#0x00	; 6540200
   9954 42 D3 63 00        4797 	.byte #0x42,#0xD3,#0x63,#0x00	; 6542146
   9958 37 DF 63 00        4798 	.byte #0x37,#0xDF,#0x63,#0x00	; 6545207
   995C 96 E2 63 00        4799 	.byte #0x96,#0xE2,#0x63,#0x00	; 6546070
   9960 E3 EE 63 00        4800 	.byte #0xE3,#0xEE,#0x63,#0x00	; 6549219
   9964 09 F6 63 00        4801 	.byte #0x09,#0xF6,#0x63,#0x00	; 6551049
   9968 7C FA 63 00        4802 	.byte #0x7C,#0xFA,#0x63,#0x00	; 6552188
   996C CA 04 64 00        4803 	.byte #0xCA,#0x04,#0x64,#0x00	; 6554826
   9970 BF 08 64 00        4804 	.byte #0xBF,#0x08,#0x64,#0x00	; 6555839
   9974 55 10 64 00        4805 	.byte #0x55,#0x10,#0x64,#0x00	; 6557781
   9978 20 1C 64 00        4806 	.byte #0x20,#0x1C,#0x64,#0x00	; 6560800
   997C 81 21 64 00        4807 	.byte #0x81,#0x21,#0x64,#0x00	; 6562177
   9980 F4 2D 64 00        4808 	.byte #0xF4,#0x2D,#0x64,#0x00	; 6565364
   9984 1E 35 64 00        4809 	.byte #0x1E,#0x35,#0x64,#0x00	; 6567198
   9988 6B 39 64 00        4810 	.byte #0x6B,#0x39,#0x64,#0x00	; 6568299
   998C 29 42 64 00        4811 	.byte #0x29,#0x42,#0x64,#0x00	; 6570537
   9990 5C 4E 64 00        4812 	.byte #0x5C,#0x4E,#0x64,#0x00	; 6573660
   9994 B6 56 64 00        4813 	.byte #0xB6,#0x56,#0x64,#0x00	; 6575798
   9998 C3 5A 64 00        4814 	.byte #0xC3,#0x5A,#0x64,#0x00	; 6576835
   999C 62 67 64 00        4815 	.byte #0x62,#0x67,#0x64,#0x00	; 6580066
   99A0 17 6B 64 00        4816 	.byte #0x17,#0x6B,#0x64,#0x00	; 6581015
   99A4 FD 73 64 00        4817 	.byte #0xFD,#0x73,#0x64,#0x00	; 6583293
   99A8 88 7F 64 00        4818 	.byte #0x88,#0x7F,#0x64,#0x00	; 6586248
   99AC 79 85 64 00        4819 	.byte #0x79,#0x85,#0x64,#0x00	; 6587769
   99B0 0C 89 64 00        4820 	.byte #0x0C,#0x89,#0x64,#0x00	; 6588684
   99B4 E6 91 64 00        4821 	.byte #0xE6,#0x91,#0x64,#0x00	; 6590950
   99B8 93 9D 64 00        4822 	.byte #0x93,#0x9D,#0x64,#0x00	; 6593939
   99BC 32 A0 64 00        4823 	.byte #0x32,#0xA0,#0x64,#0x00	; 6594610
   99C0 47 AC 64 00        4824 	.byte #0x47,#0xAC,#0x64,#0x00	; 6597703
   99C4 AD B4 64 00        4825 	.byte #0xAD,#0xB4,#0x64,#0x00	; 6599853
   99C8 D8 B8 64 00        4826 	.byte #0xD8,#0xB8,#0x64,#0x00	; 6600920
   99CC 9A C3 64 00        4827 	.byte #0x9A,#0xC3,#0x64,#0x00	; 6603674
   99D0 EF CF 64 00        4828 	.byte #0xEF,#0xCF,#0x64,#0x00	; 6606831
   99D4 05 D7 64 00        4829 	.byte #0x05,#0xD7,#0x64,#0x00	; 6608645
   99D8 70 DB 64 00        4830 	.byte #0x70,#0xDB,#0x64,#0x00	; 6609776
   99DC D1 E6 64 00        4831 	.byte #0xD1,#0xE6,#0x64,#0x00	; 6612689
   99E0 A4 EA 64 00        4832 	.byte #0xA4,#0xEA,#0x64,#0x00	; 6613668
   99E4 4E F2 64 00        4833 	.byte #0x4E,#0xF2,#0x64,#0x00	; 6615630
   99E8 3B FE 64 00        4834 	.byte #0x3B,#0xFE,#0x64,#0x00	; 6618683
   99EC AC 07 65 00        4835 	.byte #0xAC,#0x07,#0x65,#0x00	; 6621100
   99F0 D9 0B 65 00        4836 	.byte #0xD9,#0x0B,#0x65,#0x00	; 6622169
   99F4 33 13 65 00        4837 	.byte #0x33,#0x13,#0x65,#0x00	; 6624051
   99F8 46 1F 65 00        4838 	.byte #0x46,#0x1F,#0x65,#0x00	; 6627142
   99FC E7 22 65 00        4839 	.byte #0xE7,#0x22,#0x65,#0x00	; 6628071
   9A00 92 2E 65 00        4840 	.byte #0x92,#0x2E,#0x65,#0x00	; 6631058
   9A04 78 36 65 00        4841 	.byte #0x78,#0x36,#0x65,#0x00	; 6633080
   9A08 0D 3A 65 00        4842 	.byte #0x0D,#0x3A,#0x65,#0x00	; 6633997
   9A0C 4F 41 65 00        4843 	.byte #0x4F,#0x41,#0x65,#0x00	; 6635855
   9A10 3A 4D 65 00        4844 	.byte #0x3A,#0x4D,#0x65,#0x00	; 6638906
   9A14 D0 55 65 00        4845 	.byte #0xD0,#0x55,#0x65,#0x00	; 6641104
   9A18 A5 59 65 00        4846 	.byte #0xA5,#0x59,#0x65,#0x00	; 6642085
   9A1C 04 64 65 00        4847 	.byte #0x04,#0x64,#0x65,#0x00	; 6644740
   9A20 71 68 65 00        4848 	.byte #0x71,#0x68,#0x65,#0x00	; 6645873
   9A24 9B 70 65 00        4849 	.byte #0x9B,#0x70,#0x65,#0x00	; 6647963
   9A28 EE 7C 65 00        4850 	.byte #0xEE,#0x7C,#0x65,#0x00	; 6651118
   9A2C 1F 86 65 00        4851 	.byte #0x1F,#0x86,#0x65,#0x00	; 6653471
   9A30 6A 8A 65 00        4852 	.byte #0x6A,#0x8A,#0x65,#0x00	; 6654570
   9A34 80 92 65 00        4853 	.byte #0x80,#0x92,#0x65,#0x00	; 6656640
   9A38 F5 9E 65 00        4854 	.byte #0xF5,#0x9E,#0x65,#0x00	; 6659829
   9A3C 54 A3 65 00        4855 	.byte #0x54,#0xA3,#0x65,#0x00	; 6660948
   9A40 21 AF 65 00        4856 	.byte #0x21,#0xAF,#0x65,#0x00	; 6663969
   9A44 CB B7 65 00        4857 	.byte #0xCB,#0xB7,#0x65,#0x00	; 6666187
   9A48 BE BB 65 00        4858 	.byte #0xBE,#0xBB,#0x65,#0x00	; 6667198
   9A4C FC C0 65 00        4859 	.byte #0xFC,#0xC0,#0x65,#0x00	; 6668540
   9A50 89 CC 65 00        4860 	.byte #0x89,#0xCC,#0x65,#0x00	; 6671497
   9A54 63 D4 65 00        4861 	.byte #0x63,#0xD4,#0x65,#0x00	; 6673507
   9A58 16 D8 65 00        4862 	.byte #0x16,#0xD8,#0x65,#0x00	; 6674454
   9A5C B7 E5 65 00        4863 	.byte #0xB7,#0xE5,#0x65,#0x00	; 6677943
   9A60 C2 E9 65 00        4864 	.byte #0xC2,#0xE9,#0x65,#0x00	; 6678978
   9A64 28 F1 65 00        4865 	.byte #0x28,#0xF1,#0x65,#0x00	; 6680872
   9A68 5D FD 65 00        4866 	.byte #0x5D,#0xFD,#0x65,#0x00	; 6683997
   9A6C 06 02 66 00        4867 	.byte #0x06,#0x02,#0x66,#0x00	; 6685190
   9A70 73 0E 66 00        4868 	.byte #0x73,#0x0E,#0x66,#0x00	; 6688371
   9A74 99 16 66 00        4869 	.byte #0x99,#0x16,#0x66,#0x00	; 6690457
   9A78 EC 1A 66 00        4870 	.byte #0xEC,#0x1A,#0x66,#0x00	; 6691564
   9A7C 4D 27 66 00        4871 	.byte #0x4D,#0x27,#0x66,#0x00	; 6694733
   9A80 38 2B 66 00        4872 	.byte #0x38,#0x2B,#0x66,#0x00	; 6695736
   9A84 D2 33 66 00        4873 	.byte #0xD2,#0x33,#0x66,#0x00	; 6697938
   9A88 A7 3F 66 00        4874 	.byte #0xA7,#0x3F,#0x66,#0x00	; 6700967
   9A8C E5 44 66 00        4875 	.byte #0xE5,#0x44,#0x66,#0x00	; 6702309
   9A90 90 48 66 00        4876 	.byte #0x90,#0x48,#0x66,#0x00	; 6703248
   9A94 7A 50 66 00        4877 	.byte #0x7A,#0x50,#0x66,#0x00	; 6705274
   9A98 0F 5C 66 00        4878 	.byte #0x0F,#0x5C,#0x66,#0x00	; 6708239
   9A9C AE 61 66 00        4879 	.byte #0xAE,#0x61,#0x66,#0x00	; 6709678
   9AA0 DB 6D 66 00        4880 	.byte #0xDB,#0x6D,#0x66,#0x00	; 6712795
   9AA4 31 75 66 00        4881 	.byte #0x31,#0x75,#0x66,#0x00	; 6714673
   9AA8 44 79 66 00        4882 	.byte #0x44,#0x79,#0x66,#0x00	; 6715716
   9AAC B5 83 66 00        4883 	.byte #0xB5,#0x83,#0x66,#0x00	; 6718389
   9AB0 C0 8F 66 00        4884 	.byte #0xC0,#0x8F,#0x66,#0x00	; 6721472
   9AB4 2A 97 66 00        4885 	.byte #0x2A,#0x97,#0x66,#0x00	; 6723370
   9AB8 5F 9B 66 00        4886 	.byte #0x5F,#0x9B,#0x66,#0x00	; 6724447
   9ABC FE A6 66 00        4887 	.byte #0xFE,#0xA6,#0x66,#0x00	; 6727422
   9AC0 8B AA 66 00        4888 	.byte #0x8B,#0xAA,#0x66,#0x00	; 6728331
   9AC4 61 B2 66 00        4889 	.byte #0x61,#0xB2,#0x66,#0x00	; 6730337
   9AC8 14 BE 66 00        4890 	.byte #0x14,#0xBE,#0x66,#0x00	; 6733332
   9ACC 56 C5 66 00        4891 	.byte #0x56,#0xC5,#0x66,#0x00	; 6735190
   9AD0 23 C9 66 00        4892 	.byte #0x23,#0xC9,#0x66,#0x00	; 6736163
   9AD4 C9 D1 66 00        4893 	.byte #0xC9,#0xD1,#0x66,#0x00	; 6738377
   9AD8 BC DD 66 00        4894 	.byte #0xBC,#0xDD,#0x66,#0x00	; 6741436
   9ADC 1D E0 66 00        4895 	.byte #0x1D,#0xE0,#0x66,#0x00	; 6742045
   9AE0 68 EC 66 00        4896 	.byte #0x68,#0xEC,#0x66,#0x00	; 6745192
   9AE4 82 F4 66 00        4897 	.byte #0x82,#0xF4,#0x66,#0x00	; 6747266
   9AE8 F7 F8 66 00        4898 	.byte #0xF7,#0xF8,#0x66,#0x00	; 6748407
   9AEC 60 01 67 00        4899 	.byte #0x60,#0x01,#0x67,#0x00	; 6750560
   9AF0 15 0D 67 00        4900 	.byte #0x15,#0x0D,#0x67,#0x00	; 6753557
   9AF4 FF 15 67 00        4901 	.byte #0xFF,#0x15,#0x67,#0x00	; 6755839
   9AF8 8A 19 67 00        4902 	.byte #0x8A,#0x19,#0x67,#0x00	; 6756746
   9AFC 2B 24 67 00        4903 	.byte #0x2B,#0x24,#0x67,#0x00	; 6759467
   9B00 5E 28 67 00        4904 	.byte #0x5E,#0x28,#0x67,#0x00	; 6760542
   9B04 B4 30 67 00        4905 	.byte #0xB4,#0x30,#0x67,#0x00	; 6762676
   9B08 C1 3C 67 00        4906 	.byte #0xC1,#0x3C,#0x67,#0x00	; 6765761
   9B0C 83 47 67 00        4907 	.byte #0x83,#0x47,#0x67,#0x00	; 6768515
   9B10 F6 4B 67 00        4908 	.byte #0xF6,#0x4B,#0x67,#0x00	; 6769654
   9B14 1C 53 67 00        4909 	.byte #0x1C,#0x53,#0x67,#0x00	; 6771484
   9B18 69 5F 67 00        4910 	.byte #0x69,#0x5F,#0x67,#0x00	; 6774633
   9B1C C8 62 67 00        4911 	.byte #0xC8,#0x62,#0x67,#0x00	; 6775496
   9B20 BD 6E 67 00        4912 	.byte #0xBD,#0x6E,#0x67,#0x00	; 6778557
   9B24 57 76 67 00        4913 	.byte #0x57,#0x76,#0x67,#0x00	; 6780503
   9B28 22 7A 67 00        4914 	.byte #0x22,#0x7A,#0x67,#0x00	; 6781474
   9B2C D3 80 67 00        4915 	.byte #0xD3,#0x80,#0x67,#0x00	; 6783187
   9B30 A6 8C 67 00        4916 	.byte #0xA6,#0x8C,#0x67,#0x00	; 6786214
   9B34 4C 94 67 00        4917 	.byte #0x4C,#0x94,#0x67,#0x00	; 6788172
   9B38 39 98 67 00        4918 	.byte #0x39,#0x98,#0x67,#0x00	; 6789177
   9B3C 98 A5 67 00        4919 	.byte #0x98,#0xA5,#0x67,#0x00	; 6792600
   9B40 ED A9 67 00        4920 	.byte #0xED,#0xA9,#0x67,#0x00	; 6793709
   9B44 07 B1 67 00        4921 	.byte #0x07,#0xB1,#0x67,#0x00	; 6795527
   9B48 72 BD 67 00        4922 	.byte #0x72,#0xBD,#0x67,#0x00	; 6798706
   9B4C 30 C6 67 00        4923 	.byte #0x30,#0xC6,#0x67,#0x00	; 6800944
   9B50 45 CA 67 00        4924 	.byte #0x45,#0xCA,#0x67,#0x00	; 6801989
   9B54 AF D2 67 00        4925 	.byte #0xAF,#0xD2,#0x67,#0x00	; 6804143
   9B58 DA DE 67 00        4926 	.byte #0xDA,#0xDE,#0x67,#0x00	; 6807258
   9B5C 7B E3 67 00        4927 	.byte #0x7B,#0xE3,#0x67,#0x00	; 6808443
   9B60 0E EF 67 00        4928 	.byte #0x0E,#0xEF,#0x67,#0x00	; 6811406
   9B64 E4 F7 67 00        4929 	.byte #0xE4,#0xF7,#0x67,#0x00	; 6813668
   9B68 91 FB 67 00        4930 	.byte #0x91,#0xFB,#0x67,#0x00	; 6814609
   9B6C FD 06 68 00        4931 	.byte #0xFD,#0x06,#0x68,#0x00	; 6817533
   9B70 88 0A 68 00        4932 	.byte #0x88,#0x0A,#0x68,#0x00	; 6818440
   9B74 62 12 68 00        4933 	.byte #0x62,#0x12,#0x68,#0x00	; 6820450
   9B78 17 1E 68 00        4934 	.byte #0x17,#0x1E,#0x68,#0x00	; 6823447
   9B7C B6 23 68 00        4935 	.byte #0xB6,#0x23,#0x68,#0x00	; 6824886
   9B80 C3 2F 68 00        4936 	.byte #0xC3,#0x2F,#0x68,#0x00	; 6827971
   9B84 29 37 68 00        4937 	.byte #0x29,#0x37,#0x68,#0x00	; 6829865
   9B88 5C 3B 68 00        4938 	.byte #0x5C,#0x3B,#0x68,#0x00	; 6830940
   9B8C 1E 40 68 00        4939 	.byte #0x1E,#0x40,#0x68,#0x00	; 6832158
   9B90 6B 4C 68 00        4940 	.byte #0x6B,#0x4C,#0x68,#0x00	; 6835307
   9B94 81 54 68 00        4941 	.byte #0x81,#0x54,#0x68,#0x00	; 6837377
   9B98 F4 58 68 00        4942 	.byte #0xF4,#0x58,#0x68,#0x00	; 6838516
   9B9C 55 65 68 00        4943 	.byte #0x55,#0x65,#0x68,#0x00	; 6841685
   9BA0 20 69 68 00        4944 	.byte #0x20,#0x69,#0x68,#0x00	; 6842656
   9BA4 CA 71 68 00        4945 	.byte #0xCA,#0x71,#0x68,#0x00	; 6844874
   9BA8 BF 7D 68 00        4946 	.byte #0xBF,#0x7D,#0x68,#0x00	; 6847935
   9BAC 4E 87 68 00        4947 	.byte #0x4E,#0x87,#0x68,#0x00	; 6850382
   9BB0 3B 8B 68 00        4948 	.byte #0x3B,#0x8B,#0x68,#0x00	; 6851387
   9BB4 D1 93 68 00        4949 	.byte #0xD1,#0x93,#0x68,#0x00	; 6853585
   9BB8 A4 9F 68 00        4950 	.byte #0xA4,#0x9F,#0x68,#0x00	; 6856612
   9BBC 05 A2 68 00        4951 	.byte #0x05,#0xA2,#0x68,#0x00	; 6857221
   9BC0 70 AE 68 00        4952 	.byte #0x70,#0xAE,#0x68,#0x00	; 6860400
   9BC4 9A B6 68 00        4953 	.byte #0x9A,#0xB6,#0x68,#0x00	; 6862490
   9BC8 EF BA 68 00        4954 	.byte #0xEF,#0xBA,#0x68,#0x00	; 6863599
   9BCC AD C1 68 00        4955 	.byte #0xAD,#0xC1,#0x68,#0x00	; 6865325
   9BD0 D8 CD 68 00        4956 	.byte #0xD8,#0xCD,#0x68,#0x00	; 6868440
   9BD4 32 D5 68 00        4957 	.byte #0x32,#0xD5,#0x68,#0x00	; 6870322
   9BD8 47 D9 68 00        4958 	.byte #0x47,#0xD9,#0x68,#0x00	; 6871367
   9BDC E6 E4 68 00        4959 	.byte #0xE6,#0xE4,#0x68,#0x00	; 6874342
   9BE0 93 E8 68 00        4960 	.byte #0x93,#0xE8,#0x68,#0x00	; 6875283
   9BE4 79 F0 68 00        4961 	.byte #0x79,#0xF0,#0x68,#0x00	; 6877305
   9BE8 0C FC 68 00        4962 	.byte #0x0C,#0xFC,#0x68,#0x00	; 6880268
   9BEC 9B 05 69 00        4963 	.byte #0x9B,#0x05,#0x69,#0x00	; 6882715
   9BF0 EE 09 69 00        4964 	.byte #0xEE,#0x09,#0x69,#0x00	; 6883822
   9BF4 04 11 69 00        4965 	.byte #0x04,#0x11,#0x69,#0x00	; 6885636
   9BF8 71 1D 69 00        4966 	.byte #0x71,#0x1D,#0x69,#0x00	; 6888817
   9BFC D0 20 69 00        4967 	.byte #0xD0,#0x20,#0x69,#0x00	; 6889680
   9C00 A5 2C 69 00        4968 	.byte #0xA5,#0x2C,#0x69,#0x00	; 6892709
   9C04 4F 34 69 00        4969 	.byte #0x4F,#0x34,#0x69,#0x00	; 6894671
   9C08 3A 38 69 00        4970 	.byte #0x3A,#0x38,#0x69,#0x00	; 6895674
   9C0C 78 43 69 00        4971 	.byte #0x78,#0x43,#0x69,#0x00	; 6898552
   9C10 0D 4F 69 00        4972 	.byte #0x0D,#0x4F,#0x69,#0x00	; 6901517
   9C14 E7 57 69 00        4973 	.byte #0xE7,#0x57,#0x69,#0x00	; 6903783
   9C18 92 5B 69 00        4974 	.byte #0x92,#0x5B,#0x69,#0x00	; 6904722
   9C1C 33 66 69 00        4975 	.byte #0x33,#0x66,#0x69,#0x00	; 6907443
   9C20 46 6A 69 00        4976 	.byte #0x46,#0x6A,#0x69,#0x00	; 6908486
   9C24 AC 72 69 00        4977 	.byte #0xAC,#0x72,#0x69,#0x00	; 6910636
   9C28 D9 7E 69 00        4978 	.byte #0xD9,#0x7E,#0x69,#0x00	; 6913753
   9C2C 28 84 69 00        4979 	.byte #0x28,#0x84,#0x69,#0x00	; 6915112
   9C30 5D 88 69 00        4980 	.byte #0x5D,#0x88,#0x69,#0x00	; 6916189
   9C34 B7 90 69 00        4981 	.byte #0xB7,#0x90,#0x69,#0x00	; 6918327
   9C38 C2 9C 69 00        4982 	.byte #0xC2,#0x9C,#0x69,#0x00	; 6921410
   9C3C 63 A1 69 00        4983 	.byte #0x63,#0xA1,#0x69,#0x00	; 6922595
   9C40 16 AD 69 00        4984 	.byte #0x16,#0xAD,#0x69,#0x00	; 6925590
   9C44 FC B5 69 00        4985 	.byte #0xFC,#0xB5,#0x69,#0x00	; 6927868
   9C48 89 B9 69 00        4986 	.byte #0x89,#0xB9,#0x69,#0x00	; 6928777
   9C4C CB C2 69 00        4987 	.byte #0xCB,#0xC2,#0x69,#0x00	; 6931147
   9C50 BE CE 69 00        4988 	.byte #0xBE,#0xCE,#0x69,#0x00	; 6934206
   9C54 54 D6 69 00        4989 	.byte #0x54,#0xD6,#0x69,#0x00	; 6936148
   9C58 21 DA 69 00        4990 	.byte #0x21,#0xDA,#0x69,#0x00	; 6937121
   9C5C 80 E7 69 00        4991 	.byte #0x80,#0xE7,#0x69,#0x00	; 6940544
   9C60 F5 EB 69 00        4992 	.byte #0xF5,#0xEB,#0x69,#0x00	; 6941685
   9C64 1F F3 69 00        4993 	.byte #0x1F,#0xF3,#0x69,#0x00	; 6943519
   9C68 6A FF 69 00        4994 	.byte #0x6A,#0xFF,#0x69,#0x00	; 6946666
   9C6C 31 00 6A 00        4995 	.byte #0x31,#0x00,#0x6A,#0x00	; 6946865
   9C70 44 0C 6A 00        4996 	.byte #0x44,#0x0C,#0x6A,#0x00	; 6949956
   9C74 AE 14 6A 00        4997 	.byte #0xAE,#0x14,#0x6A,#0x00	; 6952110
   9C78 DB 18 6A 00        4998 	.byte #0xDB,#0x18,#0x6A,#0x00	; 6953179
   9C7C 7A 25 6A 00        4999 	.byte #0x7A,#0x25,#0x6A,#0x00	; 6956410
   9C80 0F 29 6A 00        5000 	.byte #0x0F,#0x29,#0x6A,#0x00	; 6957327
   9C84 E5 31 6A 00        5001 	.byte #0xE5,#0x31,#0x6A,#0x00	; 6959589
   9C88 90 3D 6A 00        5002 	.byte #0x90,#0x3D,#0x6A,#0x00	; 6962576
   9C8C D2 46 6A 00        5003 	.byte #0xD2,#0x46,#0x6A,#0x00	; 6964946
   9C90 A7 4A 6A 00        5004 	.byte #0xA7,#0x4A,#0x6A,#0x00	; 6965927
   9C94 4D 52 6A 00        5005 	.byte #0x4D,#0x52,#0x6A,#0x00	; 6967885
   9C98 38 5E 6A 00        5006 	.byte #0x38,#0x5E,#0x6A,#0x00	; 6970936
   9C9C 99 63 6A 00        5007 	.byte #0x99,#0x63,#0x6A,#0x00	; 6972313
   9CA0 EC 6F 6A 00        5008 	.byte #0xEC,#0x6F,#0x6A,#0x00	; 6975468
   9CA4 06 77 6A 00        5009 	.byte #0x06,#0x77,#0x6A,#0x00	; 6977286
   9CA8 73 7B 6A 00        5010 	.byte #0x73,#0x7B,#0x6A,#0x00	; 6978419
   9CAC 82 81 6A 00        5011 	.byte #0x82,#0x81,#0x6A,#0x00	; 6979970
   9CB0 F7 8D 6A 00        5012 	.byte #0xF7,#0x8D,#0x6A,#0x00	; 6983159
   9CB4 1D 95 6A 00        5013 	.byte #0x1D,#0x95,#0x6A,#0x00	; 6984989
   9CB8 68 99 6A 00        5014 	.byte #0x68,#0x99,#0x6A,#0x00	; 6986088
   9CBC C9 A4 6A 00        5015 	.byte #0xC9,#0xA4,#0x6A,#0x00	; 6989001
   9CC0 BC A8 6A 00        5016 	.byte #0xBC,#0xA8,#0x6A,#0x00	; 6990012
   9CC4 56 B0 6A 00        5017 	.byte #0x56,#0xB0,#0x6A,#0x00	; 6991958
   9CC8 23 BC 6A 00        5018 	.byte #0x23,#0xBC,#0x6A,#0x00	; 6994979
   9CCC 61 C7 6A 00        5019 	.byte #0x61,#0xC7,#0x6A,#0x00	; 6997857
   9CD0 14 CB 6A 00        5020 	.byte #0x14,#0xCB,#0x6A,#0x00	; 6998804
   9CD4 FE D3 6A 00        5021 	.byte #0xFE,#0xD3,#0x6A,#0x00	; 7001086
   9CD8 8B DF 6A 00        5022 	.byte #0x8B,#0xDF,#0x6A,#0x00	; 7004043
   9CDC 2A E2 6A 00        5023 	.byte #0x2A,#0xE2,#0x6A,#0x00	; 7004714
   9CE0 5F EE 6A 00        5024 	.byte #0x5F,#0xEE,#0x6A,#0x00	; 7007839
   9CE4 B5 F6 6A 00        5025 	.byte #0xB5,#0xF6,#0x6A,#0x00	; 7009973
   9CE8 C0 FA 6A 00        5026 	.byte #0xC0,#0xFA,#0x6A,#0x00	; 7011008
   9CEC 57 03 6B 00        5027 	.byte #0x57,#0x03,#0x6B,#0x00	; 7013207
   9CF0 22 0F 6B 00        5028 	.byte #0x22,#0x0F,#0x6B,#0x00	; 7016226
   9CF4 C8 17 6B 00        5029 	.byte #0xC8,#0x17,#0x6B,#0x00	; 7018440
   9CF8 BD 1B 6B 00        5030 	.byte #0xBD,#0x1B,#0x6B,#0x00	; 7019453
   9CFC 1C 26 6B 00        5031 	.byte #0x1C,#0x26,#0x6B,#0x00	; 7022108
   9D00 69 2A 6B 00        5032 	.byte #0x69,#0x2A,#0x6B,#0x00	; 7023209
   9D04 83 32 6B 00        5033 	.byte #0x83,#0x32,#0x6B,#0x00	; 7025283
   9D08 F6 3E 6B 00        5034 	.byte #0xF6,#0x3E,#0x6B,#0x00	; 7028470
   9D0C B4 45 6B 00        5035 	.byte #0xB4,#0x45,#0x6B,#0x00	; 7030196
   9D10 C1 49 6B 00        5036 	.byte #0xC1,#0x49,#0x6B,#0x00	; 7031233
   9D14 2B 51 6B 00        5037 	.byte #0x2B,#0x51,#0x6B,#0x00	; 7033131
   9D18 5E 5D 6B 00        5038 	.byte #0x5E,#0x5D,#0x6B,#0x00	; 7036254
   9D1C FF 60 6B 00        5039 	.byte #0xFF,#0x60,#0x6B,#0x00	; 7037183
   9D20 8A 6C 6B 00        5040 	.byte #0x8A,#0x6C,#0x6B,#0x00	; 7040138
   9D24 60 74 6B 00        5041 	.byte #0x60,#0x74,#0x6B,#0x00	; 7042144
   9D28 15 78 6B 00        5042 	.byte #0x15,#0x78,#0x6B,#0x00	; 7043093
   9D2C E4 82 6B 00        5043 	.byte #0xE4,#0x82,#0x6B,#0x00	; 7045860
   9D30 91 8E 6B 00        5044 	.byte #0x91,#0x8E,#0x6B,#0x00	; 7048849
   9D34 7B 96 6B 00        5045 	.byte #0x7B,#0x96,#0x6B,#0x00	; 7050875
   9D38 0E 9A 6B 00        5046 	.byte #0x0E,#0x9A,#0x6B,#0x00	; 7051790
   9D3C AF A7 6B 00        5047 	.byte #0xAF,#0xA7,#0x6B,#0x00	; 7055279
   9D40 DA AB 6B 00        5048 	.byte #0xDA,#0xAB,#0x6B,#0x00	; 7056346
   9D44 30 B3 6B 00        5049 	.byte #0x30,#0xB3,#0x6B,#0x00	; 7058224
   9D48 45 BF 6B 00        5050 	.byte #0x45,#0xBF,#0x6B,#0x00	; 7061317
   9D4C 07 C4 6B 00        5051 	.byte #0x07,#0xC4,#0x6B,#0x00	; 7062535
   9D50 72 C8 6B 00        5052 	.byte #0x72,#0xC8,#0x6B,#0x00	; 7063666
   9D54 98 D0 6B 00        5053 	.byte #0x98,#0xD0,#0x6B,#0x00	; 7065752
   9D58 ED DC 6B 00        5054 	.byte #0xED,#0xDC,#0x6B,#0x00	; 7068909
   9D5C 4C E1 6B 00        5055 	.byte #0x4C,#0xE1,#0x6B,#0x00	; 7070028
   9D60 39 ED 6B 00        5056 	.byte #0x39,#0xED,#0x6B,#0x00	; 7073081
   9D64 D3 F5 6B 00        5057 	.byte #0xD3,#0xF5,#0x6B,#0x00	; 7075283
   9D68 A6 F9 6B 00        5058 	.byte #0xA6,#0xF9,#0x6B,#0x00	; 7076262
   9D6C 10 07 6C 00        5059 	.byte #0x10,#0x07,#0x6C,#0x00	; 7079696
   9D70 65 0B 6C 00        5060 	.byte #0x65,#0x0B,#0x6C,#0x00	; 7080805
   9D74 8F 13 6C 00        5061 	.byte #0x8F,#0x13,#0x6C,#0x00	; 7082895
   9D78 FA 1F 6C 00        5062 	.byte #0xFA,#0x1F,#0x6C,#0x00	; 7086074
   9D7C 5B 22 6C 00        5063 	.byte #0x5B,#0x22,#0x6C,#0x00	; 7086683
   9D80 2E 2E 6C 00        5064 	.byte #0x2E,#0x2E,#0x6C,#0x00	; 7089710
   9D84 C4 36 6C 00        5065 	.byte #0xC4,#0x36,#0x6C,#0x00	; 7091908
   9D88 B1 3A 6C 00        5066 	.byte #0xB1,#0x3A,#0x6C,#0x00	; 7092913
   9D8C F3 41 6C 00        5067 	.byte #0xF3,#0x41,#0x6C,#0x00	; 7094771
   9D90 86 4D 6C 00        5068 	.byte #0x86,#0x4D,#0x6C,#0x00	; 7097734
   9D94 6C 55 6C 00        5069 	.byte #0x6C,#0x55,#0x6C,#0x00	; 7099756
   9D98 19 59 6C 00        5070 	.byte #0x19,#0x59,#0x6C,#0x00	; 7100697
   9D9C B8 64 6C 00        5071 	.byte #0xB8,#0x64,#0x6C,#0x00	; 7103672
   9DA0 CD 68 6C 00        5072 	.byte #0xCD,#0x68,#0x6C,#0x00	; 7104717
   9DA4 27 70 6C 00        5073 	.byte #0x27,#0x70,#0x6C,#0x00	; 7106599
   9DA8 52 7C 6C 00        5074 	.byte #0x52,#0x7C,#0x6C,#0x00	; 7109714
   9DAC A3 86 6C 00        5075 	.byte #0xA3,#0x86,#0x6C,#0x00	; 7112355
   9DB0 D6 8A 6C 00        5076 	.byte #0xD6,#0x8A,#0x6C,#0x00	; 7113430
   9DB4 3C 92 6C 00        5077 	.byte #0x3C,#0x92,#0x6C,#0x00	; 7115324
   9DB8 49 9E 6C 00        5078 	.byte #0x49,#0x9E,#0x6C,#0x00	; 7118409
   9DBC E8 A3 6C 00        5079 	.byte #0xE8,#0xA3,#0x6C,#0x00	; 7119848
   9DC0 9D AF 6C 00        5080 	.byte #0x9D,#0xAF,#0x6C,#0x00	; 7122845
   9DC4 77 B7 6C 00        5081 	.byte #0x77,#0xB7,#0x6C,#0x00	; 7124855
   9DC8 02 BB 6C 00        5082 	.byte #0x02,#0xBB,#0x6C,#0x00	; 7125762
   9DCC 40 C0 6C 00        5083 	.byte #0x40,#0xC0,#0x6C,#0x00	; 7127104
   9DD0 35 CC 6C 00        5084 	.byte #0x35,#0xCC,#0x6C,#0x00	; 7130165
   9DD4 DF D4 6C 00        5085 	.byte #0xDF,#0xD4,#0x6C,#0x00	; 7132383
   9DD8 AA D8 6C 00        5086 	.byte #0xAA,#0xD8,#0x6C,#0x00	; 7133354
   9DDC 0B E5 6C 00        5087 	.byte #0x0B,#0xE5,#0x6C,#0x00	; 7136523
   9DE0 7E E9 6C 00        5088 	.byte #0x7E,#0xE9,#0x6C,#0x00	; 7137662
   9DE4 94 F1 6C 00        5089 	.byte #0x94,#0xF1,#0x6C,#0x00	; 7139732
   9DE8 E1 FD 6C 00        5090 	.byte #0xE1,#0xFD,#0x6C,#0x00	; 7142881
   9DEC 76 04 6D 00        5091 	.byte #0x76,#0x04,#0x6D,#0x00	; 7144566
   9DF0 03 08 6D 00        5092 	.byte #0x03,#0x08,#0x6D,#0x00	; 7145475
   9DF4 E9 10 6D 00        5093 	.byte #0xE9,#0x10,#0x6D,#0x00	; 7147753
   9DF8 9C 1C 6D 00        5094 	.byte #0x9C,#0x1C,#0x6D,#0x00	; 7150748
   9DFC 3D 21 6D 00        5095 	.byte #0x3D,#0x21,#0x6D,#0x00	; 7151933
   9E00 48 2D 6D 00        5096 	.byte #0x48,#0x2D,#0x6D,#0x00	; 7155016
   9E04 A2 35 6D 00        5097 	.byte #0xA2,#0x35,#0x6D,#0x00	; 7157154
   9E08 D7 39 6D 00        5098 	.byte #0xD7,#0x39,#0x6D,#0x00	; 7158231
   9E0C 95 42 6D 00        5099 	.byte #0x95,#0x42,#0x6D,#0x00	; 7160469
   9E10 E0 4E 6D 00        5100 	.byte #0xE0,#0x4E,#0x6D,#0x00	; 7163616
   9E14 0A 56 6D 00        5101 	.byte #0x0A,#0x56,#0x6D,#0x00	; 7165450
   9E18 7F 5A 6D 00        5102 	.byte #0x7F,#0x5A,#0x6D,#0x00	; 7166591
   9E1C DE 67 6D 00        5103 	.byte #0xDE,#0x67,#0x6D,#0x00	; 7170014
   9E20 AB 6B 6D 00        5104 	.byte #0xAB,#0x6B,#0x6D,#0x00	; 7170987
   9E24 41 73 6D 00        5105 	.byte #0x41,#0x73,#0x6D,#0x00	; 7172929
   9E28 34 7F 6D 00        5106 	.byte #0x34,#0x7F,#0x6D,#0x00	; 7175988
   9E2C C5 85 6D 00        5107 	.byte #0xC5,#0x85,#0x6D,#0x00	; 7177669
   9E30 B0 89 6D 00        5108 	.byte #0xB0,#0x89,#0x6D,#0x00	; 7178672
   9E34 5A 91 6D 00        5109 	.byte #0x5A,#0x91,#0x6D,#0x00	; 7180634
   9E38 2F 9D 6D 00        5110 	.byte #0x2F,#0x9D,#0x6D,#0x00	; 7183663
   9E3C 8E A0 6D 00        5111 	.byte #0x8E,#0xA0,#0x6D,#0x00	; 7184526
   9E40 FB AC 6D 00        5112 	.byte #0xFB,#0xAC,#0x6D,#0x00	; 7187707
   9E44 11 B4 6D 00        5113 	.byte #0x11,#0xB4,#0x6D,#0x00	; 7189521
   9E48 64 B8 6D 00        5114 	.byte #0x64,#0xB8,#0x6D,#0x00	; 7190628
   9E4C 26 C3 6D 00        5115 	.byte #0x26,#0xC3,#0x6D,#0x00	; 7193382
   9E50 53 CF 6D 00        5116 	.byte #0x53,#0xCF,#0x6D,#0x00	; 7196499
   9E54 B9 D7 6D 00        5117 	.byte #0xB9,#0xD7,#0x6D,#0x00	; 7198649
   9E58 CC DB 6D 00        5118 	.byte #0xCC,#0xDB,#0x6D,#0x00	; 7199692
   9E5C 6D E6 6D 00        5119 	.byte #0x6D,#0xE6,#0x6D,#0x00	; 7202413
   9E60 18 EA 6D 00        5120 	.byte #0x18,#0xEA,#0x6D,#0x00	; 7203352
   9E64 F2 F2 6D 00        5121 	.byte #0xF2,#0xF2,#0x6D,#0x00	; 7205618
   9E68 87 FE 6D 00        5122 	.byte #0x87,#0xFE,#0x6D,#0x00	; 7208583
   9E6C DC 01 6E 00        5123 	.byte #0xDC,#0x01,#0x6E,#0x00	; 7209436
   9E70 A9 0D 6E 00        5124 	.byte #0xA9,#0x0D,#0x6E,#0x00	; 7212457
   9E74 43 15 6E 00        5125 	.byte #0x43,#0x15,#0x6E,#0x00	; 7214403
   9E78 36 19 6E 00        5126 	.byte #0x36,#0x19,#0x6E,#0x00	; 7215414
   9E7C 97 24 6E 00        5127 	.byte #0x97,#0x24,#0x6E,#0x00	; 7218327
   9E80 E2 28 6E 00        5128 	.byte #0xE2,#0x28,#0x6E,#0x00	; 7219426
   9E84 08 30 6E 00        5129 	.byte #0x08,#0x30,#0x6E,#0x00	; 7221256
   9E88 7D 3C 6E 00        5130 	.byte #0x7D,#0x3C,#0x6E,#0x00	; 7224445
   9E8C 3F 47 6E 00        5131 	.byte #0x3F,#0x47,#0x6E,#0x00	; 7227199
   9E90 4A 4B 6E 00        5132 	.byte #0x4A,#0x4B,#0x6E,#0x00	; 7228234
   9E94 A0 53 6E 00        5133 	.byte #0xA0,#0x53,#0x6E,#0x00	; 7230368
   9E98 D5 5F 6E 00        5134 	.byte #0xD5,#0x5F,#0x6E,#0x00	; 7233493
   9E9C 74 62 6E 00        5135 	.byte #0x74,#0x62,#0x6E,#0x00	; 7234164
   9EA0 01 6E 6E 00        5136 	.byte #0x01,#0x6E,#0x6E,#0x00	; 7237121
   9EA4 EB 76 6E 00        5137 	.byte #0xEB,#0x76,#0x6E,#0x00	; 7239403
   9EA8 9E 7A 6E 00        5138 	.byte #0x9E,#0x7A,#0x6E,#0x00	; 7240350
   9EAC 6F 80 6E 00        5139 	.byte #0x6F,#0x80,#0x6E,#0x00	; 7241839
   9EB0 1A 8C 6E 00        5140 	.byte #0x1A,#0x8C,#0x6E,#0x00	; 7244826
   9EB4 F0 94 6E 00        5141 	.byte #0xF0,#0x94,#0x6E,#0x00	; 7247088
   9EB8 85 98 6E 00        5142 	.byte #0x85,#0x98,#0x6E,#0x00	; 7248005
   9EBC 24 A5 6E 00        5143 	.byte #0x24,#0xA5,#0x6E,#0x00	; 7251236
   9EC0 51 A9 6E 00        5144 	.byte #0x51,#0xA9,#0x6E,#0x00	; 7252305
   9EC4 BB B1 6E 00        5145 	.byte #0xBB,#0xB1,#0x6E,#0x00	; 7254459
   9EC8 CE BD 6E 00        5146 	.byte #0xCE,#0xBD,#0x6E,#0x00	; 7257550
   9ECC 8C C6 6E 00        5147 	.byte #0x8C,#0xC6,#0x6E,#0x00	; 7259788
   9ED0 F9 CA 6E 00        5148 	.byte #0xF9,#0xCA,#0x6E,#0x00	; 7260921
   9ED4 13 D2 6E 00        5149 	.byte #0x13,#0xD2,#0x6E,#0x00	; 7262739
   9ED8 66 DE 6E 00        5150 	.byte #0x66,#0xDE,#0x6E,#0x00	; 7265894
   9EDC C7 E3 6E 00        5151 	.byte #0xC7,#0xE3,#0x6E,#0x00	; 7267271
   9EE0 B2 EF 6E 00        5152 	.byte #0xB2,#0xEF,#0x6E,#0x00	; 7270322
   9EE4 58 F7 6E 00        5153 	.byte #0x58,#0xF7,#0x6E,#0x00	; 7272280
   9EE8 2D FB 6E 00        5154 	.byte #0x2D,#0xFB,#0x6E,#0x00	; 7273261
   9EEC BA 02 6F 00        5155 	.byte #0xBA,#0x02,#0x6F,#0x00	; 7275194
   9EF0 CF 0E 6F 00        5156 	.byte #0xCF,#0x0E,#0x6F,#0x00	; 7278287
   9EF4 25 16 6F 00        5157 	.byte #0x25,#0x16,#0x6F,#0x00	; 7280165
   9EF8 50 1A 6F 00        5158 	.byte #0x50,#0x1A,#0x6F,#0x00	; 7281232
   9EFC F1 27 6F 00        5159 	.byte #0xF1,#0x27,#0x6F,#0x00	; 7284721
   9F00 84 2B 6F 00        5160 	.byte #0x84,#0x2B,#0x6F,#0x00	; 7285636
   9F04 6E 33 6F 00        5161 	.byte #0x6E,#0x33,#0x6F,#0x00	; 7287662
   9F08 1B 3F 6F 00        5162 	.byte #0x1B,#0x3F,#0x6F,#0x00	; 7290651
   9F0C 59 44 6F 00        5163 	.byte #0x59,#0x44,#0x6F,#0x00	; 7291993
   9F10 2C 48 6F 00        5164 	.byte #0x2C,#0x48,#0x6F,#0x00	; 7292972
   9F14 C6 50 6F 00        5165 	.byte #0xC6,#0x50,#0x6F,#0x00	; 7295174
   9F18 B3 5C 6F 00        5166 	.byte #0xB3,#0x5C,#0x6F,#0x00	; 7298227
   9F1C 12 61 6F 00        5167 	.byte #0x12,#0x61,#0x6F,#0x00	; 7299346
   9F20 67 6D 6F 00        5168 	.byte #0x67,#0x6D,#0x6F,#0x00	; 7302503
   9F24 8D 75 6F 00        5169 	.byte #0x8D,#0x75,#0x6F,#0x00	; 7304589
   9F28 F8 79 6F 00        5170 	.byte #0xF8,#0x79,#0x6F,#0x00	; 7305720
   9F2C 09 83 6F 00        5171 	.byte #0x09,#0x83,#0x6F,#0x00	; 7308041
   9F30 7C 8F 6F 00        5172 	.byte #0x7C,#0x8F,#0x6F,#0x00	; 7311228
   9F34 96 97 6F 00        5173 	.byte #0x96,#0x97,#0x6F,#0x00	; 7313302
   9F38 E3 9B 6F 00        5174 	.byte #0xE3,#0x9B,#0x6F,#0x00	; 7314403
   9F3C 42 A6 6F 00        5175 	.byte #0x42,#0xA6,#0x6F,#0x00	; 7317058
   9F40 37 AA 6F 00        5176 	.byte #0x37,#0xAA,#0x6F,#0x00	; 7318071
   9F44 DD B2 6F 00        5177 	.byte #0xDD,#0xB2,#0x6F,#0x00	; 7320285
   9F48 A8 BE 6F 00        5178 	.byte #0xA8,#0xBE,#0x6F,#0x00	; 7323304
   9F4C EA C5 6F 00        5179 	.byte #0xEA,#0xC5,#0x6F,#0x00	; 7325162
   9F50 9F C9 6F 00        5180 	.byte #0x9F,#0xC9,#0x6F,#0x00	; 7326111
   9F54 75 D1 6F 00        5181 	.byte #0x75,#0xD1,#0x6F,#0x00	; 7328117
   9F58 00 DD 6F 00        5182 	.byte #0x00,#0xDD,#0x6F,#0x00	; 7331072
   9F5C A1 E0 6F 00        5183 	.byte #0xA1,#0xE0,#0x6F,#0x00	; 7332001
   9F60 D4 EC 6F 00        5184 	.byte #0xD4,#0xEC,#0x6F,#0x00	; 7335124
   9F64 3E F4 6F 00        5185 	.byte #0x3E,#0xF4,#0x6F,#0x00	; 7337022
   9F68 4B F8 6F 00        5186 	.byte #0x4B,#0xF8,#0x6F,#0x00	; 7338059
   9F6C 93 02 70 00        5187 	.byte #0x93,#0x02,#0x70,#0x00	; 7340691
   9F70 E6 0E 70 00        5188 	.byte #0xE6,#0x0E,#0x70,#0x00	; 7343846
   9F74 0C 16 70 00        5189 	.byte #0x0C,#0x16,#0x70,#0x00	; 7345676
   9F78 79 1A 70 00        5190 	.byte #0x79,#0x1A,#0x70,#0x00	; 7346809
   9F7C D8 27 70 00        5191 	.byte #0xD8,#0x27,#0x70,#0x00	; 7350232
   9F80 AD 2B 70 00        5192 	.byte #0xAD,#0x2B,#0x70,#0x00	; 7351213
   9F84 47 33 70 00        5193 	.byte #0x47,#0x33,#0x70,#0x00	; 7353159
   9F88 32 3F 70 00        5194 	.byte #0x32,#0x3F,#0x70,#0x00	; 7356210
   9F8C 70 44 70 00        5195 	.byte #0x70,#0x44,#0x70,#0x00	; 7357552
   9F90 05 48 70 00        5196 	.byte #0x05,#0x48,#0x70,#0x00	; 7358469
   9F94 EF 50 70 00        5197 	.byte #0xEF,#0x50,#0x70,#0x00	; 7360751
   9F98 9A 5C 70 00        5198 	.byte #0x9A,#0x5C,#0x70,#0x00	; 7363738
   9F9C 3B 61 70 00        5199 	.byte #0x3B,#0x61,#0x70,#0x00	; 7364923
   9FA0 4E 6D 70 00        5200 	.byte #0x4E,#0x6D,#0x70,#0x00	; 7368014
   9FA4 A4 75 70 00        5201 	.byte #0xA4,#0x75,#0x70,#0x00	; 7370148
   9FA8 D1 79 70 00        5202 	.byte #0xD1,#0x79,#0x70,#0x00	; 7371217
   9FAC 20 83 70 00        5203 	.byte #0x20,#0x83,#0x70,#0x00	; 7373600
   9FB0 55 8F 70 00        5204 	.byte #0x55,#0x8F,#0x70,#0x00	; 7376725
   9FB4 BF 97 70 00        5205 	.byte #0xBF,#0x97,#0x70,#0x00	; 7378879
   9FB8 CA 9B 70 00        5206 	.byte #0xCA,#0x9B,#0x70,#0x00	; 7379914
   9FBC 6B A6 70 00        5207 	.byte #0x6B,#0xA6,#0x70,#0x00	; 7382635
   9FC0 1E AA 70 00        5208 	.byte #0x1E,#0xAA,#0x70,#0x00	; 7383582
   9FC4 F4 B2 70 00        5209 	.byte #0xF4,#0xB2,#0x70,#0x00	; 7385844
   9FC8 81 BE 70 00        5210 	.byte #0x81,#0xBE,#0x70,#0x00	; 7388801
   9FCC C3 C5 70 00        5211 	.byte #0xC3,#0xC5,#0x70,#0x00	; 7390659
   9FD0 B6 C9 70 00        5212 	.byte #0xB6,#0xC9,#0x70,#0x00	; 7391670
   9FD4 5C D1 70 00        5213 	.byte #0x5C,#0xD1,#0x70,#0x00	; 7393628
   9FD8 29 DD 70 00        5214 	.byte #0x29,#0xDD,#0x70,#0x00	; 7396649
   9FDC 88 E0 70 00        5215 	.byte #0x88,#0xE0,#0x70,#0x00	; 7397512
   9FE0 FD EC 70 00        5216 	.byte #0xFD,#0xEC,#0x70,#0x00	; 7400701
   9FE4 17 F4 70 00        5217 	.byte #0x17,#0xF4,#0x70,#0x00	; 7402519
   9FE8 62 F8 70 00        5218 	.byte #0x62,#0xF8,#0x70,#0x00	; 7403618
   9FEC F5 01 71 00        5219 	.byte #0xF5,#0x01,#0x71,#0x00	; 7406069
   9FF0 80 0D 71 00        5220 	.byte #0x80,#0x0D,#0x71,#0x00	; 7409024
   9FF4 6A 15 71 00        5221 	.byte #0x6A,#0x15,#0x71,#0x00	; 7411050
   9FF8 1F 19 71 00        5222 	.byte #0x1F,#0x19,#0x71,#0x00	; 7411999
   9FFC BE 24 71 00        5223 	.byte #0xBE,#0x24,#0x71,#0x00	; 7414974
   A000 CB 28 71 00        5224 	.byte #0xCB,#0x28,#0x71,#0x00	; 7416011
   A004 21 30 71 00        5225 	.byte #0x21,#0x30,#0x71,#0x00	; 7417889
   A008 54 3C 71 00        5226 	.byte #0x54,#0x3C,#0x71,#0x00	; 7421012
   A00C 16 47 71 00        5227 	.byte #0x16,#0x47,#0x71,#0x00	; 7423766
   A010 63 4B 71 00        5228 	.byte #0x63,#0x4B,#0x71,#0x00	; 7424867
   A014 89 53 71 00        5229 	.byte #0x89,#0x53,#0x71,#0x00	; 7426953
   A018 FC 5F 71 00        5230 	.byte #0xFC,#0x5F,#0x71,#0x00	; 7430140
   A01C 5D 62 71 00        5231 	.byte #0x5D,#0x62,#0x71,#0x00	; 7430749
   A020 28 6E 71 00        5232 	.byte #0x28,#0x6E,#0x71,#0x00	; 7433768
   A024 C2 76 71 00        5233 	.byte #0xC2,#0x76,#0x71,#0x00	; 7435970
   A028 B7 7A 71 00        5234 	.byte #0xB7,#0x7A,#0x71,#0x00	; 7436983
   A02C 46 80 71 00        5235 	.byte #0x46,#0x80,#0x71,#0x00	; 7438406
   A030 33 8C 71 00        5236 	.byte #0x33,#0x8C,#0x71,#0x00	; 7441459
   A034 D9 94 71 00        5237 	.byte #0xD9,#0x94,#0x71,#0x00	; 7443673
   A038 AC 98 71 00        5238 	.byte #0xAC,#0x98,#0x71,#0x00	; 7444652
   A03C 0D A5 71 00        5239 	.byte #0x0D,#0xA5,#0x71,#0x00	; 7447821
   A040 78 A9 71 00        5240 	.byte #0x78,#0xA9,#0x71,#0x00	; 7448952
   A044 92 B1 71 00        5241 	.byte #0x92,#0xB1,#0x71,#0x00	; 7451026
   A048 E7 BD 71 00        5242 	.byte #0xE7,#0xBD,#0x71,#0x00	; 7454183
   A04C A5 C6 71 00        5243 	.byte #0xA5,#0xC6,#0x71,#0x00	; 7456421
   A050 D0 CA 71 00        5244 	.byte #0xD0,#0xCA,#0x71,#0x00	; 7457488
   A054 3A D2 71 00        5245 	.byte #0x3A,#0xD2,#0x71,#0x00	; 7459386
   A058 4F DE 71 00        5246 	.byte #0x4F,#0xDE,#0x71,#0x00	; 7462479
   A05C EE E3 71 00        5247 	.byte #0xEE,#0xE3,#0x71,#0x00	; 7463918
   A060 9B EF 71 00        5248 	.byte #0x9B,#0xEF,#0x71,#0x00	; 7466907
   A064 71 F7 71 00        5249 	.byte #0x71,#0xF7,#0x71,#0x00	; 7468913
   A068 04 FB 71 00        5250 	.byte #0x04,#0xFB,#0x71,#0x00	; 7469828
   A06C 5F 04 72 00        5251 	.byte #0x5F,#0x04,#0x72,#0x00	; 7472223
   A070 2A 08 72 00        5252 	.byte #0x2A,#0x08,#0x72,#0x00	; 7473194
   A074 C0 10 72 00        5253 	.byte #0xC0,#0x10,#0x72,#0x00	; 7475392
   A078 B5 1C 72 00        5254 	.byte #0xB5,#0x1C,#0x72,#0x00	; 7478453
   A07C 14 21 72 00        5255 	.byte #0x14,#0x21,#0x72,#0x00	; 7479572
   A080 61 2D 72 00        5256 	.byte #0x61,#0x2D,#0x72,#0x00	; 7482721
   A084 8B 35 72 00        5257 	.byte #0x8B,#0x35,#0x72,#0x00	; 7484811
   A088 FE 39 72 00        5258 	.byte #0xFE,#0x39,#0x72,#0x00	; 7485950
   A08C BC 42 72 00        5259 	.byte #0xBC,#0x42,#0x72,#0x00	; 7488188
   A090 C9 4E 72 00        5260 	.byte #0xC9,#0x4E,#0x72,#0x00	; 7491273
   A094 23 56 72 00        5261 	.byte #0x23,#0x56,#0x72,#0x00	; 7493155
   A098 56 5A 72 00        5262 	.byte #0x56,#0x5A,#0x72,#0x00	; 7494230
   A09C F7 67 72 00        5263 	.byte #0xF7,#0x67,#0x72,#0x00	; 7497719
   A0A0 82 6B 72 00        5264 	.byte #0x82,#0x6B,#0x72,#0x00	; 7498626
   A0A4 68 73 72 00        5265 	.byte #0x68,#0x73,#0x72,#0x00	; 7500648
   A0A8 1D 7F 72 00        5266 	.byte #0x1D,#0x7F,#0x72,#0x00	; 7503645
   A0AC EC 85 72 00        5267 	.byte #0xEC,#0x85,#0x72,#0x00	; 7505388
   A0B0 99 89 72 00        5268 	.byte #0x99,#0x89,#0x72,#0x00	; 7506329
   A0B4 73 91 72 00        5269 	.byte #0x73,#0x91,#0x72,#0x00	; 7508339
   A0B8 06 9D 72 00        5270 	.byte #0x06,#0x9D,#0x72,#0x00	; 7511302
   A0BC A7 A0 72 00        5271 	.byte #0xA7,#0xA0,#0x72,#0x00	; 7512231
   A0C0 D2 AC 72 00        5272 	.byte #0xD2,#0xAC,#0x72,#0x00	; 7515346
   A0C4 38 B4 72 00        5273 	.byte #0x38,#0xB4,#0x72,#0x00	; 7517240
   A0C8 4D B8 72 00        5274 	.byte #0x4D,#0xB8,#0x72,#0x00	; 7518285
   A0CC 0F C3 72 00        5275 	.byte #0x0F,#0xC3,#0x72,#0x00	; 7521039
   A0D0 7A CF 72 00        5276 	.byte #0x7A,#0xCF,#0x72,#0x00	; 7524218
   A0D4 90 D7 72 00        5277 	.byte #0x90,#0xD7,#0x72,#0x00	; 7526288
   A0D8 E5 DB 72 00        5278 	.byte #0xE5,#0xDB,#0x72,#0x00	; 7527397
   A0DC 44 E6 72 00        5279 	.byte #0x44,#0xE6,#0x72,#0x00	; 7530052
   A0E0 31 EA 72 00        5280 	.byte #0x31,#0xEA,#0x72,#0x00	; 7531057
   A0E4 DB F2 72 00        5281 	.byte #0xDB,#0xF2,#0x72,#0x00	; 7533275
   A0E8 AE FE 72 00        5282 	.byte #0xAE,#0xFE,#0x72,#0x00	; 7536302
   A0EC 39 07 73 00        5283 	.byte #0x39,#0x07,#0x73,#0x00	; 7538489
   A0F0 4C 0B 73 00        5284 	.byte #0x4C,#0x0B,#0x73,#0x00	; 7539532
   A0F4 A6 13 73 00        5285 	.byte #0xA6,#0x13,#0x73,#0x00	; 7541670
   A0F8 D3 1F 73 00        5286 	.byte #0xD3,#0x1F,#0x73,#0x00	; 7544787
   A0FC 72 22 73 00        5287 	.byte #0x72,#0x22,#0x73,#0x00	; 7545458
   A100 07 2E 73 00        5288 	.byte #0x07,#0x2E,#0x73,#0x00	; 7548423
   A104 ED 36 73 00        5289 	.byte #0xED,#0x36,#0x73,#0x00	; 7550701
   A108 98 3A 73 00        5290 	.byte #0x98,#0x3A,#0x73,#0x00	; 7551640
   A10C DA 41 73 00        5291 	.byte #0xDA,#0x41,#0x73,#0x00	; 7553498
   A110 AF 4D 73 00        5292 	.byte #0xAF,#0x4D,#0x73,#0x00	; 7556527
   A114 45 55 73 00        5293 	.byte #0x45,#0x55,#0x73,#0x00	; 7558469
   A118 30 59 73 00        5294 	.byte #0x30,#0x59,#0x73,#0x00	; 7559472
   A11C 91 64 73 00        5295 	.byte #0x91,#0x64,#0x73,#0x00	; 7562385
   A120 E4 68 73 00        5296 	.byte #0xE4,#0x68,#0x73,#0x00	; 7563492
   A124 0E 70 73 00        5297 	.byte #0x0E,#0x70,#0x73,#0x00	; 7565326
   A128 7B 7C 73 00        5298 	.byte #0x7B,#0x7C,#0x73,#0x00	; 7568507
   A12C 8A 86 73 00        5299 	.byte #0x8A,#0x86,#0x73,#0x00	; 7571082
   A130 FF 8A 73 00        5300 	.byte #0xFF,#0x8A,#0x73,#0x00	; 7572223
   A134 15 92 73 00        5301 	.byte #0x15,#0x92,#0x73,#0x00	; 7574037
   A138 60 9E 73 00        5302 	.byte #0x60,#0x9E,#0x73,#0x00	; 7577184
   A13C C1 A3 73 00        5303 	.byte #0xC1,#0xA3,#0x73,#0x00	; 7578561
   A140 B4 AF 73 00        5304 	.byte #0xB4,#0xAF,#0x73,#0x00	; 7581620
   A144 5E B7 73 00        5305 	.byte #0x5E,#0xB7,#0x73,#0x00	; 7583582
   A148 2B BB 73 00        5306 	.byte #0x2B,#0xBB,#0x73,#0x00	; 7584555
   A14C 69 C0 73 00        5307 	.byte #0x69,#0xC0,#0x73,#0x00	; 7585897
   A150 1C CC 73 00        5308 	.byte #0x1C,#0xCC,#0x73,#0x00	; 7588892
   A154 F6 D4 73 00        5309 	.byte #0xF6,#0xD4,#0x73,#0x00	; 7591158
   A158 83 D8 73 00        5310 	.byte #0x83,#0xD8,#0x73,#0x00	; 7592067
   A15C 22 E5 73 00        5311 	.byte #0x22,#0xE5,#0x73,#0x00	; 7595298
   A160 57 E9 73 00        5312 	.byte #0x57,#0xE9,#0x73,#0x00	; 7596375
   A164 BD F1 73 00        5313 	.byte #0xBD,#0xF1,#0x73,#0x00	; 7598525
   A168 C8 FD 73 00        5314 	.byte #0xC8,#0xFD,#0x73,#0x00	; 7601608
   A16C 7E 03 74 00        5315 	.byte #0x7E,#0x03,#0x74,#0x00	; 7603070
   A170 0B 0F 74 00        5316 	.byte #0x0B,#0x0F,#0x74,#0x00	; 7606027
   A174 E1 17 74 00        5317 	.byte #0xE1,#0x17,#0x74,#0x00	; 7608289
   A178 94 1B 74 00        5318 	.byte #0x94,#0x1B,#0x74,#0x00	; 7609236
   A17C 35 26 74 00        5319 	.byte #0x35,#0x26,#0x74,#0x00	; 7611957
   A180 40 2A 74 00        5320 	.byte #0x40,#0x2A,#0x74,#0x00	; 7612992
   A184 AA 32 74 00        5321 	.byte #0xAA,#0x32,#0x74,#0x00	; 7615146
   A188 DF 3E 74 00        5322 	.byte #0xDF,#0x3E,#0x74,#0x00	; 7618271
   A18C 9D 45 74 00        5323 	.byte #0x9D,#0x45,#0x74,#0x00	; 7619997
   A190 E8 49 74 00        5324 	.byte #0xE8,#0x49,#0x74,#0x00	; 7621096
   A194 02 51 74 00        5325 	.byte #0x02,#0x51,#0x74,#0x00	; 7622914
   A198 77 5D 74 00        5326 	.byte #0x77,#0x5D,#0x74,#0x00	; 7626103
   A19C D6 60 74 00        5327 	.byte #0xD6,#0x60,#0x74,#0x00	; 7626966
   A1A0 A3 6C 74 00        5328 	.byte #0xA3,#0x6C,#0x74,#0x00	; 7629987
   A1A4 49 74 74 00        5329 	.byte #0x49,#0x74,#0x74,#0x00	; 7631945
   A1A8 3C 78 74 00        5330 	.byte #0x3C,#0x78,#0x74,#0x00	; 7632956
   A1AC CD 82 74 00        5331 	.byte #0xCD,#0x82,#0x74,#0x00	; 7635661
   A1B0 B8 8E 74 00        5332 	.byte #0xB8,#0x8E,#0x74,#0x00	; 7638712
   A1B4 52 96 74 00        5333 	.byte #0x52,#0x96,#0x74,#0x00	; 7640658
   A1B8 27 9A 74 00        5334 	.byte #0x27,#0x9A,#0x74,#0x00	; 7641639
   A1BC 86 A7 74 00        5335 	.byte #0x86,#0xA7,#0x74,#0x00	; 7645062
   A1C0 F3 AB 74 00        5336 	.byte #0xF3,#0xAB,#0x74,#0x00	; 7646195
   A1C4 19 B3 74 00        5337 	.byte #0x19,#0xB3,#0x74,#0x00	; 7648025
   A1C8 6C BF 74 00        5338 	.byte #0x6C,#0xBF,#0x74,#0x00	; 7651180
   A1CC 2E C4 74 00        5339 	.byte #0x2E,#0xC4,#0x74,#0x00	; 7652398
   A1D0 5B C8 74 00        5340 	.byte #0x5B,#0xC8,#0x74,#0x00	; 7653467
   A1D4 B1 D0 74 00        5341 	.byte #0xB1,#0xD0,#0x74,#0x00	; 7655601
   A1D8 C4 DC 74 00        5342 	.byte #0xC4,#0xDC,#0x74,#0x00	; 7658692
   A1DC 65 E1 74 00        5343 	.byte #0x65,#0xE1,#0x74,#0x00	; 7659877
   A1E0 10 ED 74 00        5344 	.byte #0x10,#0xED,#0x74,#0x00	; 7662864
   A1E4 FA F5 74 00        5345 	.byte #0xFA,#0xF5,#0x74,#0x00	; 7665146
   A1E8 8F F9 74 00        5346 	.byte #0x8F,#0xF9,#0x74,#0x00	; 7666063
   A1EC 18 00 75 00        5347 	.byte #0x18,#0x00,#0x75,#0x00	; 7667736
   A1F0 6D 0C 75 00        5348 	.byte #0x6D,#0x0C,#0x75,#0x00	; 7670893
   A1F4 87 14 75 00        5349 	.byte #0x87,#0x14,#0x75,#0x00	; 7672967
   A1F8 F2 18 75 00        5350 	.byte #0xF2,#0x18,#0x75,#0x00	; 7674098
   A1FC 53 25 75 00        5351 	.byte #0x53,#0x25,#0x75,#0x00	; 7677267
   A200 26 29 75 00        5352 	.byte #0x26,#0x29,#0x75,#0x00	; 7678246
   A204 CC 31 75 00        5353 	.byte #0xCC,#0x31,#0x75,#0x00	; 7680460
   A208 B9 3D 75 00        5354 	.byte #0xB9,#0x3D,#0x75,#0x00	; 7683513
   A20C FB 46 75 00        5355 	.byte #0xFB,#0x46,#0x75,#0x00	; 7685883
   A210 8E 4A 75 00        5356 	.byte #0x8E,#0x4A,#0x75,#0x00	; 7686798
   A214 64 52 75 00        5357 	.byte #0x64,#0x52,#0x75,#0x00	; 7688804
   A218 11 5E 75 00        5358 	.byte #0x11,#0x5E,#0x75,#0x00	; 7691793
   A21C B0 63 75 00        5359 	.byte #0xB0,#0x63,#0x75,#0x00	; 7693232
   A220 C5 6F 75 00        5360 	.byte #0xC5,#0x6F,#0x75,#0x00	; 7696325
   A224 2F 77 75 00        5361 	.byte #0x2F,#0x77,#0x75,#0x00	; 7698223
   A228 5A 7B 75 00        5362 	.byte #0x5A,#0x7B,#0x75,#0x00	; 7699290
   A22C AB 81 75 00        5363 	.byte #0xAB,#0x81,#0x75,#0x00	; 7700907
   A230 DE 8D 75 00        5364 	.byte #0xDE,#0x8D,#0x75,#0x00	; 7704030
   A234 34 95 75 00        5365 	.byte #0x34,#0x95,#0x75,#0x00	; 7705908
   A238 41 99 75 00        5366 	.byte #0x41,#0x99,#0x75,#0x00	; 7706945
   A23C E0 A4 75 00        5367 	.byte #0xE0,#0xA4,#0x75,#0x00	; 7709920
   A240 95 A8 75 00        5368 	.byte #0x95,#0xA8,#0x75,#0x00	; 7710869
   A244 7F B0 75 00        5369 	.byte #0x7F,#0xB0,#0x75,#0x00	; 7712895
   A248 0A BC 75 00        5370 	.byte #0x0A,#0xBC,#0x75,#0x00	; 7715850
   A24C 48 C7 75 00        5371 	.byte #0x48,#0xC7,#0x75,#0x00	; 7718728
   A250 3D CB 75 00        5372 	.byte #0x3D,#0xCB,#0x75,#0x00	; 7719741
   A254 D7 D3 75 00        5373 	.byte #0xD7,#0xD3,#0x75,#0x00	; 7721943
   A258 A2 DF 75 00        5374 	.byte #0xA2,#0xDF,#0x75,#0x00	; 7724962
   A25C 03 E2 75 00        5375 	.byte #0x03,#0xE2,#0x75,#0x00	; 7725571
   A260 76 EE 75 00        5376 	.byte #0x76,#0xEE,#0x75,#0x00	; 7728758
   A264 9C F6 75 00        5377 	.byte #0x9C,#0xF6,#0x75,#0x00	; 7730844
   A268 E9 FA 75 00        5378 	.byte #0xE9,#0xFA,#0x75,#0x00	; 7731945
   A26C B2 05 76 00        5379 	.byte #0xB2,#0x05,#0x76,#0x00	; 7734706
   A270 C7 09 76 00        5380 	.byte #0xC7,#0x09,#0x76,#0x00	; 7735751
   A274 2D 11 76 00        5381 	.byte #0x2D,#0x11,#0x76,#0x00	; 7737645
   A278 58 1D 76 00        5382 	.byte #0x58,#0x1D,#0x76,#0x00	; 7740760
   A27C F9 20 76 00        5383 	.byte #0xF9,#0x20,#0x76,#0x00	; 7741689
   A280 8C 2C 76 00        5384 	.byte #0x8C,#0x2C,#0x76,#0x00	; 7744652
   A284 66 34 76 00        5385 	.byte #0x66,#0x34,#0x76,#0x00	; 7746662
   A288 13 38 76 00        5386 	.byte #0x13,#0x38,#0x76,#0x00	; 7747603
   A28C 51 43 76 00        5387 	.byte #0x51,#0x43,#0x76,#0x00	; 7750481
   A290 24 4F 76 00        5388 	.byte #0x24,#0x4F,#0x76,#0x00	; 7753508
   A294 CE 57 76 00        5389 	.byte #0xCE,#0x57,#0x76,#0x00	; 7755726
   A298 BB 5B 76 00        5390 	.byte #0xBB,#0x5B,#0x76,#0x00	; 7756731
   A29C 1A 66 76 00        5391 	.byte #0x1A,#0x66,#0x76,#0x00	; 7759386
   A2A0 6F 6A 76 00        5392 	.byte #0x6F,#0x6A,#0x76,#0x00	; 7760495
   A2A4 85 72 76 00        5393 	.byte #0x85,#0x72,#0x76,#0x00	; 7762565
   A2A8 F0 7E 76 00        5394 	.byte #0xF0,#0x7E,#0x76,#0x00	; 7765744
   A2AC 01 84 76 00        5395 	.byte #0x01,#0x84,#0x76,#0x00	; 7767041
   A2B0 74 88 76 00        5396 	.byte #0x74,#0x88,#0x76,#0x00	; 7768180
   A2B4 9E 90 76 00        5397 	.byte #0x9E,#0x90,#0x76,#0x00	; 7770270
   A2B8 EB 9C 76 00        5398 	.byte #0xEB,#0x9C,#0x76,#0x00	; 7773419
   A2BC 4A A1 76 00        5399 	.byte #0x4A,#0xA1,#0x76,#0x00	; 7774538
   A2C0 3F AD 76 00        5400 	.byte #0x3F,#0xAD,#0x76,#0x00	; 7777599
   A2C4 D5 B5 76 00        5401 	.byte #0xD5,#0xB5,#0x76,#0x00	; 7779797
   A2C8 A0 B9 76 00        5402 	.byte #0xA0,#0xB9,#0x76,#0x00	; 7780768
   A2CC E2 C2 76 00        5403 	.byte #0xE2,#0xC2,#0x76,#0x00	; 7783138
   A2D0 97 CE 76 00        5404 	.byte #0x97,#0xCE,#0x76,#0x00	; 7786135
   A2D4 7D D6 76 00        5405 	.byte #0x7D,#0xD6,#0x76,#0x00	; 7788157
   A2D8 08 DA 76 00        5406 	.byte #0x08,#0xDA,#0x76,#0x00	; 7789064
   A2DC A9 E7 76 00        5407 	.byte #0xA9,#0xE7,#0x76,#0x00	; 7792553
   A2E0 DC EB 76 00        5408 	.byte #0xDC,#0xEB,#0x76,#0x00	; 7793628
   A2E4 36 F3 76 00        5409 	.byte #0x36,#0xF3,#0x76,#0x00	; 7795510
   A2E8 43 FF 76 00        5410 	.byte #0x43,#0xFF,#0x76,#0x00	; 7798595
   A2EC D4 06 77 00        5411 	.byte #0xD4,#0x06,#0x77,#0x00	; 7800532
   A2F0 A1 0A 77 00        5412 	.byte #0xA1,#0x0A,#0x77,#0x00	; 7801505
   A2F4 4B 12 77 00        5413 	.byte #0x4B,#0x12,#0x77,#0x00	; 7803467
   A2F8 3E 1E 77 00        5414 	.byte #0x3E,#0x1E,#0x77,#0x00	; 7806526
   A2FC 9F 23 77 00        5415 	.byte #0x9F,#0x23,#0x77,#0x00	; 7807903
   A300 EA 2F 77 00        5416 	.byte #0xEA,#0x2F,#0x77,#0x00	; 7811050
   A304 00 37 77 00        5417 	.byte #0x00,#0x37,#0x77,#0x00	; 7812864
   A308 75 3B 77 00        5418 	.byte #0x75,#0x3B,#0x77,#0x00	; 7814005
   A30C 37 40 77 00        5419 	.byte #0x37,#0x40,#0x77,#0x00	; 7815223
   A310 42 4C 77 00        5420 	.byte #0x42,#0x4C,#0x77,#0x00	; 7818306
   A314 A8 54 77 00        5421 	.byte #0xA8,#0x54,#0x77,#0x00	; 7820456
   A318 DD 58 77 00        5422 	.byte #0xDD,#0x58,#0x77,#0x00	; 7821533
   A31C 7C 65 77 00        5423 	.byte #0x7C,#0x65,#0x77,#0x00	; 7824764
   A320 09 69 77 00        5424 	.byte #0x09,#0x69,#0x77,#0x00	; 7825673
   A324 E3 71 77 00        5425 	.byte #0xE3,#0x71,#0x77,#0x00	; 7827939
   A328 96 7D 77 00        5426 	.byte #0x96,#0x7D,#0x77,#0x00	; 7830934
   A32C 67 87 77 00        5427 	.byte #0x67,#0x87,#0x77,#0x00	; 7833447
   A330 12 8B 77 00        5428 	.byte #0x12,#0x8B,#0x77,#0x00	; 7834386
   A334 F8 93 77 00        5429 	.byte #0xF8,#0x93,#0x77,#0x00	; 7836664
   A338 8D 9F 77 00        5430 	.byte #0x8D,#0x9F,#0x77,#0x00	; 7839629
   A33C 2C A2 77 00        5431 	.byte #0x2C,#0xA2,#0x77,#0x00	; 7840300
   A340 59 AE 77 00        5432 	.byte #0x59,#0xAE,#0x77,#0x00	; 7843417
   A344 B3 B6 77 00        5433 	.byte #0xB3,#0xB6,#0x77,#0x00	; 7845555
   A348 C6 BA 77 00        5434 	.byte #0xC6,#0xBA,#0x77,#0x00	; 7846598
   A34C 84 C1 77 00        5435 	.byte #0x84,#0xC1,#0x77,#0x00	; 7848324
   A350 F1 CD 77 00        5436 	.byte #0xF1,#0xCD,#0x77,#0x00	; 7851505
   A354 1B D5 77 00        5437 	.byte #0x1B,#0xD5,#0x77,#0x00	; 7853339
   A358 6E D9 77 00        5438 	.byte #0x6E,#0xD9,#0x77,#0x00	; 7854446
   A35C CF E4 77 00        5439 	.byte #0xCF,#0xE4,#0x77,#0x00	; 7857359
   A360 BA E8 77 00        5440 	.byte #0xBA,#0xE8,#0x77,#0x00	; 7858362
   A364 50 F0 77 00        5441 	.byte #0x50,#0xF0,#0x77,#0x00	; 7860304
   A368 25 FC 77 00        5442 	.byte #0x25,#0xFC,#0x77,#0x00	; 7863333
   A36C 49 01 78 00        5443 	.byte #0x49,#0x01,#0x78,#0x00	; 7864649
   A370 3C 0D 78 00        5444 	.byte #0x3C,#0x0D,#0x78,#0x00	; 7867708
   A374 D6 15 78 00        5445 	.byte #0xD6,#0x15,#0x78,#0x00	; 7869910
   A378 A3 19 78 00        5446 	.byte #0xA3,#0x19,#0x78,#0x00	; 7870883
   A37C 02 24 78 00        5447 	.byte #0x02,#0x24,#0x78,#0x00	; 7873538
   A380 77 28 78 00        5448 	.byte #0x77,#0x28,#0x78,#0x00	; 7874679
   A384 9D 30 78 00        5449 	.byte #0x9D,#0x30,#0x78,#0x00	; 7876765
   A388 E8 3C 78 00        5450 	.byte #0xE8,#0x3C,#0x78,#0x00	; 7879912
   A38C AA 47 78 00        5451 	.byte #0xAA,#0x47,#0x78,#0x00	; 7882666
   A390 DF 4B 78 00        5452 	.byte #0xDF,#0x4B,#0x78,#0x00	; 7883743
   A394 35 53 78 00        5453 	.byte #0x35,#0x53,#0x78,#0x00	; 7885621
   A398 40 5F 78 00        5454 	.byte #0x40,#0x5F,#0x78,#0x00	; 7888704
   A39C E1 62 78 00        5455 	.byte #0xE1,#0x62,#0x78,#0x00	; 7889633
   A3A0 94 6E 78 00        5456 	.byte #0x94,#0x6E,#0x78,#0x00	; 7892628
   A3A4 7E 76 78 00        5457 	.byte #0x7E,#0x76,#0x78,#0x00	; 7894654
   A3A8 0B 7A 78 00        5458 	.byte #0x0B,#0x7A,#0x78,#0x00	; 7895563
   A3AC FA 80 78 00        5459 	.byte #0xFA,#0x80,#0x78,#0x00	; 7897338
   A3B0 8F 8C 78 00        5460 	.byte #0x8F,#0x8C,#0x78,#0x00	; 7900303
   A3B4 65 94 78 00        5461 	.byte #0x65,#0x94,#0x78,#0x00	; 7902309
   A3B8 10 98 78 00        5462 	.byte #0x10,#0x98,#0x78,#0x00	; 7903248
   A3BC B1 A5 78 00        5463 	.byte #0xB1,#0xA5,#0x78,#0x00	; 7906737
   A3C0 C4 A9 78 00        5464 	.byte #0xC4,#0xA9,#0x78,#0x00	; 7907780
   A3C4 2E B1 78 00        5465 	.byte #0x2E,#0xB1,#0x78,#0x00	; 7909678
   A3C8 5B BD 78 00        5466 	.byte #0x5B,#0xBD,#0x78,#0x00	; 7912795
   A3CC 19 C6 78 00        5467 	.byte #0x19,#0xC6,#0x78,#0x00	; 7915033
   A3D0 6C CA 78 00        5468 	.byte #0x6C,#0xCA,#0x78,#0x00	; 7916140
   A3D4 86 D2 78 00        5469 	.byte #0x86,#0xD2,#0x78,#0x00	; 7918214
   A3D8 F3 DE 78 00        5470 	.byte #0xF3,#0xDE,#0x78,#0x00	; 7921395
   A3DC 52 E3 78 00        5471 	.byte #0x52,#0xE3,#0x78,#0x00	; 7922514
   A3E0 27 EF 78 00        5472 	.byte #0x27,#0xEF,#0x78,#0x00	; 7925543
   A3E4 CD F7 78 00        5473 	.byte #0xCD,#0xF7,#0x78,#0x00	; 7927757
   A3E8 B8 FB 78 00        5474 	.byte #0xB8,#0xFB,#0x78,#0x00	; 7928760
   A3EC 2F 02 79 00        5475 	.byte #0x2F,#0x02,#0x79,#0x00	; 7930415
   A3F0 5A 0E 79 00        5476 	.byte #0x5A,#0x0E,#0x79,#0x00	; 7933530
   A3F4 B0 16 79 00        5477 	.byte #0xB0,#0x16,#0x79,#0x00	; 7935664
   A3F8 C5 1A 79 00        5478 	.byte #0xC5,#0x1A,#0x79,#0x00	; 7936709
   A3FC 64 27 79 00        5479 	.byte #0x64,#0x27,#0x79,#0x00	; 7939940
   A400 11 2B 79 00        5480 	.byte #0x11,#0x2B,#0x79,#0x00	; 7940881
   A404 FB 33 79 00        5481 	.byte #0xFB,#0x33,#0x79,#0x00	; 7943163
   A408 8E 3F 79 00        5482 	.byte #0x8E,#0x3F,#0x79,#0x00	; 7946126
   A40C CC 44 79 00        5483 	.byte #0xCC,#0x44,#0x79,#0x00	; 7947468
   A410 B9 48 79 00        5484 	.byte #0xB9,#0x48,#0x79,#0x00	; 7948473
   A414 53 50 79 00        5485 	.byte #0x53,#0x50,#0x79,#0x00	; 7950419
   A418 26 5C 79 00        5486 	.byte #0x26,#0x5C,#0x79,#0x00	; 7953446
   A41C 87 61 79 00        5487 	.byte #0x87,#0x61,#0x79,#0x00	; 7954823
   A420 F2 6D 79 00        5488 	.byte #0xF2,#0x6D,#0x79,#0x00	; 7958002
   A424 18 75 79 00        5489 	.byte #0x18,#0x75,#0x79,#0x00	; 7959832
   A428 6D 79 79 00        5490 	.byte #0x6D,#0x79,#0x79,#0x00	; 7960941
   A42C 9C 83 79 00        5491 	.byte #0x9C,#0x83,#0x79,#0x00	; 7963548
   A430 E9 8F 79 00        5492 	.byte #0xE9,#0x8F,#0x79,#0x00	; 7966697
   A434 03 97 79 00        5493 	.byte #0x03,#0x97,#0x79,#0x00	; 7968515
   A438 76 9B 79 00        5494 	.byte #0x76,#0x9B,#0x79,#0x00	; 7969654
   A43C D7 A6 79 00        5495 	.byte #0xD7,#0xA6,#0x79,#0x00	; 7972567
   A440 A2 AA 79 00        5496 	.byte #0xA2,#0xAA,#0x79,#0x00	; 7973538
   A444 48 B2 79 00        5497 	.byte #0x48,#0xB2,#0x79,#0x00	; 7975496
   A448 3D BE 79 00        5498 	.byte #0x3D,#0xBE,#0x79,#0x00	; 7978557
   A44C 7F C5 79 00        5499 	.byte #0x7F,#0xC5,#0x79,#0x00	; 7980415
   A450 0A C9 79 00        5500 	.byte #0x0A,#0xC9,#0x79,#0x00	; 7981322
   A454 E0 D1 79 00        5501 	.byte #0xE0,#0xD1,#0x79,#0x00	; 7983584
   A458 95 DD 79 00        5502 	.byte #0x95,#0xDD,#0x79,#0x00	; 7986581
   A45C 34 E0 79 00        5503 	.byte #0x34,#0xE0,#0x79,#0x00	; 7987252
   A460 41 EC 79 00        5504 	.byte #0x41,#0xEC,#0x79,#0x00	; 7990337
   A464 AB F4 79 00        5505 	.byte #0xAB,#0xF4,#0x79,#0x00	; 7992491
   A468 DE F8 79 00        5506 	.byte #0xDE,#0xF8,#0x79,#0x00	; 7993566
   A46C 85 07 7A 00        5507 	.byte #0x85,#0x07,#0x7A,#0x00	; 7997317
   A470 F0 0B 7A 00        5508 	.byte #0xF0,#0x0B,#0x7A,#0x00	; 7998448
   A474 1A 13 7A 00        5509 	.byte #0x1A,#0x13,#0x7A,#0x00	; 8000282
   A478 6F 1F 7A 00        5510 	.byte #0x6F,#0x1F,#0x7A,#0x00	; 8003439
   A47C CE 22 7A 00        5511 	.byte #0xCE,#0x22,#0x7A,#0x00	; 8004302
   A480 BB 2E 7A 00        5512 	.byte #0xBB,#0x2E,#0x7A,#0x00	; 8007355
   A484 51 36 7A 00        5513 	.byte #0x51,#0x36,#0x7A,#0x00	; 8009297
   A488 24 3A 7A 00        5514 	.byte #0x24,#0x3A,#0x7A,#0x00	; 8010276
   A48C 66 41 7A 00        5515 	.byte #0x66,#0x41,#0x7A,#0x00	; 8012134
   A490 13 4D 7A 00        5516 	.byte #0x13,#0x4D,#0x7A,#0x00	; 8015123
   A494 F9 55 7A 00        5517 	.byte #0xF9,#0x55,#0x7A,#0x00	; 8017401
   A498 8C 59 7A 00        5518 	.byte #0x8C,#0x59,#0x7A,#0x00	; 8018316
   A49C 2D 64 7A 00        5519 	.byte #0x2D,#0x64,#0x7A,#0x00	; 8021037
   A4A0 58 68 7A 00        5520 	.byte #0x58,#0x68,#0x7A,#0x00	; 8022104
   A4A4 B2 70 7A 00        5521 	.byte #0xB2,#0x70,#0x7A,#0x00	; 8024242
   A4A8 C7 7C 7A 00        5522 	.byte #0xC7,#0x7C,#0x7A,#0x00	; 8027335
   A4AC 36 86 7A 00        5523 	.byte #0x36,#0x86,#0x7A,#0x00	; 8029750
   A4B0 43 8A 7A 00        5524 	.byte #0x43,#0x8A,#0x7A,#0x00	; 8030787
   A4B4 A9 92 7A 00        5525 	.byte #0xA9,#0x92,#0x7A,#0x00	; 8032937
   A4B8 DC 9E 7A 00        5526 	.byte #0xDC,#0x9E,#0x7A,#0x00	; 8036060
   A4BC 7D A3 7A 00        5527 	.byte #0x7D,#0xA3,#0x7A,#0x00	; 8037245
   A4C0 08 AF 7A 00        5528 	.byte #0x08,#0xAF,#0x7A,#0x00	; 8040200
   A4C4 E2 B7 7A 00        5529 	.byte #0xE2,#0xB7,#0x7A,#0x00	; 8042466
   A4C8 97 BB 7A 00        5530 	.byte #0x97,#0xBB,#0x7A,#0x00	; 8043415
   A4CC D5 C0 7A 00        5531 	.byte #0xD5,#0xC0,#0x7A,#0x00	; 8044757
   A4D0 A0 CC 7A 00        5532 	.byte #0xA0,#0xCC,#0x7A,#0x00	; 8047776
   A4D4 4A D4 7A 00        5533 	.byte #0x4A,#0xD4,#0x7A,#0x00	; 8049738
   A4D8 3F D8 7A 00        5534 	.byte #0x3F,#0xD8,#0x7A,#0x00	; 8050751
   A4DC 9E E5 7A 00        5535 	.byte #0x9E,#0xE5,#0x7A,#0x00	; 8054174
   A4E0 EB E9 7A 00        5536 	.byte #0xEB,#0xE9,#0x7A,#0x00	; 8055275
   A4E4 01 F1 7A 00        5537 	.byte #0x01,#0xF1,#0x7A,#0x00	; 8057089
   A4E8 74 FD 7A 00        5538 	.byte #0x74,#0xFD,#0x7A,#0x00	; 8060276
   A4EC E3 04 7B 00        5539 	.byte #0xE3,#0x04,#0x7B,#0x00	; 8062179
   A4F0 96 08 7B 00        5540 	.byte #0x96,#0x08,#0x7B,#0x00	; 8063126
   A4F4 7C 10 7B 00        5541 	.byte #0x7C,#0x10,#0x7B,#0x00	; 8065148
   A4F8 09 1C 7B 00        5542 	.byte #0x09,#0x1C,#0x7B,#0x00	; 8068105
   A4FC A8 21 7B 00        5543 	.byte #0xA8,#0x21,#0x7B,#0x00	; 8069544
   A500 DD 2D 7B 00        5544 	.byte #0xDD,#0x2D,#0x7B,#0x00	; 8072669
   A504 37 35 7B 00        5545 	.byte #0x37,#0x35,#0x7B,#0x00	; 8074551
   A508 42 39 7B 00        5546 	.byte #0x42,#0x39,#0x7B,#0x00	; 8075586
   A50C 00 42 7B 00        5547 	.byte #0x00,#0x42,#0x7B,#0x00	; 8077824
   A510 75 4E 7B 00        5548 	.byte #0x75,#0x4E,#0x7B,#0x00	; 8081013
   A514 9F 56 7B 00        5549 	.byte #0x9F,#0x56,#0x7B,#0x00	; 8083103
   A518 EA 5A 7B 00        5550 	.byte #0xEA,#0x5A,#0x7B,#0x00	; 8084202
   A51C 4B 67 7B 00        5551 	.byte #0x4B,#0x67,#0x7B,#0x00	; 8087371
   A520 3E 6B 7B 00        5552 	.byte #0x3E,#0x6B,#0x7B,#0x00	; 8088382
   A524 D4 73 7B 00        5553 	.byte #0xD4,#0x73,#0x7B,#0x00	; 8090580
   A528 A1 7F 7B 00        5554 	.byte #0xA1,#0x7F,#0x7B,#0x00	; 8093601
   A52C 50 85 7B 00        5555 	.byte #0x50,#0x85,#0x7B,#0x00	; 8095056
   A530 25 89 7B 00        5556 	.byte #0x25,#0x89,#0x7B,#0x00	; 8096037
   A534 CF 91 7B 00        5557 	.byte #0xCF,#0x91,#0x7B,#0x00	; 8098255
   A538 BA 9D 7B 00        5558 	.byte #0xBA,#0x9D,#0x7B,#0x00	; 8101306
   A53C 1B A0 7B 00        5559 	.byte #0x1B,#0xA0,#0x7B,#0x00	; 8101915
   A540 6E AC 7B 00        5560 	.byte #0x6E,#0xAC,#0x7B,#0x00	; 8105070
   A544 84 B4 7B 00        5561 	.byte #0x84,#0xB4,#0x7B,#0x00	; 8107140
   A548 F1 B8 7B 00        5562 	.byte #0xF1,#0xB8,#0x7B,#0x00	; 8108273
   A54C B3 C3 7B 00        5563 	.byte #0xB3,#0xC3,#0x7B,#0x00	; 8111027
   A550 C6 CF 7B 00        5564 	.byte #0xC6,#0xCF,#0x7B,#0x00	; 8114118
   A554 2C D7 7B 00        5565 	.byte #0x2C,#0xD7,#0x7B,#0x00	; 8116012
   A558 59 DB 7B 00        5566 	.byte #0x59,#0xDB,#0x7B,#0x00	; 8117081
   A55C F8 E6 7B 00        5567 	.byte #0xF8,#0xE6,#0x7B,#0x00	; 8120056
   A560 8D EA 7B 00        5568 	.byte #0x8D,#0xEA,#0x7B,#0x00	; 8120973
   A564 67 F2 7B 00        5569 	.byte #0x67,#0xF2,#0x7B,#0x00	; 8122983
   A568 12 FE 7B 00        5570 	.byte #0x12,#0xFE,#0x7B,#0x00	; 8125970
   A56C A4 00 7C 00        5571 	.byte #0xA4,#0x00,#0x7C,#0x00	; 8126628
   A570 D1 0C 7C 00        5572 	.byte #0xD1,#0x0C,#0x7C,#0x00	; 8129745
   A574 3B 14 7C 00        5573 	.byte #0x3B,#0x14,#0x7C,#0x00	; 8131643
   A578 4E 18 7C 00        5574 	.byte #0x4E,#0x18,#0x7C,#0x00	; 8132686
   A57C EF 25 7C 00        5575 	.byte #0xEF,#0x25,#0x7C,#0x00	; 8136175
   A580 9A 29 7C 00        5576 	.byte #0x9A,#0x29,#0x7C,#0x00	; 8137114
   A584 70 31 7C 00        5577 	.byte #0x70,#0x31,#0x7C,#0x00	; 8139120
   A588 05 3D 7C 00        5578 	.byte #0x05,#0x3D,#0x7C,#0x00	; 8142085
   A58C 47 46 7C 00        5579 	.byte #0x47,#0x46,#0x7C,#0x00	; 8144455
   A590 32 4A 7C 00        5580 	.byte #0x32,#0x4A,#0x7C,#0x00	; 8145458
   A594 D8 52 7C 00        5581 	.byte #0xD8,#0x52,#0x7C,#0x00	; 8147672
   A598 AD 5E 7C 00        5582 	.byte #0xAD,#0x5E,#0x7C,#0x00	; 8150701
   A59C 0C 63 7C 00        5583 	.byte #0x0C,#0x63,#0x7C,#0x00	; 8151820
   A5A0 79 6F 7C 00        5584 	.byte #0x79,#0x6F,#0x7C,#0x00	; 8155001
   A5A4 93 77 7C 00        5585 	.byte #0x93,#0x77,#0x7C,#0x00	; 8157075
   A5A8 E6 7B 7C 00        5586 	.byte #0xE6,#0x7B,#0x7C,#0x00	; 8158182
   A5AC 17 81 7C 00        5587 	.byte #0x17,#0x81,#0x7C,#0x00	; 8159511
   A5B0 62 8D 7C 00        5588 	.byte #0x62,#0x8D,#0x7C,#0x00	; 8162658
   A5B4 88 95 7C 00        5589 	.byte #0x88,#0x95,#0x7C,#0x00	; 8164744
   A5B8 FD 99 7C 00        5590 	.byte #0xFD,#0x99,#0x7C,#0x00	; 8165885
   A5BC 5C A4 7C 00        5591 	.byte #0x5C,#0xA4,#0x7C,#0x00	; 8168540
   A5C0 29 A8 7C 00        5592 	.byte #0x29,#0xA8,#0x7C,#0x00	; 8169513
   A5C4 C3 B0 7C 00        5593 	.byte #0xC3,#0xB0,#0x7C,#0x00	; 8171715
   A5C8 B6 BC 7C 00        5594 	.byte #0xB6,#0xBC,#0x7C,#0x00	; 8174774
   A5CC F4 C7 7C 00        5595 	.byte #0xF4,#0xC7,#0x7C,#0x00	; 8177652
   A5D0 81 CB 7C 00        5596 	.byte #0x81,#0xCB,#0x7C,#0x00	; 8178561
   A5D4 6B D3 7C 00        5597 	.byte #0x6B,#0xD3,#0x7C,#0x00	; 8180587
   A5D8 1E DF 7C 00        5598 	.byte #0x1E,#0xDF,#0x7C,#0x00	; 8183582
   A5DC BF E2 7C 00        5599 	.byte #0xBF,#0xE2,#0x7C,#0x00	; 8184511
   A5E0 CA EE 7C 00        5600 	.byte #0xCA,#0xEE,#0x7C,#0x00	; 8187594
   A5E4 20 F6 7C 00        5601 	.byte #0x20,#0xF6,#0x7C,#0x00	; 8189472
   A5E8 55 FA 7C 00        5602 	.byte #0x55,#0xFA,#0x7C,#0x00	; 8190549
   A5EC C2 03 7D 00        5603 	.byte #0xC2,#0x03,#0x7D,#0x00	; 8192962
   A5F0 B7 0F 7D 00        5604 	.byte #0xB7,#0x0F,#0x7D,#0x00	; 8196023
   A5F4 5D 17 7D 00        5605 	.byte #0x5D,#0x17,#0x7D,#0x00	; 8197981
   A5F8 28 1B 7D 00        5606 	.byte #0x28,#0x1B,#0x7D,#0x00	; 8198952
   A5FC 89 26 7D 00        5607 	.byte #0x89,#0x26,#0x7D,#0x00	; 8201865
   A600 FC 2A 7D 00        5608 	.byte #0xFC,#0x2A,#0x7D,#0x00	; 8203004
   A604 16 32 7D 00        5609 	.byte #0x16,#0x32,#0x7D,#0x00	; 8204822
   A608 63 3E 7D 00        5610 	.byte #0x63,#0x3E,#0x7D,#0x00	; 8207971
   A60C 21 45 7D 00        5611 	.byte #0x21,#0x45,#0x7D,#0x00	; 8209697
   A610 54 49 7D 00        5612 	.byte #0x54,#0x49,#0x7D,#0x00	; 8210772
   A614 BE 51 7D 00        5613 	.byte #0xBE,#0x51,#0x7D,#0x00	; 8212926
   A618 CB 5D 7D 00        5614 	.byte #0xCB,#0x5D,#0x7D,#0x00	; 8216011
   A61C 6A 60 7D 00        5615 	.byte #0x6A,#0x60,#0x7D,#0x00	; 8216682
   A620 1F 6C 7D 00        5616 	.byte #0x1F,#0x6C,#0x7D,#0x00	; 8219679
   A624 F5 74 7D 00        5617 	.byte #0xF5,#0x74,#0x7D,#0x00	; 8221941
   A628 80 78 7D 00        5618 	.byte #0x80,#0x78,#0x7D,#0x00	; 8222848
   A62C 71 82 7D 00        5619 	.byte #0x71,#0x82,#0x7D,#0x00	; 8225393
   A630 04 8E 7D 00        5620 	.byte #0x04,#0x8E,#0x7D,#0x00	; 8228356
   A634 EE 96 7D 00        5621 	.byte #0xEE,#0x96,#0x7D,#0x00	; 8230638
   A638 9B 9A 7D 00        5622 	.byte #0x9B,#0x9A,#0x7D,#0x00	; 8231579
   A63C 3A A7 7D 00        5623 	.byte #0x3A,#0xA7,#0x7D,#0x00	; 8234810
   A640 4F AB 7D 00        5624 	.byte #0x4F,#0xAB,#0x7D,#0x00	; 8235855
   A644 A5 B3 7D 00        5625 	.byte #0xA5,#0xB3,#0x7D,#0x00	; 8237989
   A648 D0 BF 7D 00        5626 	.byte #0xD0,#0xBF,#0x7D,#0x00	; 8241104
   A64C 92 C4 7D 00        5627 	.byte #0x92,#0xC4,#0x7D,#0x00	; 8242322
   A650 E7 C8 7D 00        5628 	.byte #0xE7,#0xC8,#0x7D,#0x00	; 8243431
   A654 0D D0 7D 00        5629 	.byte #0x0D,#0xD0,#0x7D,#0x00	; 8245261
   A658 78 DC 7D 00        5630 	.byte #0x78,#0xDC,#0x7D,#0x00	; 8248440
   A65C D9 E1 7D 00        5631 	.byte #0xD9,#0xE1,#0x7D,#0x00	; 8249817
   A660 AC ED 7D 00        5632 	.byte #0xAC,#0xED,#0x7D,#0x00	; 8252844
   A664 46 F5 7D 00        5633 	.byte #0x46,#0xF5,#0x7D,#0x00	; 8254790
   A668 33 F9 7D 00        5634 	.byte #0x33,#0xF9,#0x7D,#0x00	; 8255795
   A66C 68 06 7E 00        5635 	.byte #0x68,#0x06,#0x7E,#0x00	; 8259176
   A670 1D 0A 7E 00        5636 	.byte #0x1D,#0x0A,#0x7E,#0x00	; 8260125
   A674 F7 12 7E 00        5637 	.byte #0xF7,#0x12,#0x7E,#0x00	; 8262391
   A678 82 1E 7E 00        5638 	.byte #0x82,#0x1E,#0x7E,#0x00	; 8265346
   A67C 23 23 7E 00        5639 	.byte #0x23,#0x23,#0x7E,#0x00	; 8266531
   A680 56 2F 7E 00        5640 	.byte #0x56,#0x2F,#0x7E,#0x00	; 8269654
   A684 BC 37 7E 00        5641 	.byte #0xBC,#0x37,#0x7E,#0x00	; 8271804
   A688 C9 3B 7E 00        5642 	.byte #0xC9,#0x3B,#0x7E,#0x00	; 8272841
   A68C 8B 40 7E 00        5643 	.byte #0x8B,#0x40,#0x7E,#0x00	; 8274059
   A690 FE 4C 7E 00        5644 	.byte #0xFE,#0x4C,#0x7E,#0x00	; 8277246
   A694 14 54 7E 00        5645 	.byte #0x14,#0x54,#0x7E,#0x00	; 8279060
   A698 61 58 7E 00        5646 	.byte #0x61,#0x58,#0x7E,#0x00	; 8280161
   A69C C0 65 7E 00        5647 	.byte #0xC0,#0x65,#0x7E,#0x00	; 8283584
   A6A0 B5 69 7E 00        5648 	.byte #0xB5,#0x69,#0x7E,#0x00	; 8284597
   A6A4 5F 71 7E 00        5649 	.byte #0x5F,#0x71,#0x7E,#0x00	; 8286559
   A6A8 2A 7D 7E 00        5650 	.byte #0x2A,#0x7D,#0x7E,#0x00	; 8289578
   A6AC DB 87 7E 00        5651 	.byte #0xDB,#0x87,#0x7E,#0x00	; 8292315
   A6B0 AE 8B 7E 00        5652 	.byte #0xAE,#0x8B,#0x7E,#0x00	; 8293294
   A6B4 44 93 7E 00        5653 	.byte #0x44,#0x93,#0x7E,#0x00	; 8295236
   A6B8 31 9F 7E 00        5654 	.byte #0x31,#0x9F,#0x7E,#0x00	; 8298289
   A6BC 90 A2 7E 00        5655 	.byte #0x90,#0xA2,#0x7E,#0x00	; 8299152
   A6C0 E5 AE 7E 00        5656 	.byte #0xE5,#0xAE,#0x7E,#0x00	; 8302309
   A6C4 0F B6 7E 00        5657 	.byte #0x0F,#0xB6,#0x7E,#0x00	; 8304143
   A6C8 7A BA 7E 00        5658 	.byte #0x7A,#0xBA,#0x7E,#0x00	; 8305274
   A6CC 38 C1 7E 00        5659 	.byte #0x38,#0xC1,#0x7E,#0x00	; 8307000
   A6D0 4D CD 7E 00        5660 	.byte #0x4D,#0xCD,#0x7E,#0x00	; 8310093
   A6D4 A7 D5 7E 00        5661 	.byte #0xA7,#0xD5,#0x7E,#0x00	; 8312231
   A6D8 D2 D9 7E 00        5662 	.byte #0xD2,#0xD9,#0x7E,#0x00	; 8313298
   A6DC 73 E4 7E 00        5663 	.byte #0x73,#0xE4,#0x7E,#0x00	; 8316019
   A6E0 06 E8 7E 00        5664 	.byte #0x06,#0xE8,#0x7E,#0x00	; 8316934
   A6E4 EC F0 7E 00        5665 	.byte #0xEC,#0xF0,#0x7E,#0x00	; 8319212
   A6E8 99 FC 7E 00        5666 	.byte #0x99,#0xFC,#0x7E,#0x00	; 8322201
   A6EC 0E 05 7F 00        5667 	.byte #0x0E,#0x05,#0x7F,#0x00	; 8324366
   A6F0 7B 09 7F 00        5668 	.byte #0x7B,#0x09,#0x7F,#0x00	; 8325499
   A6F4 91 11 7F 00        5669 	.byte #0x91,#0x11,#0x7F,#0x00	; 8327569
   A6F8 E4 1D 7F 00        5670 	.byte #0xE4,#0x1D,#0x7F,#0x00	; 8330724
   A6FC 45 20 7F 00        5671 	.byte #0x45,#0x20,#0x7F,#0x00	; 8331333
   A700 30 2C 7F 00        5672 	.byte #0x30,#0x2C,#0x7F,#0x00	; 8334384
   A704 DA 34 7F 00        5673 	.byte #0xDA,#0x34,#0x7F,#0x00	; 8336602
   A708 AF 38 7F 00        5674 	.byte #0xAF,#0x38,#0x7F,#0x00	; 8337583
   A70C ED 43 7F 00        5675 	.byte #0xED,#0x43,#0x7F,#0x00	; 8340461
   A710 98 4F 7F 00        5676 	.byte #0x98,#0x4F,#0x7F,#0x00	; 8343448
   A714 72 57 7F 00        5677 	.byte #0x72,#0x57,#0x7F,#0x00	; 8345458
   A718 07 5B 7F 00        5678 	.byte #0x07,#0x5B,#0x7F,#0x00	; 8346375
   A71C A6 66 7F 00        5679 	.byte #0xA6,#0x66,#0x7F,#0x00	; 8349350
   A720 D3 6A 7F 00        5680 	.byte #0xD3,#0x6A,#0x7F,#0x00	; 8350419
   A724 39 72 7F 00        5681 	.byte #0x39,#0x72,#0x7F,#0x00	; 8352313
   A728 4C 7E 7F 00        5682 	.byte #0x4C,#0x7E,#0x7F,#0x00	; 8355404
   A72C BD 84 7F 00        5683 	.byte #0xBD,#0x84,#0x7F,#0x00	; 8357053
   A730 C8 88 7F 00        5684 	.byte #0xC8,#0x88,#0x7F,#0x00	; 8358088
   A734 22 90 7F 00        5685 	.byte #0x22,#0x90,#0x7F,#0x00	; 8359970
   A738 57 9C 7F 00        5686 	.byte #0x57,#0x9C,#0x7F,#0x00	; 8363095
   A73C F6 A1 7F 00        5687 	.byte #0xF6,#0xA1,#0x7F,#0x00	; 8364534
   A740 83 AD 7F 00        5688 	.byte #0x83,#0xAD,#0x7F,#0x00	; 8367491
   A744 69 B5 7F 00        5689 	.byte #0x69,#0xB5,#0x7F,#0x00	; 8369513
   A748 1C B9 7F 00        5690 	.byte #0x1C,#0xB9,#0x7F,#0x00	; 8370460
   A74C 5E C2 7F 00        5691 	.byte #0x5E,#0xC2,#0x7F,#0x00	; 8372830
   A750 2B CE 7F 00        5692 	.byte #0x2B,#0xCE,#0x7F,#0x00	; 8375851
   A754 C1 D6 7F 00        5693 	.byte #0xC1,#0xD6,#0x7F,#0x00	; 8378049
   A758 B4 DA 7F 00        5694 	.byte #0xB4,#0xDA,#0x7F,#0x00	; 8379060
   A75C 15 E7 7F 00        5695 	.byte #0x15,#0xE7,#0x7F,#0x00	; 8382229
   A760 60 EB 7F 00        5696 	.byte #0x60,#0xEB,#0x7F,#0x00	; 8383328
   A764 8A F3 7F 00        5697 	.byte #0x8A,#0xF3,#0x7F,#0x00	; 8385418
   A768 FF FF 7F 00        5698 	.byte #0xFF,#0xFF,#0x7F,#0x00	; 8388607
   A76C                    5699 _golay23_decode:
   A76C 00 00 00 00        5700 	.byte #0x00,#0x00,#0x00,#0x00	; 0
   A770 01 00 00 00        5701 	.byte #0x01,#0x00,#0x00,#0x00	; 1
   A774 02 00 00 00        5702 	.byte #0x02,#0x00,#0x00,#0x00	; 2
   A778 03 00 00 00        5703 	.byte #0x03,#0x00,#0x00,#0x00	; 3
   A77C 04 00 00 00        5704 	.byte #0x04,#0x00,#0x00,#0x00	; 4
   A780 05 00 00 00        5705 	.byte #0x05,#0x00,#0x00,#0x00	; 5
   A784 06 00 00 00        5706 	.byte #0x06,#0x00,#0x00,#0x00	; 6
   A788 07 00 00 00        5707 	.byte #0x07,#0x00,#0x00,#0x00	; 7
   A78C 08 00 00 00        5708 	.byte #0x08,#0x00,#0x00,#0x00	; 8
   A790 09 00 00 00        5709 	.byte #0x09,#0x00,#0x00,#0x00	; 9
   A794 0A 00 00 00        5710 	.byte #0x0A,#0x00,#0x00,#0x00	; 10
   A798 0B 00 00 00        5711 	.byte #0x0B,#0x00,#0x00,#0x00	; 11
   A79C 0C 00 00 00        5712 	.byte #0x0C,#0x00,#0x00,#0x00	; 12
   A7A0 0D 00 00 00        5713 	.byte #0x0D,#0x00,#0x00,#0x00	; 13
   A7A4 0E 00 00 00        5714 	.byte #0x0E,#0x00,#0x00,#0x00	; 14
   A7A8 20 40 02 00        5715 	.byte #0x20,#0x40,#0x02,#0x00	; 147488
   A7AC 10 00 00 00        5716 	.byte #0x10,#0x00,#0x00,#0x00	; 16
   A7B0 11 00 00 00        5717 	.byte #0x11,#0x00,#0x00,#0x00	; 17
   A7B4 12 00 00 00        5718 	.byte #0x12,#0x00,#0x00,#0x00	; 18
   A7B8 13 00 00 00        5719 	.byte #0x13,#0x00,#0x00,#0x00	; 19
   A7BC 14 00 00 00        5720 	.byte #0x14,#0x00,#0x00,#0x00	; 20
   A7C0 15 00 00 00        5721 	.byte #0x15,#0x00,#0x00,#0x00	; 21
   A7C4 16 00 00 00        5722 	.byte #0x16,#0x00,#0x00,#0x00	; 22
   A7C8 00 20 41 00        5723 	.byte #0x00,#0x20,#0x41,#0x00	; 4268032
   A7CC 18 00 00 00        5724 	.byte #0x18,#0x00,#0x00,#0x00	; 24
   A7D0 19 00 00 00        5725 	.byte #0x19,#0x00,#0x00,#0x00	; 25
   A7D4 1A 00 00 00        5726 	.byte #0x1A,#0x00,#0x00,#0x00	; 26
   A7D8 00 08 18 00        5727 	.byte #0x00,#0x08,#0x18,#0x00	; 1574912
   A7DC 1C 00 00 00        5728 	.byte #0x1C,#0x00,#0x00,#0x00	; 28
   A7E0 00 03 20 00        5729 	.byte #0x00,#0x03,#0x20,#0x00	; 2097920
   A7E4 40 80 04 00        5730 	.byte #0x40,#0x80,#0x04,#0x00	; 294976
   A7E8 80 14 00 00        5731 	.byte #0x80,#0x14,#0x00,#0x00	; 5248
   A7EC 20 00 00 00        5732 	.byte #0x20,#0x00,#0x00,#0x00	; 32
   A7F0 21 00 00 00        5733 	.byte #0x21,#0x00,#0x00,#0x00	; 33
   A7F4 22 00 00 00        5734 	.byte #0x22,#0x00,#0x00,#0x00	; 34
   A7F8 23 00 00 00        5735 	.byte #0x23,#0x00,#0x00,#0x00	; 35
   A7FC 24 00 00 00        5736 	.byte #0x24,#0x00,#0x00,#0x00	; 36
   A800 25 00 00 00        5737 	.byte #0x25,#0x00,#0x00,#0x00	; 37
   A804 26 00 00 00        5738 	.byte #0x26,#0x00,#0x00,#0x00	; 38
   A808 08 40 02 00        5739 	.byte #0x08,#0x40,#0x02,#0x00	; 147464
   A80C 28 00 00 00        5740 	.byte #0x28,#0x00,#0x00,#0x00	; 40
   A810 29 00 00 00        5741 	.byte #0x29,#0x00,#0x00,#0x00	; 41
   A814 2A 00 00 00        5742 	.byte #0x2A,#0x00,#0x00,#0x00	; 42
   A818 04 40 02 00        5743 	.byte #0x04,#0x40,#0x02,#0x00	; 147460
   A81C 2C 00 00 00        5744 	.byte #0x2C,#0x00,#0x00,#0x00	; 44
   A820 02 40 02 00        5745 	.byte #0x02,#0x40,#0x02,#0x00	; 147458
   A824 01 40 02 00        5746 	.byte #0x01,#0x40,#0x02,#0x00	; 147457
   A828 00 40 02 00        5747 	.byte #0x00,#0x40,#0x02,#0x00	; 147456
   A82C 30 00 00 00        5748 	.byte #0x30,#0x00,#0x00,#0x00	; 48
   A830 31 00 00 00        5749 	.byte #0x31,#0x00,#0x00,#0x00	; 49
   A834 32 00 00 00        5750 	.byte #0x32,#0x00,#0x00,#0x00	; 50
   A838 80 81 00 00        5751 	.byte #0x80,#0x81,#0x00,#0x00	; 33152
   A83C 34 00 00 00        5752 	.byte #0x34,#0x00,#0x00,#0x00	; 52
   A840 40 0C 00 00        5753 	.byte #0x40,#0x0C,#0x00,#0x00	; 3136
   A844 00 10 30 00        5754 	.byte #0x00,#0x10,#0x30,#0x00	; 3149824
   A848 00 02 0C 00        5755 	.byte #0x00,#0x02,#0x0C,#0x00	; 786944
   A84C 38 00 00 00        5756 	.byte #0x38,#0x00,#0x00,#0x00	; 56
   A850 00 30 04 00        5757 	.byte #0x00,#0x30,#0x04,#0x00	; 274432
   A854 00 06 40 00        5758 	.byte #0x00,#0x06,#0x40,#0x00	; 4195840
   A858 40 00 21 00        5759 	.byte #0x40,#0x00,#0x21,#0x00	; 2162752
   A85C 80 00 09 00        5760 	.byte #0x80,#0x00,#0x09,#0x00	; 589952
   A860 00 80 50 00        5761 	.byte #0x00,#0x80,#0x50,#0x00	; 5275648
   A864 00 29 00 00        5762 	.byte #0x00,#0x29,#0x00,#0x00	; 10496
   A868 10 40 02 00        5763 	.byte #0x10,#0x40,#0x02,#0x00	; 147472
   A86C 40 00 00 00        5764 	.byte #0x40,#0x00,#0x00,#0x00	; 64
   A870 41 00 00 00        5765 	.byte #0x41,#0x00,#0x00,#0x00	; 65
   A874 42 00 00 00        5766 	.byte #0x42,#0x00,#0x00,#0x00	; 66
   A878 43 00 00 00        5767 	.byte #0x43,#0x00,#0x00,#0x00	; 67
   A87C 44 00 00 00        5768 	.byte #0x44,#0x00,#0x00,#0x00	; 68
   A880 45 00 00 00        5769 	.byte #0x45,#0x00,#0x00,#0x00	; 69
   A884 46 00 00 00        5770 	.byte #0x46,#0x00,#0x00,#0x00	; 70
   A888 80 00 28 00        5771 	.byte #0x80,#0x00,#0x28,#0x00	; 2621568
   A88C 48 00 00 00        5772 	.byte #0x48,#0x00,#0x00,#0x00	; 72
   A890 49 00 00 00        5773 	.byte #0x49,#0x00,#0x00,#0x00	; 73
   A894 4A 00 00 00        5774 	.byte #0x4A,#0x00,#0x00,#0x00	; 74
   A898 00 25 00 00        5775 	.byte #0x00,#0x25,#0x00,#0x00	; 9472
   A89C 4C 00 00 00        5776 	.byte #0x4C,#0x00,#0x00,#0x00	; 76
   A8A0 00 10 11 00        5777 	.byte #0x00,#0x10,#0x11,#0x00	; 1118208
   A8A4 10 80 04 00        5778 	.byte #0x10,#0x80,#0x04,#0x00	; 294928
   A8A8 00 0A 40 00        5779 	.byte #0x00,#0x0A,#0x40,#0x00	; 4196864
   A8AC 50 00 00 00        5780 	.byte #0x50,#0x00,#0x00,#0x00	; 80
   A8B0 51 00 00 00        5781 	.byte #0x51,#0x00,#0x00,#0x00	; 81
   A8B4 52 00 00 00        5782 	.byte #0x52,#0x00,#0x00,#0x00	; 82
   A8B8 00 12 02 00        5783 	.byte #0x00,#0x12,#0x02,#0x00	; 135680
   A8BC 54 00 00 00        5784 	.byte #0x54,#0x00,#0x00,#0x00	; 84
   A8C0 20 0C 00 00        5785 	.byte #0x20,#0x0C,#0x00,#0x00	; 3104
   A8C4 08 80 04 00        5786 	.byte #0x08,#0x80,#0x04,#0x00	; 294920
   A8C8 00 41 10 00        5787 	.byte #0x00,#0x41,#0x10,#0x00	; 1065216
   A8CC 58 00 00 00        5788 	.byte #0x58,#0x00,#0x00,#0x00	; 88
   A8D0 80 40 40 00        5789 	.byte #0x80,#0x40,#0x40,#0x00	; 4210816
   A8D4 04 80 04 00        5790 	.byte #0x04,#0x80,#0x04,#0x00	; 294916
   A8D8 20 00 21 00        5791 	.byte #0x20,#0x00,#0x21,#0x00	; 2162720
   A8DC 02 80 04 00        5792 	.byte #0x02,#0x80,#0x04,#0x00	; 294914
   A8E0 00 20 0A 00        5793 	.byte #0x00,#0x20,#0x0A,#0x00	; 663552
   A8E4 00 80 04 00        5794 	.byte #0x00,#0x80,#0x04,#0x00	; 294912
   A8E8 01 80 04 00        5795 	.byte #0x01,#0x80,#0x04,#0x00	; 294913
   A8EC 60 00 00 00        5796 	.byte #0x60,#0x00,#0x00,#0x00	; 96
   A8F0 61 00 00 00        5797 	.byte #0x61,#0x00,#0x00,#0x00	; 97
   A8F4 62 00 00 00        5798 	.byte #0x62,#0x00,#0x00,#0x00	; 98
   A8F8 00 00 54 00        5799 	.byte #0x00,#0x00,#0x54,#0x00	; 5505024
   A8FC 64 00 00 00        5800 	.byte #0x64,#0x00,#0x00,#0x00	; 100
   A900 10 0C 00 00        5801 	.byte #0x10,#0x0C,#0x00,#0x00	; 3088
   A904 00 03 01 00        5802 	.byte #0x00,#0x03,#0x01,#0x00	; 66304
   A908 00 B0 00 00        5803 	.byte #0x00,#0xB0,#0x00,#0x00	; 45056
   A90C 68 00 00 00        5804 	.byte #0x68,#0x00,#0x00,#0x00	; 104
   A910 00 82 08 00        5805 	.byte #0x00,#0x82,#0x08,#0x00	; 557568
   A914 80 18 00 00        5806 	.byte #0x80,#0x18,#0x00,#0x00	; 6272
   A918 10 00 21 00        5807 	.byte #0x10,#0x00,#0x21,#0x00	; 2162704
   A91C 00 20 60 00        5808 	.byte #0x00,#0x20,#0x60,#0x00	; 6299648
   A920 80 01 04 00        5809 	.byte #0x80,#0x01,#0x04,#0x00	; 262528
   A924 00 04 18 00        5810 	.byte #0x00,#0x04,#0x18,#0x00	; 1573888
   A928 40 40 02 00        5811 	.byte #0x40,#0x40,#0x02,#0x00	; 147520
   A92C 70 00 00 00        5812 	.byte #0x70,#0x00,#0x00,#0x00	; 112
   A930 04 0C 00 00        5813 	.byte #0x04,#0x0C,#0x00,#0x00	; 3076
   A934 00 60 08 00        5814 	.byte #0x00,#0x60,#0x08,#0x00	; 548864
   A938 08 00 21 00        5815 	.byte #0x08,#0x00,#0x21,#0x00	; 2162696
   A93C 01 0C 00 00        5816 	.byte #0x01,#0x0C,#0x00,#0x00	; 3073
   A940 00 0C 00 00        5817 	.byte #0x00,#0x0C,#0x00,#0x00	; 3072
   A944 80 00 42 00        5818 	.byte #0x80,#0x00,#0x42,#0x00	; 4325504
   A948 02 0C 00 00        5819 	.byte #0x02,#0x0C,#0x00,#0x00	; 3074
   A94C 00 01 12 00        5820 	.byte #0x00,#0x01,#0x12,#0x00	; 1179904
   A950 02 00 21 00        5821 	.byte #0x02,#0x00,#0x21,#0x00	; 2162690
   A954 01 00 21 00        5822 	.byte #0x01,#0x00,#0x21,#0x00	; 2162689
   A958 00 00 21 00        5823 	.byte #0x00,#0x00,#0x21,#0x00	; 2162688
   A95C 00 52 00 00        5824 	.byte #0x00,#0x52,#0x00,#0x00	; 20992
   A960 08 0C 00 00        5825 	.byte #0x08,#0x0C,#0x00,#0x00	; 3080
   A964 20 80 04 00        5826 	.byte #0x20,#0x80,#0x04,#0x00	; 294944
   A968 04 00 21 00        5827 	.byte #0x04,#0x00,#0x21,#0x00	; 2162692
   A96C 80 00 00 00        5828 	.byte #0x80,#0x00,#0x00,#0x00	; 128
   A970 81 00 00 00        5829 	.byte #0x81,#0x00,#0x00,#0x00	; 129
   A974 82 00 00 00        5830 	.byte #0x82,#0x00,#0x00,#0x00	; 130
   A978 83 00 00 00        5831 	.byte #0x83,#0x00,#0x00,#0x00	; 131
   A97C 84 00 00 00        5832 	.byte #0x84,#0x00,#0x00,#0x00	; 132
   A980 85 00 00 00        5833 	.byte #0x85,#0x00,#0x00,#0x00	; 133
   A984 86 00 00 00        5834 	.byte #0x86,#0x00,#0x00,#0x00	; 134
   A988 40 00 28 00        5835 	.byte #0x40,#0x00,#0x28,#0x00	; 2621504
   A98C 88 00 00 00        5836 	.byte #0x88,#0x00,#0x00,#0x00	; 136
   A990 89 00 00 00        5837 	.byte #0x89,#0x00,#0x00,#0x00	; 137
   A994 8A 00 00 00        5838 	.byte #0x8A,#0x00,#0x00,#0x00	; 138
   A998 00 02 05 00        5839 	.byte #0x00,#0x02,#0x05,#0x00	; 328192
   A99C 8C 00 00 00        5840 	.byte #0x8C,#0x00,#0x00,#0x00	; 140
   A9A0 00 A8 00 00        5841 	.byte #0x00,#0xA8,#0x00,#0x00	; 43008
   A9A4 00 01 50 00        5842 	.byte #0x00,#0x01,#0x50,#0x00	; 5243136
   A9A8 10 14 00 00        5843 	.byte #0x10,#0x14,#0x00,#0x00	; 5136
   A9AC 90 00 00 00        5844 	.byte #0x90,#0x00,#0x00,#0x00	; 144
   A9B0 91 00 00 00        5845 	.byte #0x91,#0x00,#0x00,#0x00	; 145
   A9B4 92 00 00 00        5846 	.byte #0x92,#0x00,#0x00,#0x00	; 146
   A9B8 20 81 00 00        5847 	.byte #0x20,#0x81,#0x00,#0x00	; 33056
   A9BC 94 00 00 00        5848 	.byte #0x94,#0x00,#0x00,#0x00	; 148
   A9C0 00 00 16 00        5849 	.byte #0x00,#0x00,#0x16,#0x00	; 1441792
   A9C4 00 4A 00 00        5850 	.byte #0x00,#0x4A,#0x00,#0x00	; 18944
   A9C8 08 14 00 00        5851 	.byte #0x08,#0x14,#0x00,#0x00	; 5128
   A9CC 98 00 00 00        5852 	.byte #0x98,#0x00,#0x00,#0x00	; 152
   A9D0 40 40 40 00        5853 	.byte #0x40,#0x40,#0x40,#0x00	; 4210752
   A9D4 00 20 22 00        5854 	.byte #0x00,#0x20,#0x22,#0x00	; 2236416
   A9D8 04 14 00 00        5855 	.byte #0x04,#0x14,#0x00,#0x00	; 5124
   A9DC 20 00 09 00        5856 	.byte #0x20,#0x00,#0x09,#0x00	; 589856
   A9E0 02 14 00 00        5857 	.byte #0x02,#0x14,#0x00,#0x00	; 5122
   A9E4 01 14 00 00        5858 	.byte #0x01,#0x14,#0x00,#0x00	; 5121
   A9E8 00 14 00 00        5859 	.byte #0x00,#0x14,#0x00,#0x00	; 5120
   A9EC A0 00 00 00        5860 	.byte #0xA0,#0x00,#0x00,#0x00	; 160
   A9F0 A1 00 00 00        5861 	.byte #0xA1,#0x00,#0x00,#0x00	; 161
   A9F4 A2 00 00 00        5862 	.byte #0xA2,#0x00,#0x00,#0x00	; 162
   A9F8 10 81 00 00        5863 	.byte #0x10,#0x81,#0x00,#0x00	; 33040
   A9FC A4 00 00 00        5864 	.byte #0xA4,#0x00,#0x00,#0x00	; 164
   AA00 00 12 40 00        5865 	.byte #0x00,#0x12,#0x40,#0x00	; 4198912
   AA04 00 24 04 00        5866 	.byte #0x00,#0x24,#0x04,#0x00	; 271360
   AA08 00 08 11 00        5867 	.byte #0x00,#0x08,#0x11,#0x00	; 1116160
   AA0C A8 00 00 00        5868 	.byte #0xA8,#0x00,#0x00,#0x00	; 168
   AA10 00 04 30 00        5869 	.byte #0x00,#0x04,#0x30,#0x00	; 3146752
   AA14 40 18 00 00        5870 	.byte #0x40,#0x18,#0x00,#0x00	; 6208
   AA18 00 20 48 00        5871 	.byte #0x00,#0x20,#0x48,#0x00	; 4726784
   AA1C 10 00 09 00        5872 	.byte #0x10,#0x00,#0x09,#0x00	; 589840
   AA20 40 01 04 00        5873 	.byte #0x40,#0x01,#0x04,#0x00	; 262464
   AA24 00 82 20 00        5874 	.byte #0x00,#0x82,#0x20,#0x00	; 2130432
   AA28 80 40 02 00        5875 	.byte #0x80,#0x40,#0x02,#0x00	; 147584
   AA2C B0 00 00 00        5876 	.byte #0xB0,#0x00,#0x00,#0x00	; 176
   AA30 02 81 00 00        5877 	.byte #0x02,#0x81,#0x00,#0x00	; 33026
   AA34 01 81 00 00        5878 	.byte #0x01,#0x81,#0x00,#0x00	; 33025
   AA38 00 81 00 00        5879 	.byte #0x00,#0x81,#0x00,#0x00	; 33024
   AA3C 08 00 09 00        5880 	.byte #0x08,#0x00,#0x09,#0x00	; 589832
   AA40 00 60 20 00        5881 	.byte #0x00,#0x60,#0x20,#0x00	; 2121728
   AA44 40 00 42 00        5882 	.byte #0x40,#0x00,#0x42,#0x00	; 4325440
   AA48 04 81 00 00        5883 	.byte #0x04,#0x81,#0x00,#0x00	; 33028
   AA4C 04 00 09 00        5884 	.byte #0x04,#0x00,#0x09,#0x00	; 589828
   AA50 00 0A 02 00        5885 	.byte #0x00,#0x0A,#0x02,#0x00	; 133632
   AA54 00 40 14 00        5886 	.byte #0x00,#0x40,#0x14,#0x00	; 1327104
   AA58 08 81 00 00        5887 	.byte #0x08,#0x81,#0x00,#0x00	; 33032
   AA5C 00 00 09 00        5888 	.byte #0x00,#0x00,#0x09,#0x00	; 589824
   AA60 01 00 09 00        5889 	.byte #0x01,#0x00,#0x09,#0x00	; 589825
   AA64 02 00 09 00        5890 	.byte #0x02,#0x00,#0x09,#0x00	; 589826
   AA68 20 14 00 00        5891 	.byte #0x20,#0x14,#0x00,#0x00	; 5152
   AA6C C0 00 00 00        5892 	.byte #0xC0,#0x00,#0x00,#0x00	; 192
   AA70 C1 00 00 00        5893 	.byte #0xC1,#0x00,#0x00,#0x00	; 193
   AA74 C2 00 00 00        5894 	.byte #0xC2,#0x00,#0x00,#0x00	; 194
   AA78 04 00 28 00        5895 	.byte #0x04,#0x00,#0x28,#0x00	; 2621444
   AA7C C4 00 00 00        5896 	.byte #0xC4,#0x00,#0x00,#0x00	; 196
   AA80 02 00 28 00        5897 	.byte #0x02,#0x00,#0x28,#0x00	; 2621442
   AA84 01 00 28 00        5898 	.byte #0x01,#0x00,#0x28,#0x00	; 2621441
   AA88 00 00 28 00        5899 	.byte #0x00,#0x00,#0x28,#0x00	; 2621440
   AA8C C8 00 00 00        5900 	.byte #0xC8,#0x00,#0x00,#0x00	; 200
   AA90 10 40 40 00        5901 	.byte #0x10,#0x40,#0x40,#0x00	; 4210704
   AA94 20 18 00 00        5902 	.byte #0x20,#0x18,#0x00,#0x00	; 6176
   AA98 00 80 12 00        5903 	.byte #0x00,#0x80,#0x12,#0x00	; 1212416
   AA9C 00 06 02 00        5904 	.byte #0x00,#0x06,#0x02,#0x00	; 132608
   AAA0 20 01 04 00        5905 	.byte #0x20,#0x01,#0x04,#0x00	; 262432
   AAA4 00 60 01 00        5906 	.byte #0x00,#0x60,#0x01,#0x00	; 90112
   AAA8 08 00 28 00        5907 	.byte #0x08,#0x00,#0x28,#0x00	; 2621448
   AAAC D0 00 00 00        5908 	.byte #0xD0,#0x00,#0x00,#0x00	; 208
   AAB0 08 40 40 00        5909 	.byte #0x08,#0x40,#0x40,#0x00	; 4210696
   AAB4 00 04 11 00        5910 	.byte #0x00,#0x04,#0x11,#0x00	; 1115136
   AAB8 00 28 04 00        5911 	.byte #0x00,#0x28,#0x04,#0x00	; 272384
   AABC 00 31 00 00        5912 	.byte #0x00,#0x31,#0x00,#0x00	; 12544
   AAC0 00 82 01 00        5913 	.byte #0x00,#0x82,#0x01,#0x00	; 98816
   AAC4 20 00 42 00        5914 	.byte #0x20,#0x00,#0x42,#0x00	; 4325408
   AAC8 10 00 28 00        5915 	.byte #0x10,#0x00,#0x28,#0x00	; 2621456
   AACC 01 40 40 00        5916 	.byte #0x01,#0x40,#0x40,#0x00	; 4210689
   AAD0 00 40 40 00        5917 	.byte #0x00,#0x40,#0x40,#0x00	; 4210688
   AAD4 00 03 08 00        5918 	.byte #0x00,#0x03,#0x08,#0x00	; 525056
   AAD8 02 40 40 00        5919 	.byte #0x02,#0x40,#0x40,#0x00	; 4210690
   AADC 00 08 30 00        5920 	.byte #0x00,#0x08,#0x30,#0x00	; 3147776
   AAE0 04 40 40 00        5921 	.byte #0x04,#0x40,#0x40,#0x00	; 4210692
   AAE4 80 80 04 00        5922 	.byte #0x80,#0x80,#0x04,#0x00	; 295040
   AAE8 40 14 00 00        5923 	.byte #0x40,#0x14,#0x00,#0x00	; 5184
   AAEC E0 00 00 00        5924 	.byte #0xE0,#0x00,#0x00,#0x00	; 224
   AAF0 00 20 03 00        5925 	.byte #0x00,#0x20,#0x03,#0x00	; 204800
   AAF4 08 18 00 00        5926 	.byte #0x08,#0x18,#0x00,#0x00	; 6152
   AAF8 00 46 00 00        5927 	.byte #0x00,#0x46,#0x00,#0x00	; 17920
   AAFC 00 C0 10 00        5928 	.byte #0x00,#0xC0,#0x10,#0x00	; 1097728
   AB00 08 01 04 00        5929 	.byte #0x08,#0x01,#0x04,#0x00	; 262408
   AB04 10 00 42 00        5930 	.byte #0x10,#0x00,#0x42,#0x00	; 4325392
   AB08 20 00 28 00        5931 	.byte #0x20,#0x00,#0x28,#0x00	; 2621472
   AB0C 02 18 00 00        5932 	.byte #0x02,#0x18,#0x00,#0x00	; 6146
   AB10 04 01 04 00        5933 	.byte #0x04,#0x01,#0x04,#0x00	; 262404
   AB14 00 18 00 00        5934 	.byte #0x00,#0x18,#0x00,#0x00	; 6144
   AB18 01 18 00 00        5935 	.byte #0x01,#0x18,#0x00,#0x00	; 6145
   AB1C 01 01 04 00        5936 	.byte #0x01,#0x01,#0x04,#0x00	; 262401
   AB20 00 01 04 00        5937 	.byte #0x00,#0x01,#0x04,#0x00	; 262400
   AB24 04 18 00 00        5938 	.byte #0x04,#0x18,#0x00,#0x00	; 6148
   AB28 02 01 04 00        5939 	.byte #0x02,#0x01,#0x04,#0x00	; 262402
   AB2C 00 02 24 00        5940 	.byte #0x00,#0x02,#0x24,#0x00	; 2359808
   AB30 00 10 18 00        5941 	.byte #0x00,#0x10,#0x18,#0x00	; 1576960
   AB34 04 00 42 00        5942 	.byte #0x04,#0x00,#0x42,#0x00	; 4325380
   AB38 40 81 00 00        5943 	.byte #0x40,#0x81,#0x00,#0x00	; 33088
   AB3C 02 00 42 00        5944 	.byte #0x02,#0x00,#0x42,#0x00	; 4325378
   AB40 80 0C 00 00        5945 	.byte #0x80,#0x0C,#0x00,#0x00	; 3200
   AB44 00 00 42 00        5946 	.byte #0x00,#0x00,#0x42,#0x00	; 4325376
   AB48 01 00 42 00        5947 	.byte #0x01,#0x00,#0x42,#0x00	; 4325377
   AB4C 00 A4 00 00        5948 	.byte #0x00,#0xA4,#0x00,#0x00	; 41984
   AB50 20 40 40 00        5949 	.byte #0x20,#0x40,#0x40,#0x00	; 4210720
   AB54 10 18 00 00        5950 	.byte #0x10,#0x18,#0x00,#0x00	; 6160
   AB58 80 00 21 00        5951 	.byte #0x80,#0x00,#0x21,#0x00	; 2162816
   AB5C 40 00 09 00        5952 	.byte #0x40,#0x00,#0x09,#0x00	; 589888
   AB60 10 01 04 00        5953 	.byte #0x10,#0x01,#0x04,#0x00	; 262416
   AB64 08 00 42 00        5954 	.byte #0x08,#0x00,#0x42,#0x00	; 4325384
   AB68 00 22 10 00        5955 	.byte #0x00,#0x22,#0x10,#0x00	; 1057280
   AB6C 00 01 00 00        5956 	.byte #0x00,#0x01,#0x00,#0x00	; 256
   AB70 01 01 00 00        5957 	.byte #0x01,#0x01,#0x00,#0x00	; 257
   AB74 02 01 00 00        5958 	.byte #0x02,#0x01,#0x00,#0x00	; 258
   AB78 03 01 00 00        5959 	.byte #0x03,#0x01,#0x00,#0x00	; 259
   AB7C 04 01 00 00        5960 	.byte #0x04,#0x01,#0x00,#0x00	; 260
   AB80 05 01 00 00        5961 	.byte #0x05,#0x01,#0x00,#0x00	; 261
   AB84 06 01 00 00        5962 	.byte #0x06,#0x01,#0x00,#0x00	; 262
   AB88 00 18 04 00        5963 	.byte #0x00,#0x18,#0x04,#0x00	; 268288
   AB8C 08 01 00 00        5964 	.byte #0x08,#0x01,#0x00,#0x00	; 264
   AB90 09 01 00 00        5965 	.byte #0x09,#0x01,#0x00,#0x00	; 265
   AB94 0A 01 00 00        5966 	.byte #0x0A,#0x01,#0x00,#0x00	; 266
   AB98 40 24 00 00        5967 	.byte #0x40,#0x24,#0x00,#0x00	; 9280
   AB9C 0C 01 00 00        5968 	.byte #0x0C,#0x01,#0x00,#0x00	; 268
   ABA0 10 02 20 00        5969 	.byte #0x10,#0x02,#0x20,#0x00	; 2097680
   ABA4 80 00 50 00        5970 	.byte #0x80,#0x00,#0x50,#0x00	; 5243008
   ABA8 00 80 09 00        5971 	.byte #0x00,#0x80,#0x09,#0x00	; 622592
   ABAC 10 01 00 00        5972 	.byte #0x10,#0x01,#0x00,#0x00	; 272
   ABB0 11 01 00 00        5973 	.byte #0x11,#0x01,#0x00,#0x00	; 273
   ABB4 12 01 00 00        5974 	.byte #0x12,#0x01,#0x00,#0x00	; 274
   ABB8 A0 80 00 00        5975 	.byte #0xA0,#0x80,#0x00,#0x00	; 32928
   ABBC 14 01 00 00        5976 	.byte #0x14,#0x01,#0x00,#0x00	; 276
   ABC0 08 02 20 00        5977 	.byte #0x08,#0x02,#0x20,#0x00	; 2097672
   ABC4 00 04 0A 00        5978 	.byte #0x00,#0x04,#0x0A,#0x00	; 656384
   ABC8 40 40 10 00        5979 	.byte #0x40,#0x40,#0x10,#0x00	; 1065024
   ABCC 18 01 00 00        5980 	.byte #0x18,#0x01,#0x00,#0x00	; 280
   ABD0 04 02 20 00        5981 	.byte #0x04,#0x02,#0x20,#0x00	; 2097668
   ABD4 00 50 01 00        5982 	.byte #0x00,#0x50,#0x01,#0x00	; 86016
   ABD8 00 00 46 00        5983 	.byte #0x00,#0x00,#0x46,#0x00	; 4587520
   ABDC 01 02 20 00        5984 	.byte #0x01,#0x02,#0x20,#0x00	; 2097665
   ABE0 00 02 20 00        5985 	.byte #0x00,#0x02,#0x20,#0x00	; 2097664
   ABE4 20 28 00 00        5986 	.byte #0x20,#0x28,#0x00,#0x00	; 10272
   ABE8 02 02 20 00        5987 	.byte #0x02,#0x02,#0x20,#0x00	; 2097666
   ABEC 20 01 00 00        5988 	.byte #0x20,#0x01,#0x00,#0x00	; 288
   ABF0 21 01 00 00        5989 	.byte #0x21,#0x01,#0x00,#0x00	; 289
   ABF4 22 01 00 00        5990 	.byte #0x22,#0x01,#0x00,#0x00	; 290
   ABF8 90 80 00 00        5991 	.byte #0x90,#0x80,#0x00,#0x00	; 32912
   ABFC 24 01 00 00        5992 	.byte #0x24,#0x01,#0x00,#0x00	; 292
   AC00 00 20 18 00        5993 	.byte #0x00,#0x20,#0x18,#0x00	; 1581056
   AC04 40 02 01 00        5994 	.byte #0x40,#0x02,#0x01,#0x00	; 66112
   AC08 00 04 60 00        5995 	.byte #0x00,#0x04,#0x60,#0x00	; 6292480
   AC0C 28 01 00 00        5996 	.byte #0x28,#0x01,#0x00,#0x00	; 296
   AC10 00 08 41 00        5997 	.byte #0x00,#0x08,#0x41,#0x00	; 4261888
   AC14 00 00 2C 00        5998 	.byte #0x00,#0x00,#0x2C,#0x00	; 2883584
   AC18 00 12 10 00        5999 	.byte #0x00,#0x12,#0x10,#0x00	; 1053184
   AC1C 00 94 00 00        6000 	.byte #0x00,#0x94,#0x00,#0x00	; 37888
   AC20 C0 00 04 00        6001 	.byte #0xC0,#0x00,#0x04,#0x00	; 262336
   AC24 10 28 00 00        6002 	.byte #0x10,#0x28,#0x00,#0x00	; 10256
   AC28 00 41 02 00        6003 	.byte #0x00,#0x41,#0x02,#0x00	; 147712
   AC2C 30 01 00 00        6004 	.byte #0x30,#0x01,#0x00,#0x00	; 304
   AC30 82 80 00 00        6005 	.byte #0x82,#0x80,#0x00,#0x00	; 32898
   AC34 81 80 00 00        6006 	.byte #0x81,#0x80,#0x00,#0x00	; 32897
   AC38 80 80 00 00        6007 	.byte #0x80,#0x80,#0x00,#0x00	; 32896
   AC3C 00 40 44 00        6008 	.byte #0x00,#0x40,#0x44,#0x00	; 4472832
   AC40 00 10 03 00        6009 	.byte #0x00,#0x10,#0x03,#0x00	; 200704
   AC44 08 28 00 00        6010 	.byte #0x08,#0x28,#0x00,#0x00	; 10248
   AC48 84 80 00 00        6011 	.byte #0x84,#0x80,#0x00,#0x00	; 32900
   AC4C 40 00 12 00        6012 	.byte #0x40,#0x00,#0x12,#0x00	; 1179712
   AC50 00 44 08 00        6013 	.byte #0x00,#0x44,#0x08,#0x00	; 541696
   AC54 04 28 00 00        6014 	.byte #0x04,#0x28,#0x00,#0x00	; 10244
   AC58 88 80 00 00        6015 	.byte #0x88,#0x80,#0x00,#0x00	; 32904
   AC5C 02 28 00 00        6016 	.byte #0x02,#0x28,#0x00,#0x00	; 10242
   AC60 20 02 20 00        6017 	.byte #0x20,#0x02,#0x20,#0x00	; 2097696
   AC64 00 28 00 00        6018 	.byte #0x00,#0x28,#0x00,#0x00	; 10240
   AC68 01 28 00 00        6019 	.byte #0x01,#0x28,#0x00,#0x00	; 10241
   AC6C 40 01 00 00        6020 	.byte #0x40,#0x01,#0x00,#0x00	; 320
   AC70 41 01 00 00        6021 	.byte #0x41,#0x01,#0x00,#0x00	; 321
   AC74 42 01 00 00        6022 	.byte #0x42,#0x01,#0x00,#0x00	; 322
   AC78 08 24 00 00        6023 	.byte #0x08,#0x24,#0x00,#0x00	; 9224
   AC7C 44 01 00 00        6024 	.byte #0x44,#0x01,#0x00,#0x00	; 324
   AC80 00 80 42 00        6025 	.byte #0x00,#0x80,#0x42,#0x00	; 4358144
   AC84 20 02 01 00        6026 	.byte #0x20,#0x02,#0x01,#0x00	; 66080
   AC88 10 40 10 00        6027 	.byte #0x10,#0x40,#0x10,#0x00	; 1064976
   AC8C 48 01 00 00        6028 	.byte #0x48,#0x01,#0x00,#0x00	; 328
   AC90 02 24 00 00        6029 	.byte #0x02,#0x24,#0x00,#0x00	; 9218
   AC94 01 24 00 00        6030 	.byte #0x01,#0x24,#0x00,#0x00	; 9217
   AC98 00 24 00 00        6031 	.byte #0x00,#0x24,#0x00,#0x00	; 9216
   AC9C 00 48 08 00        6032 	.byte #0x00,#0x48,#0x08,#0x00	; 542720
   ACA0 A0 00 04 00        6033 	.byte #0xA0,#0x00,#0x04,#0x00	; 262304
   ACA4 00 10 22 00        6034 	.byte #0x00,#0x10,#0x22,#0x00	; 2232320
   ACA8 04 24 00 00        6035 	.byte #0x04,#0x24,#0x00,#0x00	; 9220
   ACAC 50 01 00 00        6036 	.byte #0x50,#0x01,#0x00,#0x00	; 336
   ACB0 00 00 0D 00        6037 	.byte #0x00,#0x00,#0x0D,#0x00	; 851968
   ACB4 00 08 60 00        6038 	.byte #0x00,#0x08,#0x60,#0x00	; 6293504
   ACB8 04 40 10 00        6039 	.byte #0x04,#0x40,#0x10,#0x00	; 1064964
   ACBC 80 30 00 00        6040 	.byte #0x80,#0x30,#0x00,#0x00	; 12416
   ACC0 02 40 10 00        6041 	.byte #0x02,#0x40,#0x10,#0x00	; 1064962
   ACC4 01 40 10 00        6042 	.byte #0x01,#0x40,#0x10,#0x00	; 1064961
   ACC8 00 40 10 00        6043 	.byte #0x00,#0x40,#0x10,#0x00	; 1064960
   ACCC 20 00 12 00        6044 	.byte #0x20,#0x00,#0x12,#0x00	; 1179680
   ACD0 00 98 00 00        6045 	.byte #0x00,#0x98,#0x00,#0x00	; 38912
   ACD4 80 02 08 00        6046 	.byte #0x80,#0x02,#0x08,#0x00	; 524928
   ACD8 10 24 00 00        6047 	.byte #0x10,#0x24,#0x00,#0x00	; 9232
   ACDC 00 04 41 00        6048 	.byte #0x00,#0x04,#0x41,#0x00	; 4260864
   ACE0 40 02 20 00        6049 	.byte #0x40,#0x02,#0x20,#0x00	; 2097728
   ACE4 00 81 04 00        6050 	.byte #0x00,#0x81,#0x04,#0x00	; 295168
   ACE8 08 40 10 00        6051 	.byte #0x08,#0x40,#0x10,#0x00	; 1064968
   ACEC 60 01 00 00        6052 	.byte #0x60,#0x01,#0x00,#0x00	; 352
   ACF0 00 50 20 00        6053 	.byte #0x00,#0x50,#0x20,#0x00	; 2117632
   ACF4 04 02 01 00        6054 	.byte #0x04,#0x02,#0x01,#0x00	; 66052
   ACF8 00 08 0A 00        6055 	.byte #0x00,#0x08,#0x0A,#0x00	; 657408
   ACFC 02 02 01 00        6056 	.byte #0x02,#0x02,#0x01,#0x00	; 66050
   AD00 88 00 04 00        6057 	.byte #0x88,#0x00,#0x04,#0x00	; 262280
   AD04 00 02 01 00        6058 	.byte #0x00,#0x02,#0x01,#0x00	; 66048
   AD08 01 02 01 00        6059 	.byte #0x01,#0x02,#0x01,#0x00	; 66049
   AD0C 10 00 12 00        6060 	.byte #0x10,#0x00,#0x12,#0x00	; 1179664
   AD10 84 00 04 00        6061 	.byte #0x84,#0x00,#0x04,#0x00	; 262276
   AD14 00 C0 40 00        6062 	.byte #0x00,#0xC0,#0x40,#0x00	; 4243456
   AD18 20 24 00 00        6063 	.byte #0x20,#0x24,#0x00,#0x00	; 9248
   AD1C 81 00 04 00        6064 	.byte #0x81,#0x00,#0x04,#0x00	; 262273
   AD20 80 00 04 00        6065 	.byte #0x80,#0x00,#0x04,#0x00	; 262272
   AD24 08 02 01 00        6066 	.byte #0x08,#0x02,#0x01,#0x00	; 66056
   AD28 82 00 04 00        6067 	.byte #0x82,#0x00,#0x04,#0x00	; 262274
   AD2C 08 00 12 00        6068 	.byte #0x08,#0x00,#0x12,#0x00	; 1179656
   AD30 00 22 40 00        6069 	.byte #0x00,#0x22,#0x40,#0x00	; 4203008
   AD34 00 14 04 00        6070 	.byte #0x00,#0x14,#0x04,#0x00	; 267264
   AD38 C0 80 00 00        6071 	.byte #0xC0,#0x80,#0x00,#0x00	; 32960
   AD3C 00 80 28 00        6072 	.byte #0x00,#0x80,#0x28,#0x00	; 2654208
   AD40 00 0D 00 00        6073 	.byte #0x00,#0x0D,#0x00,#0x00	; 3328
   AD44 10 02 01 00        6074 	.byte #0x10,#0x02,#0x01,#0x00	; 66064
   AD48 20 40 10 00        6075 	.byte #0x20,#0x40,#0x10,#0x00	; 1064992
   AD4C 00 00 12 00        6076 	.byte #0x00,#0x00,#0x12,#0x00	; 1179648
   AD50 01 00 12 00        6077 	.byte #0x01,#0x00,#0x12,#0x00	; 1179649
   AD54 02 00 12 00        6078 	.byte #0x02,#0x00,#0x12,#0x00	; 1179650
   AD58 00 01 21 00        6079 	.byte #0x00,#0x01,#0x21,#0x00	; 2162944
   AD5C 04 00 12 00        6080 	.byte #0x04,#0x00,#0x12,#0x00	; 1179652
   AD60 90 00 04 00        6081 	.byte #0x90,#0x00,#0x04,#0x00	; 262288
   AD64 40 28 00 00        6082 	.byte #0x40,#0x28,#0x00,#0x00	; 10304
   AD68 00 10 48 00        6083 	.byte #0x00,#0x10,#0x48,#0x00	; 4722688
   AD6C 80 01 00 00        6084 	.byte #0x80,#0x01,#0x00,#0x00	; 384
   AD70 81 01 00 00        6085 	.byte #0x81,#0x01,#0x00,#0x00	; 385
   AD74 82 01 00 00        6086 	.byte #0x82,#0x01,#0x00,#0x00	; 386
   AD78 30 80 00 00        6087 	.byte #0x30,#0x80,#0x00,#0x00	; 32816
   AD7C 84 01 00 00        6088 	.byte #0x84,#0x01,#0x00,#0x00	; 388
   AD80 00 44 01 00        6089 	.byte #0x00,#0x44,#0x01,#0x00	; 82944
   AD84 08 00 50 00        6090 	.byte #0x08,#0x00,#0x50,#0x00	; 5242888
   AD88 00 22 02 00        6091 	.byte #0x00,#0x22,#0x02,#0x00	; 139776
   AD8C 88 01 00 00        6092 	.byte #0x88,#0x01,#0x00,#0x00	; 392
   AD90 00 10 0A 00        6093 	.byte #0x00,#0x10,#0x0A,#0x00	; 659456
   AD94 04 00 50 00        6094 	.byte #0x04,#0x00,#0x50,#0x00	; 5242884
   AD98 00 48 20 00        6095 	.byte #0x00,#0x48,#0x20,#0x00	; 2115584
   AD9C 02 00 50 00        6096 	.byte #0x02,#0x00,#0x50,#0x00	; 5242882
   ADA0 60 00 04 00        6097 	.byte #0x60,#0x00,#0x04,#0x00	; 262240
   ADA4 00 00 50 00        6098 	.byte #0x00,#0x00,#0x50,#0x00	; 5242880
   ADA8 01 00 50 00        6099 	.byte #0x01,#0x00,#0x50,#0x00	; 5242881
   ADAC 90 01 00 00        6100 	.byte #0x90,#0x01,#0x00,#0x00	; 400
   ADB0 22 80 00 00        6101 	.byte #0x22,#0x80,#0x00,#0x00	; 32802
   ADB4 21 80 00 00        6102 	.byte #0x21,#0x80,#0x00,#0x00	; 32801
   ADB8 20 80 00 00        6103 	.byte #0x20,#0x80,#0x00,#0x00	; 32800
   ADBC 40 30 00 00        6104 	.byte #0x40,#0x30,#0x00,#0x00	; 12352
   ADC0 00 08 48 00        6105 	.byte #0x00,#0x08,#0x48,#0x00	; 4720640
   ADC4 00 00 25 00        6106 	.byte #0x00,#0x00,#0x25,#0x00	; 2424832
   ADC8 24 80 00 00        6107 	.byte #0x24,#0x80,#0x00,#0x00	; 32804
   ADCC 00 0C 04 00        6108 	.byte #0x00,#0x0C,#0x04,#0x00	; 265216
   ADD0 00 20 11 00        6109 	.byte #0x00,#0x20,#0x11,#0x00	; 1122304
   ADD4 40 02 08 00        6110 	.byte #0x40,#0x02,#0x08,#0x00	; 524864
   ADD8 28 80 00 00        6111 	.byte #0x28,#0x80,#0x00,#0x00	; 32808
   ADDC 00 C0 02 00        6112 	.byte #0x00,#0xC0,#0x02,#0x00	; 180224
   ADE0 80 02 20 00        6113 	.byte #0x80,#0x02,#0x20,#0x00	; 2097792
   ADE4 10 00 50 00        6114 	.byte #0x10,#0x00,#0x50,#0x00	; 5242896
   ADE8 00 15 00 00        6115 	.byte #0x00,#0x15,#0x00,#0x00	; 5376
   ADEC A0 01 00 00        6116 	.byte #0xA0,#0x01,#0x00,#0x00	; 416
   ADF0 12 80 00 00        6117 	.byte #0x12,#0x80,#0x00,#0x00	; 32786
   ADF4 11 80 00 00        6118 	.byte #0x11,#0x80,#0x00,#0x00	; 32785
   ADF8 10 80 00 00        6119 	.byte #0x10,#0x80,#0x00,#0x00	; 32784
   ADFC 00 08 22 00        6120 	.byte #0x00,#0x08,#0x22,#0x00	; 2230272
   AE00 48 00 04 00        6121 	.byte #0x48,#0x00,#0x04,#0x00	; 262216
   AE04 00 50 08 00        6122 	.byte #0x00,#0x50,#0x08,#0x00	; 544768
   AE08 14 80 00 00        6123 	.byte #0x14,#0x80,#0x00,#0x00	; 32788
   AE0C 00 62 00 00        6124 	.byte #0x00,#0x62,#0x00,#0x00	; 25088
   AE10 44 00 04 00        6125 	.byte #0x44,#0x00,#0x04,#0x00	; 262212
   AE14 00 04 03 00        6126 	.byte #0x00,#0x04,#0x03,#0x00	; 197632
   AE18 18 80 00 00        6127 	.byte #0x18,#0x80,#0x00,#0x00	; 32792
   AE1C 41 00 04 00        6128 	.byte #0x41,#0x00,#0x04,#0x00	; 262209
   AE20 40 00 04 00        6129 	.byte #0x40,#0x00,#0x04,#0x00	; 262208
   AE24 20 00 50 00        6130 	.byte #0x20,#0x00,#0x50,#0x00	; 5242912
   AE28 42 00 04 00        6131 	.byte #0x42,#0x00,#0x04,#0x00	; 262210
   AE2C 03 80 00 00        6132 	.byte #0x03,#0x80,#0x00,#0x00	; 32771
   AE30 02 80 00 00        6133 	.byte #0x02,#0x80,#0x00,#0x00	; 32770
   AE34 01 80 00 00        6134 	.byte #0x01,#0x80,#0x00,#0x00	; 32769
   AE38 00 80 00 00        6135 	.byte #0x00,#0x80,#0x00,#0x00	; 32768
   AE3C 00 06 10 00        6136 	.byte #0x00,#0x06,#0x10,#0x00	; 1050112
   AE40 06 80 00 00        6137 	.byte #0x06,#0x80,#0x00,#0x00	; 32774
   AE44 05 80 00 00        6138 	.byte #0x05,#0x80,#0x00,#0x00	; 32773
   AE48 04 80 00 00        6139 	.byte #0x04,#0x80,#0x00,#0x00	; 32772
   AE4C 00 10 60 00        6140 	.byte #0x00,#0x10,#0x60,#0x00	; 6295552
   AE50 0A 80 00 00        6141 	.byte #0x0A,#0x80,#0x00,#0x00	; 32778
   AE54 09 80 00 00        6142 	.byte #0x09,#0x80,#0x00,#0x00	; 32777
   AE58 08 80 00 00        6143 	.byte #0x08,#0x80,#0x00,#0x00	; 32776
   AE5C 00 01 09 00        6144 	.byte #0x00,#0x01,#0x09,#0x00	; 590080
   AE60 50 00 04 00        6145 	.byte #0x50,#0x00,#0x04,#0x00	; 262224
   AE64 80 28 00 00        6146 	.byte #0x80,#0x28,#0x00,#0x00	; 10368
   AE68 0C 80 00 00        6147 	.byte #0x0C,#0x80,#0x00,#0x00	; 32780
   AE6C C0 01 00 00        6148 	.byte #0xC0,#0x01,#0x00,#0x00	; 448
   AE70 00 0A 10 00        6149 	.byte #0x00,#0x0A,#0x10,#0x00	; 1051136
   AE74 00 40 06 00        6150 	.byte #0x00,#0x40,#0x06,#0x00	; 409600
   AE78 00 10 41 00        6151 	.byte #0x00,#0x10,#0x41,#0x00	; 4263936
   AE7C 10 30 00 00        6152 	.byte #0x10,#0x30,#0x00,#0x00	; 12304
   AE80 28 00 04 00        6153 	.byte #0x28,#0x00,#0x04,#0x00	; 262184
   AE84 00 8C 00 00        6154 	.byte #0x00,#0x8C,#0x00,#0x00	; 35840
   AE88 00 01 28 00        6155 	.byte #0x00,#0x01,#0x28,#0x00	; 2621696
   AE8C 00 80 21 00        6156 	.byte #0x00,#0x80,#0x21,#0x00	; 2195456
   AE90 24 00 04 00        6157 	.byte #0x24,#0x00,#0x04,#0x00	; 262180
   AE94 10 02 08 00        6158 	.byte #0x10,#0x02,#0x08,#0x00	; 524816
   AE98 80 24 00 00        6159 	.byte #0x80,#0x24,#0x00,#0x00	; 9344
   AE9C 21 00 04 00        6160 	.byte #0x21,#0x00,#0x04,#0x00	; 262177
   AEA0 20 00 04 00        6161 	.byte #0x20,#0x00,#0x04,#0x00	; 262176
   AEA4 40 00 50 00        6162 	.byte #0x40,#0x00,#0x50,#0x00	; 5242944
   AEA8 22 00 04 00        6163 	.byte #0x22,#0x00,#0x04,#0x00	; 262178
   AEAC 04 30 00 00        6164 	.byte #0x04,#0x30,#0x00,#0x00	; 12292
   AEB0 00 04 22 00        6165 	.byte #0x00,#0x04,#0x22,#0x00	; 2229248
   AEB4 08 02 08 00        6166 	.byte #0x08,#0x02,#0x08,#0x00	; 524808
   AEB8 60 80 00 00        6167 	.byte #0x60,#0x80,#0x00,#0x00	; 32864
   AEBC 00 30 00 00        6168 	.byte #0x00,#0x30,#0x00,#0x00	; 12288
   AEC0 01 30 00 00        6169 	.byte #0x01,#0x30,#0x00,#0x00	; 12289
   AEC4 02 30 00 00        6170 	.byte #0x02,#0x30,#0x00,#0x00	; 12290
   AEC8 80 40 10 00        6171 	.byte #0x80,#0x40,#0x10,#0x00	; 1065088
   AECC 02 02 08 00        6172 	.byte #0x02,#0x02,#0x08,#0x00	; 524802
   AED0 00 41 40 00        6173 	.byte #0x00,#0x41,#0x40,#0x00	; 4210944
   AED4 00 02 08 00        6174 	.byte #0x00,#0x02,#0x08,#0x00	; 524800
   AED8 01 02 08 00        6175 	.byte #0x01,#0x02,#0x08,#0x00	; 524801
   AEDC 08 30 00 00        6176 	.byte #0x08,#0x30,#0x00,#0x00	; 12296
   AEE0 30 00 04 00        6177 	.byte #0x30,#0x00,#0x04,#0x00	; 262192
   AEE4 04 02 08 00        6178 	.byte #0x04,#0x02,#0x08,#0x00	; 524804
   AEE8 00 08 03 00        6179 	.byte #0x00,#0x08,#0x03,#0x00	; 198656
   AEEC 00 04 48 00        6180 	.byte #0x00,#0x04,#0x48,#0x00	; 4719616
   AEF0 0C 00 04 00        6181 	.byte #0x0C,#0x00,#0x04,#0x00	; 262156
   AEF4 00 20 30 00        6182 	.byte #0x00,#0x20,#0x30,#0x00	; 3153920
   AEF8 50 80 00 00        6183 	.byte #0x50,#0x80,#0x00,#0x00	; 32848
   AEFC 09 00 04 00        6184 	.byte #0x09,#0x00,#0x04,#0x00	; 262153
   AF00 08 00 04 00        6185 	.byte #0x08,#0x00,#0x04,#0x00	; 262152
   AF04 80 02 01 00        6186 	.byte #0x80,#0x02,#0x01,#0x00	; 66176
   AF08 0A 00 04 00        6187 	.byte #0x0A,#0x00,#0x04,#0x00	; 262154
   AF0C 05 00 04 00        6188 	.byte #0x05,#0x00,#0x04,#0x00	; 262149
   AF10 04 00 04 00        6189 	.byte #0x04,#0x00,#0x04,#0x00	; 262148
   AF14 00 19 00 00        6190 	.byte #0x00,#0x19,#0x00,#0x00	; 6400
   AF18 06 00 04 00        6191 	.byte #0x06,#0x00,#0x04,#0x00	; 262150
   AF1C 01 00 04 00        6192 	.byte #0x01,#0x00,#0x04,#0x00	; 262145
   AF20 00 00 04 00        6193 	.byte #0x00,#0x00,#0x04,#0x00	; 262144
   AF24 03 00 04 00        6194 	.byte #0x03,#0x00,#0x04,#0x00	; 262147
   AF28 02 00 04 00        6195 	.byte #0x02,#0x00,#0x04,#0x00	; 262146
   AF2C 00 48 01 00        6196 	.byte #0x00,#0x48,#0x01,#0x00	; 83968
   AF30 42 80 00 00        6197 	.byte #0x42,#0x80,#0x00,#0x00	; 32834
   AF34 41 80 00 00        6198 	.byte #0x41,#0x80,#0x00,#0x00	; 32833
   AF38 40 80 00 00        6199 	.byte #0x40,#0x80,#0x00,#0x00	; 32832
   AF3C 20 30 00 00        6200 	.byte #0x20,#0x30,#0x00,#0x00	; 12320
   AF40 18 00 04 00        6201 	.byte #0x18,#0x00,#0x04,#0x00	; 262168
   AF44 00 01 42 00        6202 	.byte #0x00,#0x01,#0x42,#0x00	; 4325632
   AF48 44 80 00 00        6203 	.byte #0x44,#0x80,#0x00,#0x00	; 32836
   AF4C 80 00 12 00        6204 	.byte #0x80,#0x00,#0x12,#0x00	; 1179776
   AF50 14 00 04 00        6205 	.byte #0x14,#0x00,#0x04,#0x00	; 262164
   AF54 20 02 08 00        6206 	.byte #0x20,#0x02,#0x08,#0x00	; 524832
   AF58 48 80 00 00        6207 	.byte #0x48,#0x80,#0x00,#0x00	; 32840
   AF5C 11 00 04 00        6208 	.byte #0x11,#0x00,#0x04,#0x00	; 262161
   AF60 10 00 04 00        6209 	.byte #0x10,#0x00,#0x04,#0x00	; 262160
   AF64 00 44 20 00        6210 	.byte #0x00,#0x44,#0x20,#0x00	; 2114560
   AF68 12 00 04 00        6211 	.byte #0x12,#0x00,#0x04,#0x00	; 262162
   AF6C 00 02 00 00        6212 	.byte #0x00,#0x02,#0x00,#0x00	; 512
   AF70 01 02 00 00        6213 	.byte #0x01,#0x02,#0x00,#0x00	; 513
   AF74 02 02 00 00        6214 	.byte #0x02,#0x02,#0x00,#0x00	; 514
   AF78 03 02 00 00        6215 	.byte #0x03,#0x02,#0x00,#0x00	; 515
   AF7C 04 02 00 00        6216 	.byte #0x04,#0x02,#0x00,#0x00	; 516
   AF80 05 02 00 00        6217 	.byte #0x05,#0x02,#0x00,#0x00	; 517
   AF84 06 02 00 00        6218 	.byte #0x06,#0x02,#0x00,#0x00	; 518
   AF88 00 84 10 00        6219 	.byte #0x00,#0x84,#0x10,#0x00	; 1082368
   AF8C 08 02 00 00        6220 	.byte #0x08,#0x02,#0x00,#0x00	; 520
   AF90 09 02 00 00        6221 	.byte #0x09,#0x02,#0x00,#0x00	; 521
   AF94 0A 02 00 00        6222 	.byte #0x0A,#0x02,#0x00,#0x00	; 522
   AF98 80 00 05 00        6223 	.byte #0x80,#0x00,#0x05,#0x00	; 327808
   AF9C 0C 02 00 00        6224 	.byte #0x0C,#0x02,#0x00,#0x00	; 524
   AFA0 10 01 20 00        6225 	.byte #0x10,#0x01,#0x20,#0x00	; 2097424
   AFA4 00 30 08 00        6226 	.byte #0x00,#0x30,#0x08,#0x00	; 536576
   AFA8 40 08 40 00        6227 	.byte #0x40,#0x08,#0x40,#0x00	; 4196416
   AFAC 10 02 00 00        6228 	.byte #0x10,#0x02,#0x00,#0x00	; 528
   AFB0 11 02 00 00        6229 	.byte #0x11,#0x02,#0x00,#0x00	; 529
   AFB4 12 02 00 00        6230 	.byte #0x12,#0x02,#0x00,#0x00	; 530
   AFB8 40 10 02 00        6231 	.byte #0x40,#0x10,#0x02,#0x00	; 135232
   AFBC 14 02 00 00        6232 	.byte #0x14,#0x02,#0x00,#0x00	; 532
   AFC0 08 01 20 00        6233 	.byte #0x08,#0x01,#0x20,#0x00	; 2097416
   AFC4 80 48 00 00        6234 	.byte #0x80,#0x48,#0x00,#0x00	; 18560
   AFC8 20 00 0C 00        6235 	.byte #0x20,#0x00,#0x0C,#0x00	; 786464
   AFCC 18 02 00 00        6236 	.byte #0x18,#0x02,#0x00,#0x00	; 536
   AFD0 04 01 20 00        6237 	.byte #0x04,#0x01,#0x20,#0x00	; 2097412
   AFD4 20 04 40 00        6238 	.byte #0x20,#0x04,#0x40,#0x00	; 4195360
   AFD8 00 E0 00 00        6239 	.byte #0x00,#0xE0,#0x00,#0x00	; 57344
   AFDC 01 01 20 00        6240 	.byte #0x01,#0x01,#0x20,#0x00	; 2097409
   AFE0 00 01 20 00        6241 	.byte #0x00,#0x01,#0x20,#0x00	; 2097408
   AFE4 00 00 13 00        6242 	.byte #0x00,#0x00,#0x13,#0x00	; 1245184
   AFE8 02 01 20 00        6243 	.byte #0x02,#0x01,#0x20,#0x00	; 2097410
   AFEC 20 02 00 00        6244 	.byte #0x20,#0x02,#0x00,#0x00	; 544
   AFF0 21 02 00 00        6245 	.byte #0x21,#0x02,#0x00,#0x00	; 545
   AFF4 22 02 00 00        6246 	.byte #0x22,#0x02,#0x00,#0x00	; 546
   AFF8 00 28 20 00        6247 	.byte #0x00,#0x28,#0x20,#0x00	; 2107392
   AFFC 24 02 00 00        6248 	.byte #0x24,#0x02,#0x00,#0x00	; 548
   B000 80 10 40 00        6249 	.byte #0x80,#0x10,#0x40,#0x00	; 4198528
   B004 40 01 01 00        6250 	.byte #0x40,#0x01,#0x01,#0x00	; 65856
   B008 10 00 0C 00        6251 	.byte #0x10,#0x00,#0x0C,#0x00	; 786448
   B00C 28 02 00 00        6252 	.byte #0x28,#0x02,#0x00,#0x00	; 552
   B010 40 80 08 00        6253 	.byte #0x40,#0x80,#0x08,#0x00	; 557120
   B014 10 04 40 00        6254 	.byte #0x10,#0x04,#0x40,#0x00	; 4195344
   B018 00 11 10 00        6255 	.byte #0x00,#0x11,#0x10,#0x00	; 1052928
   B01C 00 08 14 00        6256 	.byte #0x00,#0x08,#0x14,#0x00	; 1312768
   B020 00 24 01 00        6257 	.byte #0x00,#0x24,#0x01,#0x00	; 74752
   B024 80 80 20 00        6258 	.byte #0x80,#0x80,#0x20,#0x00	; 2130048
   B028 00 42 02 00        6259 	.byte #0x00,#0x42,#0x02,#0x00	; 147968
   B02C 30 02 00 00        6260 	.byte #0x30,#0x02,#0x00,#0x00	; 560
   B030 00 40 11 00        6261 	.byte #0x00,#0x40,#0x11,#0x00	; 1130496
   B034 08 04 40 00        6262 	.byte #0x08,#0x04,#0x40,#0x00	; 4195336
   B038 04 00 0C 00        6263 	.byte #0x04,#0x00,#0x0C,#0x00	; 786436
   B03C 00 A0 02 00        6264 	.byte #0x00,#0xA0,#0x02,#0x00	; 172032
   B040 02 00 0C 00        6265 	.byte #0x02,#0x00,#0x0C,#0x00	; 786434
   B044 01 00 0C 00        6266 	.byte #0x01,#0x00,#0x0C,#0x00	; 786433
   B048 00 00 0C 00        6267 	.byte #0x00,#0x00,#0x0C,#0x00	; 786432
   B04C 02 04 40 00        6268 	.byte #0x02,#0x04,#0x40,#0x00	; 4195330
   B050 80 08 02 00        6269 	.byte #0x80,#0x08,#0x02,#0x00	; 133248
   B054 00 04 40 00        6270 	.byte #0x00,#0x04,#0x40,#0x00	; 4195328
   B058 01 04 40 00        6271 	.byte #0x01,#0x04,#0x40,#0x00	; 4195329
   B05C 40 50 00 00        6272 	.byte #0x40,#0x50,#0x00,#0x00	; 20544
   B060 20 01 20 00        6273 	.byte #0x20,#0x01,#0x20,#0x00	; 2097440
   B064 04 04 40 00        6274 	.byte #0x04,#0x04,#0x40,#0x00	; 4195332
   B068 08 00 0C 00        6275 	.byte #0x08,#0x00,#0x0C,#0x00	; 786440
   B06C 40 02 00 00        6276 	.byte #0x40,#0x02,#0x00,#0x00	; 576
   B070 41 02 00 00        6277 	.byte #0x41,#0x02,#0x00,#0x00	; 577
   B074 42 02 00 00        6278 	.byte #0x42,#0x02,#0x00,#0x00	; 578
   B078 10 10 02 00        6279 	.byte #0x10,#0x10,#0x02,#0x00	; 135184
   B07C 44 02 00 00        6280 	.byte #0x44,#0x02,#0x00,#0x00	; 580
   B080 00 60 04 00        6281 	.byte #0x00,#0x60,#0x04,#0x00	; 286720
   B084 20 01 01 00        6282 	.byte #0x20,#0x01,#0x01,#0x00	; 65824
   B088 08 08 40 00        6283 	.byte #0x08,#0x08,#0x40,#0x00	; 4196360
   B08C 48 02 00 00        6284 	.byte #0x48,#0x02,#0x00,#0x00	; 584
   B090 20 80 08 00        6285 	.byte #0x20,#0x80,#0x08,#0x00	; 557088
   B094 00 40 30 00        6286 	.byte #0x00,#0x40,#0x30,#0x00	; 3162112
   B098 04 08 40 00        6287 	.byte #0x04,#0x08,#0x40,#0x00	; 4196356
   B09C 80 04 02 00        6288 	.byte #0x80,#0x04,#0x02,#0x00	; 132224
   B0A0 02 08 40 00        6289 	.byte #0x02,#0x08,#0x40,#0x00	; 4196354
   B0A4 01 08 40 00        6290 	.byte #0x01,#0x08,#0x40,#0x00	; 4196353
   B0A8 00 08 40 00        6291 	.byte #0x00,#0x08,#0x40,#0x00	; 4196352
   B0AC 50 02 00 00        6292 	.byte #0x50,#0x02,#0x00,#0x00	; 592
   B0B0 02 10 02 00        6293 	.byte #0x02,#0x10,#0x02,#0x00	; 135170
   B0B4 01 10 02 00        6294 	.byte #0x01,#0x10,#0x02,#0x00	; 135169
   B0B8 00 10 02 00        6295 	.byte #0x00,#0x10,#0x02,#0x00	; 135168
   B0BC 00 00 58 00        6296 	.byte #0x00,#0x00,#0x58,#0x00	; 5767168
   B0C0 80 80 01 00        6297 	.byte #0x80,#0x80,#0x01,#0x00	; 98432
   B0C4 00 24 20 00        6298 	.byte #0x00,#0x24,#0x20,#0x00	; 2106368
   B0C8 04 10 02 00        6299 	.byte #0x04,#0x10,#0x02,#0x00	; 135172
   B0CC 00 28 01 00        6300 	.byte #0x00,#0x28,#0x01,#0x00	; 75776
   B0D0 00 04 14 00        6301 	.byte #0x00,#0x04,#0x14,#0x00	; 1311744
   B0D4 80 01 08 00        6302 	.byte #0x80,#0x01,#0x08,#0x00	; 524672
   B0D8 08 10 02 00        6303 	.byte #0x08,#0x10,#0x02,#0x00	; 135176
   B0DC 20 50 00 00        6304 	.byte #0x20,#0x50,#0x00,#0x00	; 20512
   B0E0 40 01 20 00        6305 	.byte #0x40,#0x01,#0x20,#0x00	; 2097472
   B0E4 00 82 04 00        6306 	.byte #0x00,#0x82,#0x04,#0x00	; 295424
   B0E8 10 08 40 00        6307 	.byte #0x10,#0x08,#0x40,#0x00	; 4196368
   B0EC 60 02 00 00        6308 	.byte #0x60,#0x02,#0x00,#0x00	; 608
   B0F0 08 80 08 00        6309 	.byte #0x08,#0x80,#0x08,#0x00	; 557064
   B0F4 04 01 01 00        6310 	.byte #0x04,#0x01,#0x01,#0x00	; 65796
   B0F8 80 44 00 00        6311 	.byte #0x80,#0x44,#0x00,#0x00	; 17536
   B0FC 02 01 01 00        6312 	.byte #0x02,#0x01,#0x01,#0x00	; 65794
   B100 00 00 32 00        6313 	.byte #0x00,#0x00,#0x32,#0x00	; 3276800
   B104 00 01 01 00        6314 	.byte #0x00,#0x01,#0x01,#0x00	; 65792
   B108 01 01 01 00        6315 	.byte #0x01,#0x01,#0x01,#0x00	; 65793
   B10C 01 80 08 00        6316 	.byte #0x01,#0x80,#0x08,#0x00	; 557057
   B110 00 80 08 00        6317 	.byte #0x00,#0x80,#0x08,#0x00	; 557056
   B114 00 20 06 00        6318 	.byte #0x00,#0x20,#0x06,#0x00	; 401408
   B118 02 80 08 00        6319 	.byte #0x02,#0x80,#0x08,#0x00	; 557058
   B11C 10 50 00 00        6320 	.byte #0x10,#0x50,#0x00,#0x00	; 20496
   B120 04 80 08 00        6321 	.byte #0x04,#0x80,#0x08,#0x00	; 557060
   B124 08 01 01 00        6322 	.byte #0x08,#0x01,#0x01,#0x00	; 65800
   B128 20 08 40 00        6323 	.byte #0x20,#0x08,#0x40,#0x00	; 4196384
   B12C 80 00 24 00        6324 	.byte #0x80,#0x00,#0x24,#0x00	; 2359424
   B130 00 21 40 00        6325 	.byte #0x00,#0x21,#0x40,#0x00	; 4202752
   B134 00 88 10 00        6326 	.byte #0x00,#0x88,#0x10,#0x00	; 1083392
   B138 20 10 02 00        6327 	.byte #0x20,#0x10,#0x02,#0x00	; 135200
   B13C 08 50 00 00        6328 	.byte #0x08,#0x50,#0x00,#0x00	; 20488
   B140 00 0E 00 00        6329 	.byte #0x00,#0x0E,#0x00,#0x00	; 3584
   B144 10 01 01 00        6330 	.byte #0x10,#0x01,#0x01,#0x00	; 65808
   B148 40 00 0C 00        6331 	.byte #0x40,#0x00,#0x0C,#0x00	; 786496
   B14C 04 50 00 00        6332 	.byte #0x04,#0x50,#0x00,#0x00	; 20484
   B150 10 80 08 00        6333 	.byte #0x10,#0x80,#0x08,#0x00	; 557072
   B154 40 04 40 00        6334 	.byte #0x40,#0x04,#0x40,#0x00	; 4195392
   B158 00 02 21 00        6335 	.byte #0x00,#0x02,#0x21,#0x00	; 2163200
   B15C 00 50 00 00        6336 	.byte #0x00,#0x50,#0x00,#0x00	; 20480
   B160 01 50 00 00        6337 	.byte #0x01,#0x50,#0x00,#0x00	; 20481
   B164 02 50 00 00        6338 	.byte #0x02,#0x50,#0x00,#0x00	; 20482
   B168 80 20 10 00        6339 	.byte #0x80,#0x20,#0x10,#0x00	; 1056896
   B16C 80 02 00 00        6340 	.byte #0x80,#0x02,#0x00,#0x00	; 640
   B170 81 02 00 00        6341 	.byte #0x81,#0x02,#0x00,#0x00	; 641
   B174 82 02 00 00        6342 	.byte #0x82,#0x02,#0x00,#0x00	; 642
   B178 08 00 05 00        6343 	.byte #0x08,#0x00,#0x05,#0x00	; 327688
   B17C 84 02 00 00        6344 	.byte #0x84,#0x02,#0x00,#0x00	; 644
   B180 20 10 40 00        6345 	.byte #0x20,#0x10,#0x40,#0x00	; 4198432
   B184 10 48 00 00        6346 	.byte #0x10,#0x48,#0x00,#0x00	; 18448
   B188 00 21 02 00        6347 	.byte #0x00,#0x21,#0x02,#0x00	; 139520
   B18C 88 02 00 00        6348 	.byte #0x88,#0x02,#0x00,#0x00	; 648
   B190 02 00 05 00        6349 	.byte #0x02,#0x00,#0x05,#0x00	; 327682
   B194 01 00 05 00        6350 	.byte #0x01,#0x00,#0x05,#0x00	; 327681
   B198 00 00 05 00        6351 	.byte #0x00,#0x00,#0x05,#0x00	; 327680
   B19C 40 04 02 00        6352 	.byte #0x40,#0x04,#0x02,#0x00	; 132160
   B1A0 00 40 18 00        6353 	.byte #0x00,#0x40,#0x18,#0x00	; 1589248
   B1A4 20 80 20 00        6354 	.byte #0x20,#0x80,#0x20,#0x00	; 2129952
   B1A8 04 00 05 00        6355 	.byte #0x04,#0x00,#0x05,#0x00	; 327684
   B1AC 90 02 00 00        6356 	.byte #0x90,#0x02,#0x00,#0x00	; 656
   B1B0 00 24 08 00        6357 	.byte #0x00,#0x24,#0x08,#0x00	; 533504
   B1B4 04 48 00 00        6358 	.byte #0x04,#0x48,#0x00,#0x00	; 18436
   B1B8 00 00 70 00        6359 	.byte #0x00,#0x00,#0x70,#0x00	; 7340032
   B1BC 02 48 00 00        6360 	.byte #0x02,#0x48,#0x00,#0x00	; 18434
   B1C0 40 80 01 00        6361 	.byte #0x40,#0x80,#0x01,#0x00	; 98368
   B1C4 00 48 00 00        6362 	.byte #0x00,#0x48,#0x00,#0x00	; 18432
   B1C8 01 48 00 00        6363 	.byte #0x01,#0x48,#0x00,#0x00	; 18433
   B1CC 00 90 10 00        6364 	.byte #0x00,#0x90,#0x10,#0x00	; 1085440
   B1D0 20 08 02 00        6365 	.byte #0x20,#0x08,#0x02,#0x00	; 133152
   B1D4 40 01 08 00        6366 	.byte #0x40,#0x01,#0x08,#0x00	; 524608
   B1D8 10 00 05 00        6367 	.byte #0x10,#0x00,#0x05,#0x00	; 327696
   B1DC 00 20 44 00        6368 	.byte #0x00,#0x20,#0x44,#0x00	; 4464640
   B1E0 80 01 20 00        6369 	.byte #0x80,#0x01,#0x20,#0x00	; 2097536
   B1E4 08 48 00 00        6370 	.byte #0x08,#0x48,#0x00,#0x00	; 18440
   B1E8 00 16 00 00        6371 	.byte #0x00,#0x16,#0x00,#0x00	; 5632
   B1EC A0 02 00 00        6372 	.byte #0xA0,#0x02,#0x00,#0x00	; 672
   B1F0 04 10 40 00        6373 	.byte #0x04,#0x10,#0x40,#0x00	; 4198404
   B1F4 00 00 1A 00        6374 	.byte #0x00,#0x00,#0x1A,#0x00	; 1703936
   B1F8 40 44 00 00        6375 	.byte #0x40,#0x44,#0x00,#0x00	; 17472
   B1FC 01 10 40 00        6376 	.byte #0x01,#0x10,#0x40,#0x00	; 4198401
   B200 00 10 40 00        6377 	.byte #0x00,#0x10,#0x40,#0x00	; 4198400
   B204 08 80 20 00        6378 	.byte #0x08,#0x80,#0x20,#0x00	; 2129928
   B208 02 10 40 00        6379 	.byte #0x02,#0x10,#0x40,#0x00	; 4198402
   B20C 00 61 00 00        6380 	.byte #0x00,#0x61,#0x00,#0x00	; 24832
   B210 10 08 02 00        6381 	.byte #0x10,#0x08,#0x02,#0x00	; 133136
   B214 04 80 20 00        6382 	.byte #0x04,#0x80,#0x20,#0x00	; 2129924
   B218 20 00 05 00        6383 	.byte #0x20,#0x00,#0x05,#0x00	; 327712
   B21C 02 80 20 00        6384 	.byte #0x02,#0x80,#0x20,#0x00	; 2129922
   B220 08 10 40 00        6385 	.byte #0x08,#0x10,#0x40,#0x00	; 4198408
   B224 00 80 20 00        6386 	.byte #0x00,#0x80,#0x20,#0x00	; 2129920
   B228 01 80 20 00        6387 	.byte #0x01,#0x80,#0x20,#0x00	; 2129921
   B22C 40 00 24 00        6388 	.byte #0x40,#0x00,#0x24,#0x00	; 2359360
   B230 08 08 02 00        6389 	.byte #0x08,#0x08,#0x02,#0x00	; 133128
   B234 00 30 01 00        6390 	.byte #0x00,#0x30,#0x01,#0x00	; 77824
   B238 00 83 00 00        6391 	.byte #0x00,#0x83,#0x00,#0x00	; 33536
   B23C 00 05 10 00        6392 	.byte #0x00,#0x05,#0x10,#0x00	; 1049856
   B240 10 10 40 00        6393 	.byte #0x10,#0x10,#0x40,#0x00	; 4198416
   B244 20 48 00 00        6394 	.byte #0x20,#0x48,#0x00,#0x00	; 18464
   B248 80 00 0C 00        6395 	.byte #0x80,#0x00,#0x0C,#0x00	; 786560
   B24C 01 08 02 00        6396 	.byte #0x01,#0x08,#0x02,#0x00	; 133121
   B250 00 08 02 00        6397 	.byte #0x00,#0x08,#0x02,#0x00	; 133120
   B254 80 04 40 00        6398 	.byte #0x80,#0x04,#0x40,#0x00	; 4195456
   B258 02 08 02 00        6399 	.byte #0x02,#0x08,#0x02,#0x00	; 133122
   B25C 00 02 09 00        6400 	.byte #0x00,#0x02,#0x09,#0x00	; 590336
   B260 04 08 02 00        6401 	.byte #0x04,#0x08,#0x02,#0x00	; 133124
   B264 10 80 20 00        6402 	.byte #0x10,#0x80,#0x20,#0x00	; 2129936
   B268 40 20 10 00        6403 	.byte #0x40,#0x20,#0x10,#0x00	; 1056832
   B26C C0 02 00 00        6404 	.byte #0xC0,#0x02,#0x00,#0x00	; 704
   B270 00 09 10 00        6405 	.byte #0x00,#0x09,#0x10,#0x00	; 1050880
   B274 00 A0 40 00        6406 	.byte #0x00,#0xA0,#0x40,#0x00	; 4235264
   B278 20 44 00 00        6407 	.byte #0x20,#0x44,#0x00,#0x00	; 17440
   B27C 08 04 02 00        6408 	.byte #0x08,#0x04,#0x02,#0x00	; 132104
   B280 10 80 01 00        6409 	.byte #0x10,#0x80,#0x01,#0x00	; 98320
   B284 00 10 14 00        6410 	.byte #0x00,#0x10,#0x14,#0x00	; 1314816
   B288 00 02 28 00        6411 	.byte #0x00,#0x02,#0x28,#0x00	; 2621952
   B28C 04 04 02 00        6412 	.byte #0x04,#0x04,#0x02,#0x00	; 132100
   B290 00 30 20 00        6413 	.byte #0x00,#0x30,#0x20,#0x00	; 2109440
   B294 10 01 08 00        6414 	.byte #0x10,#0x01,#0x08,#0x00	; 524560
   B298 40 00 05 00        6415 	.byte #0x40,#0x00,#0x05,#0x00	; 327744
   B29C 00 04 02 00        6416 	.byte #0x00,#0x04,#0x02,#0x00	; 132096
   B2A0 01 04 02 00        6417 	.byte #0x01,#0x04,#0x02,#0x00	; 132097
   B2A4 02 04 02 00        6418 	.byte #0x02,#0x04,#0x02,#0x00	; 132098
   B2A8 80 08 40 00        6419 	.byte #0x80,#0x08,#0x40,#0x00	; 4196480
   B2AC 20 00 24 00        6420 	.byte #0x20,#0x00,#0x24,#0x00	; 2359328
   B2B0 04 80 01 00        6421 	.byte #0x04,#0x80,#0x01,#0x00	; 98308
   B2B4 08 01 08 00        6422 	.byte #0x08,#0x01,#0x08,#0x00	; 524552
   B2B8 80 10 02 00        6423 	.byte #0x80,#0x10,#0x02,#0x00	; 135296
   B2BC 01 80 01 00        6424 	.byte #0x01,#0x80,#0x01,#0x00	; 98305
   B2C0 00 80 01 00        6425 	.byte #0x00,#0x80,#0x01,#0x00	; 98304
   B2C4 40 48 00 00        6426 	.byte #0x40,#0x48,#0x00,#0x00	; 18496
   B2C8 02 80 01 00        6427 	.byte #0x02,#0x80,#0x01,#0x00	; 98306
   B2CC 02 01 08 00        6428 	.byte #0x02,#0x01,#0x08,#0x00	; 524546
   B2D0 00 42 40 00        6429 	.byte #0x00,#0x42,#0x40,#0x00	; 4211200
   B2D4 00 01 08 00        6430 	.byte #0x00,#0x01,#0x08,#0x00	; 524544
   B2D8 01 01 08 00        6431 	.byte #0x01,#0x01,#0x08,#0x00	; 524545
   B2DC 10 04 02 00        6432 	.byte #0x10,#0x04,#0x02,#0x00	; 132112
   B2E0 08 80 01 00        6433 	.byte #0x08,#0x80,#0x01,#0x00	; 98312
   B2E4 04 01 08 00        6434 	.byte #0x04,#0x01,#0x08,#0x00	; 524548
   B2E8 20 20 10 00        6435 	.byte #0x20,#0x20,#0x10,#0x00	; 1056800
   B2EC 10 00 24 00        6436 	.byte #0x10,#0x00,#0x24,#0x00	; 2359312
   B2F0 02 44 00 00        6437 	.byte #0x02,#0x44,#0x00,#0x00	; 17410
   B2F4 01 44 00 00        6438 	.byte #0x01,#0x44,#0x00,#0x00	; 17409
   B2F8 00 44 00 00        6439 	.byte #0x00,#0x44,#0x00,#0x00	; 17408
   B2FC 00 28 08 00        6440 	.byte #0x00,#0x28,#0x08,#0x00	; 534528
   B300 40 10 40 00        6441 	.byte #0x40,#0x10,#0x40,#0x00	; 4198464
   B304 80 01 01 00        6442 	.byte #0x80,#0x01,#0x01,#0x00	; 65920
   B308 04 44 00 00        6443 	.byte #0x04,#0x44,#0x00,#0x00	; 17412
   B30C 00 00 51 00        6444 	.byte #0x00,#0x00,#0x51,#0x00	; 5308416
   B310 80 80 08 00        6445 	.byte #0x80,#0x80,#0x08,#0x00	; 557184
   B314 00 1A 00 00        6446 	.byte #0x00,#0x1A,#0x00,#0x00	; 6656
   B318 08 44 00 00        6447 	.byte #0x08,#0x44,#0x00,#0x00	; 17416
   B31C 20 04 02 00        6448 	.byte #0x20,#0x04,#0x02,#0x00	; 132128
   B320 00 03 04 00        6449 	.byte #0x00,#0x03,#0x04,#0x00	; 262912
   B324 40 80 20 00        6450 	.byte #0x40,#0x80,#0x20,#0x00	; 2129984
   B328 10 20 10 00        6451 	.byte #0x10,#0x20,#0x10,#0x00	; 1056784
   B32C 00 00 24 00        6452 	.byte #0x00,#0x00,#0x24,#0x00	; 2359296
   B330 01 00 24 00        6453 	.byte #0x01,#0x00,#0x24,#0x00	; 2359297
   B334 02 00 24 00        6454 	.byte #0x02,#0x00,#0x24,#0x00	; 2359298
   B338 10 44 00 00        6455 	.byte #0x10,#0x44,#0x00,#0x00	; 17424
   B33C 04 00 24 00        6456 	.byte #0x04,#0x00,#0x24,#0x00	; 2359300
   B340 20 80 01 00        6457 	.byte #0x20,#0x80,#0x01,#0x00	; 98336
   B344 00 02 42 00        6458 	.byte #0x00,#0x02,#0x42,#0x00	; 4325888
   B348 08 20 10 00        6459 	.byte #0x08,#0x20,#0x10,#0x00	; 1056776
   B34C 08 00 24 00        6460 	.byte #0x08,#0x00,#0x24,#0x00	; 2359304
   B350 40 08 02 00        6461 	.byte #0x40,#0x08,#0x02,#0x00	; 133184
   B354 20 01 08 00        6462 	.byte #0x20,#0x01,#0x08,#0x00	; 524576
   B358 04 20 10 00        6463 	.byte #0x04,#0x20,#0x10,#0x00	; 1056772
   B35C 80 50 00 00        6464 	.byte #0x80,#0x50,#0x00,#0x00	; 20608
   B360 02 20 10 00        6465 	.byte #0x02,#0x20,#0x10,#0x00	; 1056770
   B364 01 20 10 00        6466 	.byte #0x01,#0x20,#0x10,#0x00	; 1056769
   B368 00 20 10 00        6467 	.byte #0x00,#0x20,#0x10,#0x00	; 1056768
   B36C 00 03 00 00        6468 	.byte #0x00,#0x03,#0x00,#0x00	; 768
   B370 01 03 00 00        6469 	.byte #0x01,#0x03,#0x00,#0x00	; 769
   B374 02 03 00 00        6470 	.byte #0x02,#0x03,#0x00,#0x00	; 770
   B378 00 40 48 00        6471 	.byte #0x00,#0x40,#0x48,#0x00	; 4734976
   B37C 04 03 00 00        6472 	.byte #0x04,#0x03,#0x00,#0x00	; 772
   B380 18 00 20 00        6473 	.byte #0x18,#0x00,#0x20,#0x00	; 2097176
   B384 60 00 01 00        6474 	.byte #0x60,#0x00,#0x01,#0x00	; 65632
   B388 80 20 02 00        6475 	.byte #0x80,#0x20,#0x02,#0x00	; 139392
   B38C 08 03 00 00        6476 	.byte #0x08,#0x03,#0x00,#0x00	; 776
   B390 14 00 20 00        6477 	.byte #0x14,#0x00,#0x20,#0x00	; 2097172
   B394 00 88 02 00        6478 	.byte #0x00,#0x88,#0x02,#0x00	; 165888
   B398 20 10 10 00        6479 	.byte #0x20,#0x10,#0x10,#0x00	; 1052704
   B39C 11 00 20 00        6480 	.byte #0x11,#0x00,#0x20,#0x00	; 2097169
   B3A0 10 00 20 00        6481 	.byte #0x10,#0x00,#0x20,#0x00	; 2097168
   B3A4 00 44 04 00        6482 	.byte #0x00,#0x44,#0x04,#0x00	; 279552
   B3A8 12 00 20 00        6483 	.byte #0x12,#0x00,#0x20,#0x00	; 2097170
   B3AC 10 03 00 00        6484 	.byte #0x10,#0x03,#0x00,#0x00	; 784
   B3B0 0C 00 20 00        6485 	.byte #0x0C,#0x00,#0x20,#0x00	; 2097164
   B3B4 00 20 14 00        6486 	.byte #0x00,#0x20,#0x14,#0x00	; 1318912
   B3B8 00 0C 01 00        6487 	.byte #0x00,#0x0C,#0x01,#0x00	; 68608
   B3BC 09 00 20 00        6488 	.byte #0x09,#0x00,#0x20,#0x00	; 2097161
   B3C0 08 00 20 00        6489 	.byte #0x08,#0x00,#0x20,#0x00	; 2097160
   B3C4 00 90 40 00        6490 	.byte #0x00,#0x90,#0x40,#0x00	; 4231168
   B3C8 0A 00 20 00        6491 	.byte #0x0A,#0x00,#0x20,#0x00	; 2097162
   B3CC 05 00 20 00        6492 	.byte #0x05,#0x00,#0x20,#0x00	; 2097157
   B3D0 04 00 20 00        6493 	.byte #0x04,#0x00,#0x20,#0x00	; 2097156
   B3D4 C0 00 08 00        6494 	.byte #0xC0,#0x00,#0x08,#0x00	; 524480
   B3D8 06 00 20 00        6495 	.byte #0x06,#0x00,#0x20,#0x00	; 2097158
   B3DC 01 00 20 00        6496 	.byte #0x01,#0x00,#0x20,#0x00	; 2097153
   B3E0 00 00 20 00        6497 	.byte #0x00,#0x00,#0x20,#0x00	; 2097152
   B3E4 03 00 20 00        6498 	.byte #0x03,#0x00,#0x20,#0x00	; 2097155
   B3E8 02 00 20 00        6499 	.byte #0x02,#0x00,#0x20,#0x00	; 2097154
   B3EC 20 03 00 00        6500 	.byte #0x20,#0x03,#0x00,#0x00	; 800
   B3F0 00 04 06 00        6501 	.byte #0x00,#0x04,#0x06,#0x00	; 394240
   B3F4 44 00 01 00        6502 	.byte #0x44,#0x00,#0x01,#0x00	; 65604
   B3F8 08 10 10 00        6503 	.byte #0x08,#0x10,#0x10,#0x00	; 1052680
   B3FC 42 00 01 00        6504 	.byte #0x42,#0x00,#0x01,#0x00	; 65602
   B400 00 C8 00 00        6505 	.byte #0x00,#0xC8,#0x00,#0x00	; 51200
   B404 40 00 01 00        6506 	.byte #0x40,#0x00,#0x01,#0x00	; 65600
   B408 41 00 01 00        6507 	.byte #0x41,#0x00,#0x01,#0x00	; 65601
   B40C 80 60 00 00        6508 	.byte #0x80,#0x60,#0x00,#0x00	; 24704
   B410 02 10 10 00        6509 	.byte #0x02,#0x10,#0x10,#0x00	; 1052674
   B414 01 10 10 00        6510 	.byte #0x01,#0x10,#0x10,#0x00	; 1052673
   B418 00 10 10 00        6511 	.byte #0x00,#0x10,#0x10,#0x00	; 1052672
   B41C 00 00 4A 00        6512 	.byte #0x00,#0x00,#0x4A,#0x00	; 4849664
   B420 30 00 20 00        6513 	.byte #0x30,#0x00,#0x20,#0x00	; 2097200
   B424 48 00 01 00        6514 	.byte #0x48,#0x00,#0x01,#0x00	; 65608
   B428 04 10 10 00        6515 	.byte #0x04,#0x10,#0x10,#0x00	; 1052676
   B42C 00 18 08 00        6516 	.byte #0x00,#0x18,#0x08,#0x00	; 530432
   B430 40 20 40 00        6517 	.byte #0x40,#0x20,#0x40,#0x00	; 4202560
   B434 00 40 22 00        6518 	.byte #0x00,#0x40,#0x22,#0x00	; 2244608
   B438 80 82 00 00        6519 	.byte #0x80,#0x82,#0x00,#0x00	; 33408
   B43C 80 04 10 00        6520 	.byte #0x80,#0x04,#0x10,#0x00	; 1049728
   B440 28 00 20 00        6521 	.byte #0x28,#0x00,#0x20,#0x00	; 2097192
   B444 50 00 01 00        6522 	.byte #0x50,#0x00,#0x01,#0x00	; 65616
   B448 00 01 0C 00        6523 	.byte #0x00,#0x01,#0x0C,#0x00	; 786688
   B44C 00 80 05 00        6524 	.byte #0x00,#0x80,#0x05,#0x00	; 360448
   B450 24 00 20 00        6525 	.byte #0x24,#0x00,#0x20,#0x00	; 2097188
   B454 00 05 40 00        6526 	.byte #0x00,#0x05,#0x40,#0x00	; 4195584
   B458 10 10 10 00        6527 	.byte #0x10,#0x10,#0x10,#0x00	; 1052688
   B45C 21 00 20 00        6528 	.byte #0x21,#0x00,#0x20,#0x00	; 2097185
   B460 20 00 20 00        6529 	.byte #0x20,#0x00,#0x20,#0x00	; 2097184
   B464 00 2A 00 00        6530 	.byte #0x00,#0x2A,#0x00,#0x00	; 10752
   B468 22 00 20 00        6531 	.byte #0x22,#0x00,#0x20,#0x00	; 2097186
   B46C 40 03 00 00        6532 	.byte #0x40,#0x03,#0x00,#0x00	; 832
   B470 80 08 10 00        6533 	.byte #0x80,#0x08,#0x10,#0x00	; 1050752
   B474 24 00 01 00        6534 	.byte #0x24,#0x00,#0x01,#0x00	; 65572
   B478 00 80 24 00        6535 	.byte #0x00,#0x80,#0x24,#0x00	; 2392064
   B47C 22 00 01 00        6536 	.byte #0x22,#0x00,#0x01,#0x00	; 65570
   B480 00 14 08 00        6537 	.byte #0x00,#0x14,#0x08,#0x00	; 529408
   B484 20 00 01 00        6538 	.byte #0x20,#0x00,#0x01,#0x00	; 65568
   B488 21 00 01 00        6539 	.byte #0x21,#0x00,#0x01,#0x00	; 65569
   B48C 00 10 44 00        6540 	.byte #0x00,#0x10,#0x44,#0x00	; 4460544
   B490 00 40 03 00        6541 	.byte #0x00,#0x40,#0x03,#0x00	; 212992
   B494 90 00 08 00        6542 	.byte #0x90,#0x00,#0x08,#0x00	; 524432
   B498 00 26 00 00        6543 	.byte #0x00,#0x26,#0x00,#0x00	; 9728
   B49C 00 A0 10 00        6544 	.byte #0x00,#0xA0,#0x10,#0x00	; 1089536
   B4A0 50 00 20 00        6545 	.byte #0x50,#0x00,#0x20,#0x00	; 2097232
   B4A4 28 00 01 00        6546 	.byte #0x28,#0x00,#0x01,#0x00	; 65576
   B4A8 00 09 40 00        6547 	.byte #0x00,#0x09,#0x40,#0x00	; 4196608
   B4AC 00 C4 00 00        6548 	.byte #0x00,#0xC4,#0x00,#0x00	; 50176
   B4B0 20 20 40 00        6549 	.byte #0x20,#0x20,#0x40,#0x00	; 4202528
   B4B4 88 00 08 00        6550 	.byte #0x88,#0x00,#0x08,#0x00	; 524424
   B4B8 00 11 02 00        6551 	.byte #0x00,#0x11,#0x02,#0x00	; 135424
   B4BC 00 08 06 00        6552 	.byte #0x00,#0x08,#0x06,#0x00	; 395264
   B4C0 48 00 20 00        6553 	.byte #0x48,#0x00,#0x20,#0x00	; 2097224
   B4C4 30 00 01 00        6554 	.byte #0x30,#0x00,#0x01,#0x00	; 65584
   B4C8 00 42 10 00        6555 	.byte #0x00,#0x42,#0x10,#0x00	; 1065472
   B4CC 82 00 08 00        6556 	.byte #0x82,#0x00,#0x08,#0x00	; 524418
   B4D0 44 00 20 00        6557 	.byte #0x44,#0x00,#0x20,#0x00	; 2097220
   B4D4 80 00 08 00        6558 	.byte #0x80,#0x00,#0x08,#0x00	; 524416
   B4D8 81 00 08 00        6559 	.byte #0x81,#0x00,#0x08,#0x00	; 524417
   B4DC 41 00 20 00        6560 	.byte #0x41,#0x00,#0x20,#0x00	; 2097217
   B4E0 40 00 20 00        6561 	.byte #0x40,#0x00,#0x20,#0x00	; 2097216
   B4E4 84 00 08 00        6562 	.byte #0x84,#0x00,#0x08,#0x00	; 524420
   B4E8 42 00 20 00        6563 	.byte #0x42,#0x00,#0x20,#0x00	; 2097218
   B4EC 06 00 01 00        6564 	.byte #0x06,#0x00,#0x01,#0x00	; 65542
   B4F0 10 20 40 00        6565 	.byte #0x10,#0x20,#0x40,#0x00	; 4202512
   B4F4 04 00 01 00        6566 	.byte #0x04,#0x00,#0x01,#0x00	; 65540
   B4F8 05 00 01 00        6567 	.byte #0x05,#0x00,#0x01,#0x00	; 65541
   B4FC 02 00 01 00        6568 	.byte #0x02,#0x00,#0x01,#0x00	; 65538
   B500 03 00 01 00        6569 	.byte #0x03,#0x00,#0x01,#0x00	; 65539
   B504 00 00 01 00        6570 	.byte #0x00,#0x00,#0x01,#0x00	; 65536
   B508 01 00 01 00        6571 	.byte #0x01,#0x00,#0x01,#0x00	; 65537
   B50C 00 0C 20 00        6572 	.byte #0x00,#0x0C,#0x20,#0x00	; 2100224
   B510 00 81 08 00        6573 	.byte #0x00,#0x81,#0x08,#0x00	; 557312
   B514 0C 00 01 00        6574 	.byte #0x0C,#0x00,#0x01,#0x00	; 65548
   B518 40 10 10 00        6575 	.byte #0x40,#0x10,#0x10,#0x00	; 1052736
   B51C 0A 00 01 00        6576 	.byte #0x0A,#0x00,#0x01,#0x00	; 65546
   B520 80 02 04 00        6577 	.byte #0x80,#0x02,#0x04,#0x00	; 262784
   B524 08 00 01 00        6578 	.byte #0x08,#0x00,#0x01,#0x00	; 65544
   B528 09 00 01 00        6579 	.byte #0x09,#0x00,#0x01,#0x00	; 65545
   B52C 01 20 40 00        6580 	.byte #0x01,#0x20,#0x40,#0x00	; 4202497
   B530 00 20 40 00        6581 	.byte #0x00,#0x20,#0x40,#0x00	; 4202496
   B534 14 00 01 00        6582 	.byte #0x14,#0x00,#0x01,#0x00	; 65556
   B538 02 20 40 00        6583 	.byte #0x02,#0x20,#0x40,#0x00	; 4202498
   B53C 12 00 01 00        6584 	.byte #0x12,#0x00,#0x01,#0x00	; 65554
   B540 04 20 40 00        6585 	.byte #0x04,#0x20,#0x40,#0x00	; 4202500
   B544 10 00 01 00        6586 	.byte #0x10,#0x00,#0x01,#0x00	; 65552
   B548 11 00 01 00        6587 	.byte #0x11,#0x00,#0x01,#0x00	; 65553
   B54C 00 02 12 00        6588 	.byte #0x00,#0x02,#0x12,#0x00	; 1180160
   B550 08 20 40 00        6589 	.byte #0x08,#0x20,#0x40,#0x00	; 4202504
   B554 A0 00 08 00        6590 	.byte #0xA0,#0x00,#0x08,#0x00	; 524448
   B558 00 48 04 00        6591 	.byte #0x00,#0x48,#0x04,#0x00	; 280576
   B55C 00 51 00 00        6592 	.byte #0x00,#0x51,#0x00,#0x00	; 20736
   B560 60 00 20 00        6593 	.byte #0x60,#0x00,#0x20,#0x00	; 2097248
   B564 18 00 01 00        6594 	.byte #0x18,#0x00,#0x01,#0x00	; 65560
   B568 00 84 02 00        6595 	.byte #0x00,#0x84,#0x02,#0x00	; 164864
   B56C 80 03 00 00        6596 	.byte #0x80,#0x03,#0x00,#0x00	; 896
   B570 40 08 10 00        6597 	.byte #0x40,#0x08,#0x10,#0x00	; 1050688
   B574 00 14 20 00        6598 	.byte #0x00,#0x14,#0x20,#0x00	; 2102272
   B578 04 20 02 00        6599 	.byte #0x04,#0x20,#0x02,#0x00	; 139268
   B57C 00 80 0C 00        6600 	.byte #0x00,#0x80,#0x0C,#0x00	; 819200
   B580 02 20 02 00        6601 	.byte #0x02,#0x20,#0x02,#0x00	; 139266
   B584 01 20 02 00        6602 	.byte #0x01,#0x20,#0x02,#0x00	; 139265
   B588 00 20 02 00        6603 	.byte #0x00,#0x20,#0x02,#0x00	; 139264
   B58C 20 60 00 00        6604 	.byte #0x20,#0x60,#0x00,#0x00	; 24608
   B590 00 84 40 00        6605 	.byte #0x00,#0x84,#0x40,#0x00	; 4228096
   B594 50 00 08 00        6606 	.byte #0x50,#0x00,#0x08,#0x00	; 524368
   B598 00 01 05 00        6607 	.byte #0x00,#0x01,#0x05,#0x00	; 327936
   B59C 00 18 01 00        6608 	.byte #0x00,#0x18,#0x01,#0x00	; 71680
   B5A0 90 00 20 00        6609 	.byte #0x90,#0x00,#0x20,#0x00	; 2097296
   B5A4 00 02 50 00        6610 	.byte #0x00,#0x02,#0x50,#0x00	; 5243392
   B5A8 08 20 02 00        6611 	.byte #0x08,#0x20,#0x02,#0x00	; 139272
   B5AC 00 00 43 00        6612 	.byte #0x00,#0x00,#0x43,#0x00	; 4390912
   B5B0 00 50 04 00        6613 	.byte #0x00,#0x50,#0x04,#0x00	; 282624
   B5B4 48 00 08 00        6614 	.byte #0x48,#0x00,#0x08,#0x00	; 524360
   B5B8 20 82 00 00        6615 	.byte #0x20,#0x82,#0x00,#0x00	; 33312
   B5BC 20 04 10 00        6616 	.byte #0x20,#0x04,#0x10,#0x00	; 1049632
   B5C0 88 00 20 00        6617 	.byte #0x88,#0x00,#0x20,#0x00	; 2097288
   B5C4 00 49 00 00        6618 	.byte #0x00,#0x49,#0x00,#0x00	; 18688
   B5C8 10 20 02 00        6619 	.byte #0x10,#0x20,#0x02,#0x00	; 139280
   B5CC 42 00 08 00        6620 	.byte #0x42,#0x00,#0x08,#0x00	; 524354
   B5D0 84 00 20 00        6621 	.byte #0x84,#0x00,#0x20,#0x00	; 2097284
   B5D4 40 00 08 00        6622 	.byte #0x40,#0x00,#0x08,#0x00	; 524352
   B5D8 41 00 08 00        6623 	.byte #0x41,#0x00,#0x08,#0x00	; 524353
   B5DC 81 00 20 00        6624 	.byte #0x81,#0x00,#0x20,#0x00	; 2097281
   B5E0 80 00 20 00        6625 	.byte #0x80,#0x00,#0x20,#0x00	; 2097280
   B5E4 44 00 08 00        6626 	.byte #0x44,#0x00,#0x08,#0x00	; 524356
   B5E8 82 00 20 00        6627 	.byte #0x82,#0x00,#0x20,#0x00	; 2097282
   B5EC 08 60 00 00        6628 	.byte #0x08,#0x60,#0x00,#0x00	; 24584
   B5F0 00 00 29 00        6629 	.byte #0x00,#0x00,#0x29,#0x00	; 2686976
   B5F4 00 08 44 00        6630 	.byte #0x00,#0x08,#0x44,#0x00	; 4458496
   B5F8 10 82 00 00        6631 	.byte #0x10,#0x82,#0x00,#0x00	; 33296
   B5FC 10 04 10 00        6632 	.byte #0x10,#0x04,#0x10,#0x00	; 1049616
   B600 00 11 40 00        6633 	.byte #0x00,#0x11,#0x40,#0x00	; 4198656
   B604 C0 00 01 00        6634 	.byte #0xC0,#0x00,#0x01,#0x00	; 65728
   B608 20 20 02 00        6635 	.byte #0x20,#0x20,#0x02,#0x00	; 139296
   B60C 00 60 00 00        6636 	.byte #0x00,#0x60,#0x00,#0x00	; 24576
   B610 01 60 00 00        6637 	.byte #0x01,#0x60,#0x00,#0x00	; 24577
   B614 02 60 00 00        6638 	.byte #0x02,#0x60,#0x00,#0x00	; 24578
   B618 80 10 10 00        6639 	.byte #0x80,#0x10,#0x10,#0x00	; 1052800
   B61C 04 60 00 00        6640 	.byte #0x04,#0x60,#0x00,#0x00	; 24580
   B620 40 02 04 00        6641 	.byte #0x40,#0x02,#0x04,#0x00	; 262720
   B624 00 81 20 00        6642 	.byte #0x00,#0x81,#0x20,#0x00	; 2130176
   B628 00 0C 08 00        6643 	.byte #0x00,#0x0C,#0x08,#0x00	; 527360
   B62C 04 04 10 00        6644 	.byte #0x04,#0x04,#0x10,#0x00	; 1049604
   B630 02 82 00 00        6645 	.byte #0x02,#0x82,#0x00,#0x00	; 33282
   B634 01 82 00 00        6646 	.byte #0x01,#0x82,#0x00,#0x00	; 33281
   B638 00 82 00 00        6647 	.byte #0x00,#0x82,#0x00,#0x00	; 33280
   B63C 00 04 10 00        6648 	.byte #0x00,#0x04,#0x10,#0x00	; 1049600
   B640 01 04 10 00        6649 	.byte #0x01,#0x04,#0x10,#0x00	; 1049601
   B644 02 04 10 00        6650 	.byte #0x02,#0x04,#0x10,#0x00	; 1049602
   B648 04 82 00 00        6651 	.byte #0x04,#0x82,#0x00,#0x00	; 33284
   B64C 10 60 00 00        6652 	.byte #0x10,#0x60,#0x00,#0x00	; 24592
   B650 00 09 02 00        6653 	.byte #0x00,#0x09,#0x02,#0x00	; 133376
   B654 60 00 08 00        6654 	.byte #0x60,#0x00,#0x08,#0x00	; 524384
   B658 08 82 00 00        6655 	.byte #0x08,#0x82,#0x00,#0x00	; 33288
   B65C 08 04 10 00        6656 	.byte #0x08,#0x04,#0x10,#0x00	; 1049608
   B660 A0 00 20 00        6657 	.byte #0xA0,#0x00,#0x20,#0x00	; 2097312
   B664 00 10 06 00        6658 	.byte #0x00,#0x10,#0x06,#0x00	; 397312
   B668 00 40 41 00        6659 	.byte #0x00,#0x40,#0x41,#0x00	; 4276224
   B66C 01 08 10 00        6660 	.byte #0x01,#0x08,#0x10,#0x00	; 1050625
   B670 00 08 10 00        6661 	.byte #0x00,#0x08,#0x10,#0x00	; 1050624
   B674 18 00 08 00        6662 	.byte #0x18,#0x00,#0x08,#0x00	; 524312
   B678 02 08 10 00        6663 	.byte #0x02,#0x08,#0x10,#0x00	; 1050626
   B67C 00 40 60 00        6664 	.byte #0x00,#0x40,#0x60,#0x00	; 6307840
   B680 04 08 10 00        6665 	.byte #0x04,#0x08,#0x10,#0x00	; 1050628
   B684 A0 00 01 00        6666 	.byte #0xA0,#0x00,#0x01,#0x00	; 65696
   B688 40 20 02 00        6667 	.byte #0x40,#0x20,#0x02,#0x00	; 139328
   B68C 12 00 08 00        6668 	.byte #0x12,#0x00,#0x08,#0x00	; 524306
   B690 08 08 10 00        6669 	.byte #0x08,#0x08,#0x10,#0x00	; 1050632
   B694 10 00 08 00        6670 	.byte #0x10,#0x00,#0x08,#0x00	; 524304
   B698 11 00 08 00        6671 	.byte #0x11,#0x00,#0x08,#0x00	; 524305
   B69C 00 05 02 00        6672 	.byte #0x00,#0x05,#0x02,#0x00	; 132352
   B6A0 20 02 04 00        6673 	.byte #0x20,#0x02,#0x04,#0x00	; 262688
   B6A4 14 00 08 00        6674 	.byte #0x14,#0x00,#0x08,#0x00	; 524308
   B6A8 00 D0 00 00        6675 	.byte #0x00,#0xD0,#0x00,#0x00	; 53248
   B6AC 0A 00 08 00        6676 	.byte #0x0A,#0x00,#0x08,#0x00	; 524298
   B6B0 10 08 10 00        6677 	.byte #0x10,#0x08,#0x10,#0x00	; 1050640
   B6B4 08 00 08 00        6678 	.byte #0x08,#0x00,#0x08,#0x00	; 524296
   B6B8 09 00 08 00        6679 	.byte #0x09,#0x00,#0x08,#0x00	; 524297
   B6BC 00 32 00 00        6680 	.byte #0x00,#0x32,#0x00,#0x00	; 12800
   B6C0 00 81 01 00        6681 	.byte #0x00,#0x81,#0x01,#0x00	; 98560
   B6C4 0C 00 08 00        6682 	.byte #0x0C,#0x00,#0x08,#0x00	; 524300
   B6C8 00 04 44 00        6683 	.byte #0x00,#0x04,#0x44,#0x00	; 4457472
   B6CC 02 00 08 00        6684 	.byte #0x02,#0x00,#0x08,#0x00	; 524290
   B6D0 03 00 08 00        6685 	.byte #0x03,#0x00,#0x08,#0x00	; 524291
   B6D4 00 00 08 00        6686 	.byte #0x00,#0x00,#0x08,#0x00	; 524288
   B6D8 01 00 08 00        6687 	.byte #0x01,#0x00,#0x08,#0x00	; 524289
   B6DC 06 00 08 00        6688 	.byte #0x06,#0x00,#0x08,#0x00	; 524294
   B6E0 C0 00 20 00        6689 	.byte #0xC0,#0x00,#0x20,#0x00	; 2097344
   B6E4 04 00 08 00        6690 	.byte #0x04,#0x00,#0x08,#0x00	; 524292
   B6E8 05 00 08 00        6691 	.byte #0x05,#0x00,#0x08,#0x00	; 524293
   B6EC 00 90 02 00        6692 	.byte #0x00,#0x90,#0x02,#0x00	; 167936
   B6F0 20 08 10 00        6693 	.byte #0x20,#0x08,#0x10,#0x00	; 1050656
   B6F4 84 00 01 00        6694 	.byte #0x84,#0x00,#0x01,#0x00	; 65668
   B6F8 00 45 00 00        6695 	.byte #0x00,#0x45,#0x00,#0x00	; 17664
   B6FC 82 00 01 00        6696 	.byte #0x82,#0x00,#0x01,#0x00	; 65666
   B700 08 02 04 00        6697 	.byte #0x08,#0x02,#0x04,#0x00	; 262664
   B704 80 00 01 00        6698 	.byte #0x80,#0x00,#0x01,#0x00	; 65664
   B708 81 00 01 00        6699 	.byte #0x81,#0x00,#0x01,#0x00	; 65665
   B70C 40 60 00 00        6700 	.byte #0x40,#0x60,#0x00,#0x00	; 24640
   B710 04 02 04 00        6701 	.byte #0x04,#0x02,#0x04,#0x00	; 262660
   B714 30 00 08 00        6702 	.byte #0x30,#0x00,#0x08,#0x00	; 524336
   B718 00 00 62 00        6703 	.byte #0x00,#0x00,#0x62,#0x00	; 6422528
   B71C 01 02 04 00        6704 	.byte #0x01,#0x02,#0x04,#0x00	; 262657
   B720 00 02 04 00        6705 	.byte #0x00,#0x02,#0x04,#0x00	; 262656
   B724 88 00 01 00        6706 	.byte #0x88,#0x00,#0x01,#0x00	; 65672
   B728 02 02 04 00        6707 	.byte #0x02,#0x02,#0x04,#0x00	; 262658
   B72C 00 01 24 00        6708 	.byte #0x00,#0x01,#0x24,#0x00	; 2359552
   B730 80 20 40 00        6709 	.byte #0x80,#0x20,#0x40,#0x00	; 4202624
   B734 28 00 08 00        6710 	.byte #0x28,#0x00,#0x08,#0x00	; 524328
   B738 40 82 00 00        6711 	.byte #0x40,#0x82,#0x00,#0x00	; 33344
   B73C 40 04 10 00        6712 	.byte #0x40,#0x04,#0x10,#0x00	; 1049664
   B740 00 40 0A 00        6713 	.byte #0x00,#0x40,#0x0A,#0x00	; 671744
   B744 90 00 01 00        6714 	.byte #0x90,#0x00,#0x01,#0x00	; 65680
   B748 00 18 20 00        6715 	.byte #0x00,#0x18,#0x20,#0x00	; 2103296
   B74C 22 00 08 00        6716 	.byte #0x22,#0x00,#0x08,#0x00	; 524322
   B750 00 14 01 00        6717 	.byte #0x00,#0x14,#0x01,#0x00	; 70656
   B754 20 00 08 00        6718 	.byte #0x20,#0x00,#0x08,#0x00	; 524320
   B758 21 00 08 00        6719 	.byte #0x21,#0x00,#0x08,#0x00	; 524321
   B75C 00 88 40 00        6720 	.byte #0x00,#0x88,#0x40,#0x00	; 4229120
   B760 10 02 04 00        6721 	.byte #0x10,#0x02,#0x04,#0x00	; 262672
   B764 24 00 08 00        6722 	.byte #0x24,#0x00,#0x08,#0x00	; 524324
   B768 00 21 10 00        6723 	.byte #0x00,#0x21,#0x10,#0x00	; 1057024
   B76C 00 04 00 00        6724 	.byte #0x00,#0x04,#0x00,#0x00	; 1024
   B770 01 04 00 00        6725 	.byte #0x01,#0x04,#0x00,#0x00	; 1025
   B774 02 04 00 00        6726 	.byte #0x02,#0x04,#0x00,#0x00	; 1026
   B778 03 04 00 00        6727 	.byte #0x03,#0x04,#0x00,#0x00	; 1027
   B77C 04 04 00 00        6728 	.byte #0x04,#0x04,#0x00,#0x00	; 1028
   B780 05 04 00 00        6729 	.byte #0x05,#0x04,#0x00,#0x00	; 1029
   B784 06 04 00 00        6730 	.byte #0x06,#0x04,#0x00,#0x00	; 1030
   B788 00 82 10 00        6731 	.byte #0x00,#0x82,#0x10,#0x00	; 1081856
   B78C 08 04 00 00        6732 	.byte #0x08,#0x04,#0x00,#0x00	; 1032
   B790 09 04 00 00        6733 	.byte #0x09,#0x04,#0x00,#0x00	; 1033
   B794 0A 04 00 00        6734 	.byte #0x0A,#0x04,#0x00,#0x00	; 1034
   B798 40 21 00 00        6735 	.byte #0x40,#0x21,#0x00,#0x00	; 8512
   B79C 0C 04 00 00        6736 	.byte #0x0C,#0x04,#0x00,#0x00	; 1036
   B7A0 00 00 4C 00        6737 	.byte #0x00,#0x00,#0x4C,#0x00	; 4980736
   B7A4 00 08 21 00        6738 	.byte #0x00,#0x08,#0x21,#0x00	; 2164736
   B7A8 90 10 00 00        6739 	.byte #0x90,#0x10,#0x00,#0x00	; 4240
   B7AC 10 04 00 00        6740 	.byte #0x10,#0x04,#0x00,#0x00	; 1040
   B7B0 11 04 00 00        6741 	.byte #0x11,#0x04,#0x00,#0x00	; 1041
   B7B4 12 04 00 00        6742 	.byte #0x12,#0x04,#0x00,#0x00	; 1042
   B7B8 00 40 24 00        6743 	.byte #0x00,#0x40,#0x24,#0x00	; 2375680
   B7BC 14 04 00 00        6744 	.byte #0x14,#0x04,#0x00,#0x00	; 1044
   B7C0 60 08 00 00        6745 	.byte #0x60,#0x08,#0x00,#0x00	; 2144
   B7C4 00 01 0A 00        6746 	.byte #0x00,#0x01,#0x0A,#0x00	; 655616
   B7C8 88 10 00 00        6747 	.byte #0x88,#0x10,#0x00,#0x00	; 4232
   B7CC 18 04 00 00        6748 	.byte #0x18,#0x04,#0x00,#0x00	; 1048
   B7D0 00 80 03 00        6749 	.byte #0x00,#0x80,#0x03,#0x00	; 229376
   B7D4 20 02 40 00        6750 	.byte #0x20,#0x02,#0x40,#0x00	; 4194848
   B7D8 84 10 00 00        6751 	.byte #0x84,#0x10,#0x00,#0x00	; 4228
   B7DC 00 60 10 00        6752 	.byte #0x00,#0x60,#0x10,#0x00	; 1073152
   B7E0 82 10 00 00        6753 	.byte #0x82,#0x10,#0x00,#0x00	; 4226
   B7E4 81 10 00 00        6754 	.byte #0x81,#0x10,#0x00,#0x00	; 4225
   B7E8 80 10 00 00        6755 	.byte #0x80,#0x10,#0x00,#0x00	; 4224
   B7EC 20 04 00 00        6756 	.byte #0x20,#0x04,#0x00,#0x00	; 1056
   B7F0 21 04 00 00        6757 	.byte #0x21,#0x04,#0x00,#0x00	; 1057
   B7F4 22 04 00 00        6758 	.byte #0x22,#0x04,#0x00,#0x00	; 1058
   B7F8 00 10 09 00        6759 	.byte #0x00,#0x10,#0x09,#0x00	; 593920
   B7FC 24 04 00 00        6760 	.byte #0x24,#0x04,#0x00,#0x00	; 1060
   B800 50 08 00 00        6761 	.byte #0x50,#0x08,#0x00,#0x00	; 2128
   B804 80 20 04 00        6762 	.byte #0x80,#0x20,#0x04,#0x00	; 270464
   B808 00 01 60 00        6763 	.byte #0x00,#0x01,#0x60,#0x00	; 6291712
   B80C 28 04 00 00        6764 	.byte #0x28,#0x04,#0x00,#0x00	; 1064
   B810 80 00 30 00        6765 	.byte #0x80,#0x00,#0x30,#0x00	; 3145856
   B814 10 02 40 00        6766 	.byte #0x10,#0x02,#0x40,#0x00	; 4194832
   B818 00 88 04 00        6767 	.byte #0x00,#0x88,#0x04,#0x00	; 296960
   B81C 00 91 00 00        6768 	.byte #0x00,#0x91,#0x00,#0x00	; 37120
   B820 00 22 01 00        6769 	.byte #0x00,#0x22,#0x01,#0x00	; 74240
   B824 40 00 18 00        6770 	.byte #0x40,#0x00,#0x18,#0x00	; 1572928
   B828 00 44 02 00        6771 	.byte #0x00,#0x44,#0x02,#0x00	; 148480
   B82C 30 04 00 00        6772 	.byte #0x30,#0x04,#0x00,#0x00	; 1072
   B830 44 08 00 00        6773 	.byte #0x44,#0x08,#0x00,#0x00	; 2116
   B834 08 02 40 00        6774 	.byte #0x08,#0x02,#0x40,#0x00	; 4194824
   B838 00 20 12 00        6775 	.byte #0x00,#0x20,#0x12,#0x00	; 1187840
   B83C 41 08 00 00        6776 	.byte #0x41,#0x08,#0x00,#0x00	; 2113
   B840 40 08 00 00        6777 	.byte #0x40,#0x08,#0x00,#0x00	; 2112
   B844 00 C0 01 00        6778 	.byte #0x00,#0xC0,#0x01,#0x00	; 114688
   B848 42 08 00 00        6779 	.byte #0x42,#0x08,#0x00,#0x00	; 2114
   B84C 02 02 40 00        6780 	.byte #0x02,#0x02,#0x40,#0x00	; 4194818
   B850 00 41 08 00        6781 	.byte #0x00,#0x41,#0x08,#0x00	; 540928
   B854 00 02 40 00        6782 	.byte #0x00,#0x02,#0x40,#0x00	; 4194816
   B858 01 02 40 00        6783 	.byte #0x01,#0x02,#0x40,#0x00	; 4194817
   B85C 00 00 26 00        6784 	.byte #0x00,#0x00,#0x26,#0x00	; 2490368
   B860 48 08 00 00        6785 	.byte #0x48,#0x08,#0x00,#0x00	; 2120
   B864 04 02 40 00        6786 	.byte #0x04,#0x02,#0x40,#0x00	; 4194820
   B868 A0 10 00 00        6787 	.byte #0xA0,#0x10,#0x00,#0x00	; 4256
   B86C 40 04 00 00        6788 	.byte #0x40,#0x04,#0x00,#0x00	; 1088
   B870 41 04 00 00        6789 	.byte #0x41,#0x04,#0x00,#0x00	; 1089
   B874 42 04 00 00        6790 	.byte #0x42,#0x04,#0x00,#0x00	; 1090
   B878 08 21 00 00        6791 	.byte #0x08,#0x21,#0x00,#0x00	; 8456
   B87C 44 04 00 00        6792 	.byte #0x44,#0x04,#0x00,#0x00	; 1092
   B880 30 08 00 00        6793 	.byte #0x30,#0x08,#0x00,#0x00	; 2096
   B884 00 50 40 00        6794 	.byte #0x00,#0x50,#0x40,#0x00	; 4214784
   B888 00 00 07 00        6795 	.byte #0x00,#0x00,#0x07,#0x00	; 458752
   B88C 48 04 00 00        6796 	.byte #0x48,#0x04,#0x00,#0x00	; 1096
   B890 02 21 00 00        6797 	.byte #0x02,#0x21,#0x00,#0x00	; 8450
   B894 01 21 00 00        6798 	.byte #0x01,#0x21,#0x00,#0x00	; 8449
   B898 00 21 00 00        6799 	.byte #0x00,#0x21,#0x00,#0x00	; 8448
   B89C 80 02 02 00        6800 	.byte #0x80,#0x02,#0x02,#0x00	; 131712
   B8A0 00 C0 20 00        6801 	.byte #0x00,#0xC0,#0x20,#0x00	; 2146304
   B8A4 20 00 18 00        6802 	.byte #0x20,#0x00,#0x18,#0x00	; 1572896
   B8A8 04 21 00 00        6803 	.byte #0x04,#0x21,#0x00,#0x00	; 8452
   B8AC 50 04 00 00        6804 	.byte #0x50,#0x04,#0x00,#0x00	; 1104
   B8B0 24 08 00 00        6805 	.byte #0x24,#0x08,#0x00,#0x00	; 2084
   B8B4 80 00 11 00        6806 	.byte #0x80,#0x00,#0x11,#0x00	; 1114240
   B8B8 00 80 48 00        6807 	.byte #0x00,#0x80,#0x48,#0x00	; 4751360
   B8BC 21 08 00 00        6808 	.byte #0x21,#0x08,#0x00,#0x00	; 2081
   B8C0 20 08 00 00        6809 	.byte #0x20,#0x08,#0x00,#0x00	; 2080
   B8C4 00 22 20 00        6810 	.byte #0x00,#0x22,#0x20,#0x00	; 2105856
   B8C8 22 08 00 00        6811 	.byte #0x22,#0x08,#0x00,#0x00	; 2082
   B8CC 00 10 28 00        6812 	.byte #0x00,#0x10,#0x28,#0x00	; 2625536
   B8D0 00 02 14 00        6813 	.byte #0x00,#0x02,#0x14,#0x00	; 1311232
   B8D4 00 48 02 00        6814 	.byte #0x00,#0x48,#0x02,#0x00	; 149504
   B8D8 10 21 00 00        6815 	.byte #0x10,#0x21,#0x00,#0x00	; 8464
   B8DC 00 01 41 00        6816 	.byte #0x00,#0x01,#0x41,#0x00	; 4260096
   B8E0 28 08 00 00        6817 	.byte #0x28,#0x08,#0x00,#0x00	; 2088
   B8E4 00 84 04 00        6818 	.byte #0x00,#0x84,#0x04,#0x00	; 295936
   B8E8 C0 10 00 00        6819 	.byte #0xC0,#0x10,#0x00,#0x00	; 4288
   B8EC 60 04 00 00        6820 	.byte #0x60,#0x04,#0x00,#0x00	; 1120
   B8F0 14 08 00 00        6821 	.byte #0x14,#0x08,#0x00,#0x00	; 2068
   B8F4 00 80 22 00        6822 	.byte #0x00,#0x80,#0x22,#0x00	; 2260992
   B8F8 80 42 00 00        6823 	.byte #0x80,#0x42,#0x00,#0x00	; 17024
   B8FC 11 08 00 00        6824 	.byte #0x11,#0x08,#0x00,#0x00	; 2065
   B900 10 08 00 00        6825 	.byte #0x10,#0x08,#0x00,#0x00	; 2064
   B904 08 00 18 00        6826 	.byte #0x08,#0x00,#0x18,#0x00	; 1572872
   B908 12 08 00 00        6827 	.byte #0x12,#0x08,#0x00,#0x00	; 2066
   B90C 00 40 05 00        6828 	.byte #0x00,#0x40,#0x05,#0x00	; 344064
   B910 00 10 42 00        6829 	.byte #0x00,#0x10,#0x42,#0x00	; 4329472
   B914 04 00 18 00        6830 	.byte #0x04,#0x00,#0x18,#0x00	; 1572868
   B918 20 21 00 00        6831 	.byte #0x20,#0x21,#0x00,#0x00	; 8480
   B91C 02 00 18 00        6832 	.byte #0x02,#0x00,#0x18,#0x00	; 1572866
   B920 18 08 00 00        6833 	.byte #0x18,#0x08,#0x00,#0x00	; 2072
   B924 00 00 18 00        6834 	.byte #0x00,#0x00,#0x18,#0x00	; 1572864
   B928 01 00 18 00        6835 	.byte #0x01,#0x00,#0x18,#0x00	; 1572865
   B92C 05 08 00 00        6836 	.byte #0x05,#0x08,#0x00,#0x00	; 2053
   B930 04 08 00 00        6837 	.byte #0x04,#0x08,#0x00,#0x00	; 2052
   B934 00 11 04 00        6838 	.byte #0x00,#0x11,#0x04,#0x00	; 266496
   B938 06 08 00 00        6839 	.byte #0x06,#0x08,#0x00,#0x00	; 2054
   B93C 01 08 00 00        6840 	.byte #0x01,#0x08,#0x00,#0x00	; 2049
   B940 00 08 00 00        6841 	.byte #0x00,#0x08,#0x00,#0x00	; 2048
   B944 03 08 00 00        6842 	.byte #0x03,#0x08,#0x00,#0x00	; 2051
   B948 02 08 00 00        6843 	.byte #0x02,#0x08,#0x00,#0x00	; 2050
   B94C 80 A0 00 00        6844 	.byte #0x80,#0xA0,#0x00,#0x00	; 41088
   B950 0C 08 00 00        6845 	.byte #0x0C,#0x08,#0x00,#0x00	; 2060
   B954 40 02 40 00        6846 	.byte #0x40,#0x02,#0x40,#0x00	; 4194880
   B958 00 04 21 00        6847 	.byte #0x00,#0x04,#0x21,#0x00	; 2163712
   B95C 09 08 00 00        6848 	.byte #0x09,#0x08,#0x00,#0x00	; 2057
   B960 08 08 00 00        6849 	.byte #0x08,#0x08,#0x00,#0x00	; 2056
   B964 10 00 18 00        6850 	.byte #0x10,#0x00,#0x18,#0x00	; 1572880
   B968 0A 08 00 00        6851 	.byte #0x0A,#0x08,#0x00,#0x00	; 2058
   B96C 80 04 00 00        6852 	.byte #0x80,#0x04,#0x00,#0x00	; 1152
   B970 81 04 00 00        6853 	.byte #0x81,#0x04,#0x00,#0x00	; 1153
   B974 82 04 00 00        6854 	.byte #0x82,#0x04,#0x00,#0x00	; 1154
   B978 00 08 42 00        6855 	.byte #0x00,#0x08,#0x42,#0x00	; 4327424
   B97C 84 04 00 00        6856 	.byte #0x84,#0x04,#0x00,#0x00	; 1156
   B980 00 41 01 00        6857 	.byte #0x00,#0x41,#0x01,#0x00	; 82176
   B984 20 20 04 00        6858 	.byte #0x20,#0x20,#0x04,#0x00	; 270368
   B988 18 10 00 00        6859 	.byte #0x18,#0x10,#0x00,#0x00	; 4120
   B98C 88 04 00 00        6860 	.byte #0x88,#0x04,#0x00,#0x00	; 1160
   B990 20 00 30 00        6861 	.byte #0x20,#0x00,#0x30,#0x00	; 3145760
   B994 00 C0 08 00        6862 	.byte #0x00,#0xC0,#0x08,#0x00	; 573440
   B998 14 10 00 00        6863 	.byte #0x14,#0x10,#0x00,#0x00	; 4116
   B99C 40 02 02 00        6864 	.byte #0x40,#0x02,#0x02,#0x00	; 131648
   B9A0 12 10 00 00        6865 	.byte #0x12,#0x10,#0x00,#0x00	; 4114
   B9A4 11 10 00 00        6866 	.byte #0x11,#0x10,#0x00,#0x00	; 4113
   B9A8 10 10 00 00        6867 	.byte #0x10,#0x10,#0x00,#0x00	; 4112
   B9AC 90 04 00 00        6868 	.byte #0x90,#0x04,#0x00,#0x00	; 1168
   B9B0 00 22 08 00        6869 	.byte #0x00,#0x22,#0x08,#0x00	; 532992
   B9B4 40 00 11 00        6870 	.byte #0x40,#0x00,#0x11,#0x00	; 1114176
   B9B8 0C 10 00 00        6871 	.byte #0x0C,#0x10,#0x00,#0x00	; 4108
   B9BC 00 80 60 00        6872 	.byte #0x00,#0x80,#0x60,#0x00	; 6324224
   B9C0 0A 10 00 00        6873 	.byte #0x0A,#0x10,#0x00,#0x00	; 4106
   B9C4 09 10 00 00        6874 	.byte #0x09,#0x10,#0x00,#0x00	; 4105
   B9C8 08 10 00 00        6875 	.byte #0x08,#0x10,#0x00,#0x00	; 4104
   B9CC 00 09 04 00        6876 	.byte #0x00,#0x09,#0x04,#0x00	; 264448
   B9D0 06 10 00 00        6877 	.byte #0x06,#0x10,#0x00,#0x00	; 4102
   B9D4 05 10 00 00        6878 	.byte #0x05,#0x10,#0x00,#0x00	; 4101
   B9D8 04 10 00 00        6879 	.byte #0x04,#0x10,#0x00,#0x00	; 4100
   B9DC 03 10 00 00        6880 	.byte #0x03,#0x10,#0x00,#0x00	; 4099
   B9E0 02 10 00 00        6881 	.byte #0x02,#0x10,#0x00,#0x00	; 4098
   B9E4 01 10 00 00        6882 	.byte #0x01,#0x10,#0x00,#0x00	; 4097
   B9E8 00 10 00 00        6883 	.byte #0x00,#0x10,#0x00,#0x00	; 4096
   B9EC A0 04 00 00        6884 	.byte #0xA0,#0x04,#0x00,#0x00	; 1184
   B9F0 08 00 30 00        6885 	.byte #0x08,#0x00,#0x30,#0x00	; 3145736
   B9F4 04 20 04 00        6886 	.byte #0x04,#0x20,#0x04,#0x00	; 270340
   B9F8 40 42 00 00        6887 	.byte #0x40,#0x42,#0x00,#0x00	; 16960
   B9FC 02 20 04 00        6888 	.byte #0x02,#0x20,#0x04,#0x00	; 270338
   BA00 00 80 0A 00        6889 	.byte #0x00,#0x80,#0x0A,#0x00	; 688128
   BA04 00 20 04 00        6890 	.byte #0x00,#0x20,#0x04,#0x00	; 270336
   BA08 01 20 04 00        6891 	.byte #0x01,#0x20,#0x04,#0x00	; 270337
   BA0C 01 00 30 00        6892 	.byte #0x01,#0x00,#0x30,#0x00	; 3145729
   BA10 00 00 30 00        6893 	.byte #0x00,#0x00,#0x30,#0x00	; 3145728
   BA14 00 01 03 00        6894 	.byte #0x00,#0x01,#0x03,#0x00	; 196864
   BA18 02 00 30 00        6895 	.byte #0x02,#0x00,#0x30,#0x00	; 3145730
   BA1C 00 48 40 00        6896 	.byte #0x00,#0x48,#0x40,#0x00	; 4212736
   BA20 04 00 30 00        6897 	.byte #0x04,#0x00,#0x30,#0x00	; 3145732
   BA24 08 20 04 00        6898 	.byte #0x08,#0x20,#0x04,#0x00	; 270344
   BA28 30 10 00 00        6899 	.byte #0x30,#0x10,#0x00,#0x00	; 4144
   BA2C 00 50 02 00        6900 	.byte #0x00,#0x50,#0x02,#0x00	; 151552
   BA30 00 00 45 00        6901 	.byte #0x00,#0x00,#0x45,#0x00	; 4521984
   BA34 00 08 28 00        6902 	.byte #0x00,#0x08,#0x28,#0x00	; 2623488
   BA38 00 85 00 00        6903 	.byte #0x00,#0x85,#0x00,#0x00	; 34048
   BA3C 00 03 10 00        6904 	.byte #0x00,#0x03,#0x10,#0x00	; 1049344
   BA40 C0 08 00 00        6905 	.byte #0xC0,#0x08,#0x00,#0x00	; 2240
   BA44 10 20 04 00        6906 	.byte #0x10,#0x20,#0x04,#0x00	; 270352
   BA48 28 10 00 00        6907 	.byte #0x28,#0x10,#0x00,#0x00	; 4136
   BA4C 40 A0 00 00        6908 	.byte #0x40,#0xA0,#0x00,#0x00	; 41024
   BA50 10 00 30 00        6909 	.byte #0x10,#0x00,#0x30,#0x00	; 3145744
   BA54 80 02 40 00        6910 	.byte #0x80,#0x02,#0x40,#0x00	; 4194944
   BA58 24 10 00 00        6911 	.byte #0x24,#0x10,#0x00,#0x00	; 4132
   BA5C 00 04 09 00        6912 	.byte #0x00,#0x04,#0x09,#0x00	; 590848
   BA60 22 10 00 00        6913 	.byte #0x22,#0x10,#0x00,#0x00	; 4130
   BA64 21 10 00 00        6914 	.byte #0x21,#0x10,#0x00,#0x00	; 4129
   BA68 20 10 00 00        6915 	.byte #0x20,#0x10,#0x00,#0x00	; 4128
   BA6C C0 04 00 00        6916 	.byte #0xC0,#0x04,#0x00,#0x00	; 1216
   BA70 00 90 04 00        6917 	.byte #0x00,#0x90,#0x04,#0x00	; 299008
   BA74 10 00 11 00        6918 	.byte #0x10,#0x00,#0x11,#0x00	; 1114128
   BA78 20 42 00 00        6919 	.byte #0x20,#0x42,#0x00,#0x00	; 16928
   BA7C 08 02 02 00        6920 	.byte #0x08,#0x02,#0x02,#0x00	; 131592
   BA80 00 20 50 00        6921 	.byte #0x00,#0x20,#0x50,#0x00	; 5251072
   BA84 00 89 00 00        6922 	.byte #0x00,#0x89,#0x00,#0x00	; 35072
   BA88 00 04 28 00        6923 	.byte #0x00,#0x04,#0x28,#0x00	; 2622464
   BA8C 04 02 02 00        6924 	.byte #0x04,#0x02,#0x02,#0x00	; 131588
   BA90 00 08 09 00        6925 	.byte #0x00,#0x08,#0x09,#0x00	; 591872
   BA94 00 00 64 00        6926 	.byte #0x00,#0x00,#0x64,#0x00	; 6553600
   BA98 80 21 00 00        6927 	.byte #0x80,#0x21,#0x00,#0x00	; 8576
   BA9C 00 02 02 00        6928 	.byte #0x00,#0x02,#0x02,#0x00	; 131584
   BAA0 01 02 02 00        6929 	.byte #0x01,#0x02,#0x02,#0x00	; 131585
   BAA4 02 02 02 00        6930 	.byte #0x02,#0x02,#0x02,#0x00	; 131586
   BAA8 50 10 00 00        6931 	.byte #0x50,#0x10,#0x00,#0x00	; 4176
   BAAC 02 00 11 00        6932 	.byte #0x02,#0x00,#0x11,#0x00	; 1114114
   BAB0 00 01 22 00        6933 	.byte #0x00,#0x01,#0x22,#0x00	; 2228480
   BAB4 00 00 11 00        6934 	.byte #0x00,#0x00,#0x11,#0x00	; 1114112
   BAB8 01 00 11 00        6935 	.byte #0x01,#0x00,#0x11,#0x00	; 1114113
   BABC 00 40 0C 00        6936 	.byte #0x00,#0x40,#0x0C,#0x00	; 802816
   BAC0 A0 08 00 00        6937 	.byte #0xA0,#0x08,#0x00,#0x00	; 2208
   BAC4 04 00 11 00        6938 	.byte #0x04,#0x00,#0x11,#0x00	; 1114116
   BAC8 48 10 00 00        6939 	.byte #0x48,#0x10,#0x00,#0x00	; 4168
   BACC 20 A0 00 00        6940 	.byte #0x20,#0xA0,#0x00,#0x00	; 40992
   BAD0 00 44 40 00        6941 	.byte #0x00,#0x44,#0x40,#0x00	; 4211712
   BAD4 08 00 11 00        6942 	.byte #0x08,#0x00,#0x11,#0x00	; 1114120
   BAD8 44 10 00 00        6943 	.byte #0x44,#0x10,#0x00,#0x00	; 4164
   BADC 10 02 02 00        6944 	.byte #0x10,#0x02,#0x02,#0x00	; 131600
   BAE0 42 10 00 00        6945 	.byte #0x42,#0x10,#0x00,#0x00	; 4162
   BAE4 41 10 00 00        6946 	.byte #0x41,#0x10,#0x00,#0x00	; 4161
   BAE8 40 10 00 00        6947 	.byte #0x40,#0x10,#0x00,#0x00	; 4160
   BAEC 00 01 48 00        6948 	.byte #0x00,#0x01,#0x48,#0x00	; 4718848
   BAF0 02 42 00 00        6949 	.byte #0x02,#0x42,#0x00,#0x00	; 16898
   BAF4 01 42 00 00        6950 	.byte #0x01,#0x42,#0x00,#0x00	; 16897
   BAF8 00 42 00 00        6951 	.byte #0x00,#0x42,#0x00,#0x00	; 16896
   BAFC 00 10 21 00        6952 	.byte #0x00,#0x10,#0x21,#0x00	; 2166784
   BB00 90 08 00 00        6953 	.byte #0x90,#0x08,#0x00,#0x00	; 2192
   BB04 40 20 04 00        6954 	.byte #0x40,#0x20,#0x04,#0x00	; 270400
   BB08 04 42 00 00        6955 	.byte #0x04,#0x42,#0x00,#0x00	; 16900
   BB0C 10 A0 00 00        6956 	.byte #0x10,#0xA0,#0x00,#0x00	; 40976
   BB10 40 00 30 00        6957 	.byte #0x40,#0x00,#0x30,#0x00	; 3145792
   BB14 00 1C 00 00        6958 	.byte #0x00,#0x1C,#0x00,#0x00	; 7168
   BB18 08 42 00 00        6959 	.byte #0x08,#0x42,#0x00,#0x00	; 16904
   BB1C 20 02 02 00        6960 	.byte #0x20,#0x02,#0x02,#0x00	; 131616
   BB20 00 05 04 00        6961 	.byte #0x00,#0x05,#0x04,#0x00	; 263424
   BB24 80 00 18 00        6962 	.byte #0x80,#0x00,#0x18,#0x00	; 1572992
   BB28 00 80 41 00        6963 	.byte #0x00,#0x80,#0x41,#0x00	; 4292608
   BB2C 08 A0 00 00        6964 	.byte #0x08,#0xA0,#0x00,#0x00	; 40968
   BB30 84 08 00 00        6965 	.byte #0x84,#0x08,#0x00,#0x00	; 2180
   BB34 20 00 11 00        6966 	.byte #0x20,#0x00,#0x11,#0x00	; 1114144
   BB38 10 42 00 00        6967 	.byte #0x10,#0x42,#0x00,#0x00	; 16912
   BB3C 81 08 00 00        6968 	.byte #0x81,#0x08,#0x00,#0x00	; 2177
   BB40 80 08 00 00        6969 	.byte #0x80,#0x08,#0x00,#0x00	; 2176
   BB44 00 04 42 00        6970 	.byte #0x00,#0x04,#0x42,#0x00	; 4326400
   BB48 82 08 00 00        6971 	.byte #0x82,#0x08,#0x00,#0x00	; 2178
   BB4C 00 A0 00 00        6972 	.byte #0x00,#0xA0,#0x00,#0x00	; 40960
   BB50 01 A0 00 00        6973 	.byte #0x01,#0xA0,#0x00,#0x00	; 40961
   BB54 02 A0 00 00        6974 	.byte #0x02,#0xA0,#0x00,#0x00	; 40962
   BB58 00 00 0E 00        6975 	.byte #0x00,#0x00,#0x0E,#0x00	; 917504
   BB5C 04 A0 00 00        6976 	.byte #0x04,#0xA0,#0x00,#0x00	; 40964
   BB60 88 08 00 00        6977 	.byte #0x88,#0x08,#0x00,#0x00	; 2184
   BB64 00 41 20 00        6978 	.byte #0x00,#0x41,#0x20,#0x00	; 2113792
   BB68 60 10 00 00        6979 	.byte #0x60,#0x10,#0x00,#0x00	; 4192
   BB6C 00 05 00 00        6980 	.byte #0x00,#0x05,#0x00,#0x00	; 1280
   BB70 01 05 00 00        6981 	.byte #0x01,#0x05,#0x00,#0x00	; 1281
   BB74 02 05 00 00        6982 	.byte #0x02,#0x05,#0x00,#0x00	; 1282
   BB78 48 20 00 00        6983 	.byte #0x48,#0x20,#0x00,#0x00	; 8264
   BB7C 04 05 00 00        6984 	.byte #0x04,#0x05,#0x00,#0x00	; 1284
   BB80 80 40 01 00        6985 	.byte #0x80,#0x40,#0x01,#0x00	; 82048
   BB84 10 00 0A 00        6986 	.byte #0x10,#0x00,#0x0A,#0x00	; 655376
   BB88 20 00 60 00        6987 	.byte #0x20,#0x00,#0x60,#0x00	; 6291488
   BB8C 08 05 00 00        6988 	.byte #0x08,#0x05,#0x00,#0x00	; 1288
   BB90 42 20 00 00        6989 	.byte #0x42,#0x20,#0x00,#0x00	; 8258
   BB94 41 20 00 00        6990 	.byte #0x41,#0x20,#0x00,#0x00	; 8257
   BB98 40 20 00 00        6991 	.byte #0x40,#0x20,#0x00,#0x00	; 8256
   BB9C 20 90 00 00        6992 	.byte #0x20,#0x90,#0x00,#0x00	; 36896
   BBA0 00 08 12 00        6993 	.byte #0x00,#0x08,#0x12,#0x00	; 1181696
   BBA4 00 42 04 00        6994 	.byte #0x00,#0x42,#0x04,#0x00	; 279040
   BBA8 44 20 00 00        6995 	.byte #0x44,#0x20,#0x00,#0x00	; 8260
   BBAC 10 05 00 00        6996 	.byte #0x10,#0x05,#0x00,#0x00	; 1296
   BBB0 00 10 50 00        6997 	.byte #0x00,#0x10,#0x50,#0x00	; 5246976
   BBB4 04 00 0A 00        6998 	.byte #0x04,#0x00,#0x0A,#0x00	; 655364
   BBB8 00 0A 01 00        6999 	.byte #0x00,#0x0A,#0x01,#0x00	; 68096
   BBBC 02 00 0A 00        7000 	.byte #0x02,#0x00,#0x0A,#0x00	; 655362
   BBC0 00 A0 04 00        7001 	.byte #0x00,#0xA0,#0x04,#0x00	; 303104
   BBC4 00 00 0A 00        7002 	.byte #0x00,#0x00,#0x0A,#0x00	; 655360
   BBC8 01 00 0A 00        7003 	.byte #0x01,#0x00,#0x0A,#0x00	; 655361
   BBCC 80 08 04 00        7004 	.byte #0x80,#0x08,#0x04,#0x00	; 264320
   BBD0 20 40 08 00        7005 	.byte #0x20,#0x40,#0x08,#0x00	; 540704
   BBD4 00 80 30 00        7006 	.byte #0x00,#0x80,#0x30,#0x00	; 3178496
   BBD8 50 20 00 00        7007 	.byte #0x50,#0x20,#0x00,#0x00	; 8272
   BBDC 40 00 41 00        7008 	.byte #0x40,#0x00,#0x41,#0x00	; 4259904
   BBE0 00 06 20 00        7009 	.byte #0x00,#0x06,#0x20,#0x00	; 2098688
   BBE4 08 00 0A 00        7010 	.byte #0x08,#0x00,#0x0A,#0x00	; 655368
   BBE8 80 11 00 00        7011 	.byte #0x80,#0x11,#0x00,#0x00	; 4480
   BBEC 20 05 00 00        7012 	.byte #0x20,#0x05,#0x00,#0x00	; 1312
   BBF0 00 02 06 00        7013 	.byte #0x00,#0x02,#0x06,#0x00	; 393728
   BBF4 00 48 10 00        7014 	.byte #0x00,#0x48,#0x10,#0x00	; 1067008
   BBF8 04 00 60 00        7015 	.byte #0x04,#0x00,#0x60,#0x00	; 6291460
   BBFC 08 90 00 00        7016 	.byte #0x08,#0x90,#0x00,#0x00	; 36872
   BC00 02 00 60 00        7017 	.byte #0x02,#0x00,#0x60,#0x00	; 6291458
   BC04 01 00 60 00        7018 	.byte #0x01,#0x00,#0x60,#0x00	; 6291457
   BC08 00 00 60 00        7019 	.byte #0x00,#0x00,#0x60,#0x00	; 6291456
   BC0C 04 90 00 00        7020 	.byte #0x04,#0x90,#0x00,#0x00	; 36868
   BC10 10 40 08 00        7021 	.byte #0x10,#0x40,#0x08,#0x00	; 540688
   BC14 80 00 03 00        7022 	.byte #0x80,#0x00,#0x03,#0x00	; 196736
   BC18 60 20 00 00        7023 	.byte #0x60,#0x20,#0x00,#0x00	; 8288
   BC1C 00 90 00 00        7024 	.byte #0x00,#0x90,#0x00,#0x00	; 36864
   BC20 01 90 00 00        7025 	.byte #0x01,#0x90,#0x00,#0x00	; 36865
   BC24 02 90 00 00        7026 	.byte #0x02,#0x90,#0x00,#0x00	; 36866
   BC28 08 00 60 00        7027 	.byte #0x08,#0x00,#0x60,#0x00	; 6291464
   BC2C 00 20 21 00        7028 	.byte #0x00,#0x20,#0x21,#0x00	; 2170880
   BC30 08 40 08 00        7029 	.byte #0x08,#0x40,#0x08,#0x00	; 540680
   BC34 40 10 04 00        7030 	.byte #0x40,#0x10,#0x04,#0x00	; 266304
   BC38 80 84 00 00        7031 	.byte #0x80,#0x84,#0x00,#0x00	; 33920
   BC3C 80 02 10 00        7032 	.byte #0x80,#0x02,#0x10,#0x00	; 1049216
   BC40 40 09 00 00        7033 	.byte #0x40,#0x09,#0x00,#0x00	; 2368
   BC44 20 00 0A 00        7034 	.byte #0x20,#0x00,#0x0A,#0x00	; 655392
   BC48 10 00 60 00        7035 	.byte #0x10,#0x00,#0x60,#0x00	; 6291472
   BC4C 01 40 08 00        7036 	.byte #0x01,#0x40,#0x08,#0x00	; 540673
   BC50 00 40 08 00        7037 	.byte #0x00,#0x40,#0x08,#0x00	; 540672
   BC54 00 03 40 00        7038 	.byte #0x00,#0x03,#0x40,#0x00	; 4195072
   BC58 02 40 08 00        7039 	.byte #0x02,#0x40,#0x08,#0x00	; 540674
   BC5C 10 90 00 00        7040 	.byte #0x10,#0x90,#0x00,#0x00	; 36880
   BC60 04 40 08 00        7041 	.byte #0x04,#0x40,#0x08,#0x00	; 540676
   BC64 00 2C 00 00        7042 	.byte #0x00,#0x2C,#0x00,#0x00	; 11264
   BC68 00 00 15 00        7043 	.byte #0x00,#0x00,#0x15,#0x00	; 1376256
   BC6C 40 05 00 00        7044 	.byte #0x40,#0x05,#0x00,#0x00	; 1344
   BC70 0A 20 00 00        7045 	.byte #0x0A,#0x20,#0x00,#0x00	; 8202
   BC74 09 20 00 00        7046 	.byte #0x09,#0x20,#0x00,#0x00	; 8201
   BC78 08 20 00 00        7047 	.byte #0x08,#0x20,#0x00,#0x00	; 8200
   BC7C 00 00 34 00        7048 	.byte #0x00,#0x00,#0x34,#0x00	; 3407872
   BC80 00 12 08 00        7049 	.byte #0x00,#0x12,#0x08,#0x00	; 528896
   BC84 80 88 00 00        7050 	.byte #0x80,#0x88,#0x00,#0x00	; 34944
   BC88 0C 20 00 00        7051 	.byte #0x0C,#0x20,#0x00,#0x00	; 8204
   BC8C 03 20 00 00        7052 	.byte #0x03,#0x20,#0x00,#0x00	; 8195
   BC90 02 20 00 00        7053 	.byte #0x02,#0x20,#0x00,#0x00	; 8194
   BC94 01 20 00 00        7054 	.byte #0x01,#0x20,#0x00,#0x00	; 8193
   BC98 00 20 00 00        7055 	.byte #0x00,#0x20,#0x00,#0x00	; 8192
   BC9C 10 00 41 00        7056 	.byte #0x10,#0x00,#0x41,#0x00	; 4259856
   BCA0 06 20 00 00        7057 	.byte #0x06,#0x20,#0x00,#0x00	; 8198
   BCA4 05 20 00 00        7058 	.byte #0x05,#0x20,#0x00,#0x00	; 8197
   BCA8 04 20 00 00        7059 	.byte #0x04,#0x20,#0x00,#0x00	; 8196
   BCAC 00 C2 00 00        7060 	.byte #0x00,#0xC2,#0x00,#0x00	; 49664
   BCB0 80 00 22 00        7061 	.byte #0x80,#0x00,#0x22,#0x00	; 2228352
   BCB4 20 10 04 00        7062 	.byte #0x20,#0x10,#0x04,#0x00	; 266272
   BCB8 18 20 00 00        7063 	.byte #0x18,#0x20,#0x00,#0x00	; 8216
   BCBC 08 00 41 00        7064 	.byte #0x08,#0x00,#0x41,#0x00	; 4259848
   BCC0 20 09 00 00        7065 	.byte #0x20,#0x09,#0x00,#0x00	; 2336
   BCC4 40 00 0A 00        7066 	.byte #0x40,#0x00,#0x0A,#0x00	; 655424
   BCC8 00 44 10 00        7067 	.byte #0x00,#0x44,#0x10,#0x00	; 1065984
   BCCC 04 00 41 00        7068 	.byte #0x04,#0x00,#0x41,#0x00	; 4259844
   BCD0 12 20 00 00        7069 	.byte #0x12,#0x20,#0x00,#0x00	; 8210
   BCD4 11 20 00 00        7070 	.byte #0x11,#0x20,#0x00,#0x00	; 8209
   BCD8 10 20 00 00        7071 	.byte #0x10,#0x20,#0x00,#0x00	; 8208
   BCDC 00 00 41 00        7072 	.byte #0x00,#0x00,#0x41,#0x00	; 4259840
   BCE0 01 00 41 00        7073 	.byte #0x01,#0x00,#0x41,#0x00	; 4259841
   BCE4 02 00 41 00        7074 	.byte #0x02,#0x00,#0x41,#0x00	; 4259842
   BCE8 14 20 00 00        7075 	.byte #0x14,#0x20,#0x00,#0x00	; 8212
   BCEC 80 00 48 00        7076 	.byte #0x80,#0x00,#0x48,#0x00	; 4718720
   BCF0 00 80 11 00        7077 	.byte #0x00,#0x80,#0x11,#0x00	; 1146880
   BCF4 10 10 04 00        7078 	.byte #0x10,#0x10,#0x04,#0x00	; 266256
   BCF8 28 20 00 00        7079 	.byte #0x28,#0x20,#0x00,#0x00	; 8232
   BCFC 00 60 02 00        7080 	.byte #0x00,#0x60,#0x02,#0x00	; 155648
   BD00 10 09 00 00        7081 	.byte #0x10,#0x09,#0x00,#0x00	; 2320
   BD04 00 06 01 00        7082 	.byte #0x00,#0x06,#0x01,#0x00	; 67072
   BD08 40 00 60 00        7083 	.byte #0x40,#0x00,#0x60,#0x00	; 6291520
   BD0C 00 0A 20 00        7084 	.byte #0x00,#0x0A,#0x20,#0x00	; 2099712
   BD10 22 20 00 00        7085 	.byte #0x22,#0x20,#0x00,#0x00	; 8226
   BD14 21 20 00 00        7086 	.byte #0x21,#0x20,#0x00,#0x00	; 8225
   BD18 20 20 00 00        7087 	.byte #0x20,#0x20,#0x00,#0x00	; 8224
   BD1C 40 90 00 00        7088 	.byte #0x40,#0x90,#0x00,#0x00	; 36928
   BD20 80 04 04 00        7089 	.byte #0x80,#0x04,#0x04,#0x00	; 263296
   BD24 00 01 18 00        7090 	.byte #0x00,#0x01,#0x18,#0x00	; 1573120
   BD28 24 20 00 00        7091 	.byte #0x24,#0x20,#0x00,#0x00	; 8228
   BD2C 02 10 04 00        7092 	.byte #0x02,#0x10,#0x04,#0x00	; 266242
   BD30 04 09 00 00        7093 	.byte #0x04,#0x09,#0x00,#0x00	; 2308
   BD34 00 10 04 00        7094 	.byte #0x00,#0x10,#0x04,#0x00	; 266240
   BD38 01 10 04 00        7095 	.byte #0x01,#0x10,#0x04,#0x00	; 266241
   BD3C 01 09 00 00        7096 	.byte #0x01,#0x09,#0x00,#0x00	; 2305
   BD40 00 09 00 00        7097 	.byte #0x00,#0x09,#0x00,#0x00	; 2304
   BD44 04 10 04 00        7098 	.byte #0x04,#0x10,#0x04,#0x00	; 266244
   BD48 02 09 00 00        7099 	.byte #0x02,#0x09,#0x00,#0x00	; 2306
   BD4C 00 04 12 00        7100 	.byte #0x00,#0x04,#0x12,#0x00	; 1180672
   BD50 40 40 08 00        7101 	.byte #0x40,#0x40,#0x08,#0x00	; 540736
   BD54 08 10 04 00        7102 	.byte #0x08,#0x10,#0x04,#0x00	; 266248
   BD58 30 20 00 00        7103 	.byte #0x30,#0x20,#0x00,#0x00	; 8240
   BD5C 20 00 41 00        7104 	.byte #0x20,#0x00,#0x41,#0x00	; 4259872
   BD60 08 09 00 00        7105 	.byte #0x08,#0x09,#0x00,#0x00	; 2312
   BD64 80 40 20 00        7106 	.byte #0x80,#0x40,#0x20,#0x00	; 2113664
   BD68 00 82 02 00        7107 	.byte #0x00,#0x82,#0x02,#0x00	; 164352
   BD6C 80 05 00 00        7108 	.byte #0x80,#0x05,#0x00,#0x00	; 1408
   BD70 04 40 01 00        7109 	.byte #0x04,#0x40,#0x01,#0x00	; 81924
   BD74 00 12 20 00        7110 	.byte #0x00,#0x12,#0x20,#0x00	; 2101760
   BD78 00 00 1C 00        7111 	.byte #0x00,#0x00,#0x1C,#0x00	; 1835008
   BD7C 01 40 01 00        7112 	.byte #0x01,#0x40,#0x01,#0x00	; 81921
   BD80 00 40 01 00        7113 	.byte #0x00,#0x40,#0x01,#0x00	; 81920
   BD84 40 88 00 00        7114 	.byte #0x40,#0x88,#0x00,#0x00	; 34880
   BD88 02 40 01 00        7115 	.byte #0x02,#0x40,#0x01,#0x00	; 81922
   BD8C 10 08 04 00        7116 	.byte #0x10,#0x08,#0x04,#0x00	; 264208
   BD90 00 82 40 00        7117 	.byte #0x00,#0x82,#0x40,#0x00	; 4227584
   BD94 20 00 03 00        7118 	.byte #0x20,#0x00,#0x03,#0x00	; 196640
   BD98 C0 20 00 00        7119 	.byte #0xC0,#0x20,#0x00,#0x00	; 8384
   BD9C 00 20 28 00        7120 	.byte #0x00,#0x20,#0x28,#0x00	; 2629632
   BDA0 08 40 01 00        7121 	.byte #0x08,#0x40,#0x01,#0x00	; 81928
   BDA4 00 04 50 00        7122 	.byte #0x00,#0x04,#0x50,#0x00	; 5243904
   BDA8 10 11 00 00        7123 	.byte #0x10,#0x11,#0x00,#0x00	; 4368
   BDAC 08 08 04 00        7124 	.byte #0x08,#0x08,#0x04,#0x00	; 264200
   BDB0 40 00 22 00        7125 	.byte #0x40,#0x00,#0x22,#0x00	; 2228288
   BDB4 00 60 40 00        7126 	.byte #0x00,#0x60,#0x40,#0x00	; 4218880
   BDB8 20 84 00 00        7127 	.byte #0x20,#0x84,#0x00,#0x00	; 33824
   BDBC 20 02 10 00        7128 	.byte #0x20,#0x02,#0x10,#0x00	; 1049120
   BDC0 10 40 01 00        7129 	.byte #0x10,#0x40,#0x01,#0x00	; 81936
   BDC4 80 00 0A 00        7130 	.byte #0x80,#0x00,#0x0A,#0x00	; 655488
   BDC8 08 11 00 00        7131 	.byte #0x08,#0x11,#0x00,#0x00	; 4360
   BDCC 00 08 04 00        7132 	.byte #0x00,#0x08,#0x04,#0x00	; 264192
   BDD0 01 08 04 00        7133 	.byte #0x01,#0x08,#0x04,#0x00	; 264193
   BDD4 02 08 04 00        7134 	.byte #0x02,#0x08,#0x04,#0x00	; 264194
   BDD8 04 11 00 00        7135 	.byte #0x04,#0x11,#0x00,#0x00	; 4356
   BDDC 04 08 04 00        7136 	.byte #0x04,#0x08,#0x04,#0x00	; 264196
   BDE0 02 11 00 00        7137 	.byte #0x02,#0x11,#0x00,#0x00	; 4354
   BDE4 01 11 00 00        7138 	.byte #0x01,#0x11,#0x00,#0x00	; 4353
   BDE8 00 11 00 00        7139 	.byte #0x00,#0x11,#0x00,#0x00	; 4352
   BDEC 40 00 48 00        7140 	.byte #0x40,#0x00,#0x48,#0x00	; 4718656
   BDF0 00 38 00 00        7141 	.byte #0x00,#0x38,#0x00,#0x00	; 14336
   BDF4 08 00 03 00        7142 	.byte #0x08,#0x00,#0x03,#0x00	; 196616
   BDF8 10 84 00 00        7143 	.byte #0x10,#0x84,#0x00,#0x00	; 33808
   BDFC 10 02 10 00        7144 	.byte #0x10,#0x02,#0x10,#0x00	; 1049104
   BE00 20 40 01 00        7145 	.byte #0x20,#0x40,#0x01,#0x00	; 81952
   BE04 00 21 04 00        7146 	.byte #0x00,#0x21,#0x04,#0x00	; 270592
   BE08 80 00 60 00        7147 	.byte #0x80,#0x00,#0x60,#0x00	; 6291584
   BE0C 02 00 03 00        7148 	.byte #0x02,#0x00,#0x03,#0x00	; 196610
   BE10 00 01 30 00        7149 	.byte #0x00,#0x01,#0x30,#0x00	; 3145984
   BE14 00 00 03 00        7150 	.byte #0x00,#0x00,#0x03,#0x00	; 196608
   BE18 01 00 03 00        7151 	.byte #0x01,#0x00,#0x03,#0x00	; 196609
   BE1C 80 90 00 00        7152 	.byte #0x80,#0x90,#0x00,#0x00	; 36992
   BE20 40 04 04 00        7153 	.byte #0x40,#0x04,#0x04,#0x00	; 263232
   BE24 04 00 03 00        7154 	.byte #0x04,#0x00,#0x03,#0x00	; 196612
   BE28 00 0A 08 00        7155 	.byte #0x00,#0x0A,#0x08,#0x00	; 526848
   BE2C 04 02 10 00        7156 	.byte #0x04,#0x02,#0x10,#0x00	; 1049092
   BE30 02 84 00 00        7157 	.byte #0x02,#0x84,#0x00,#0x00	; 33794
   BE34 01 84 00 00        7158 	.byte #0x01,#0x84,#0x00,#0x00	; 33793
   BE38 00 84 00 00        7159 	.byte #0x00,#0x84,#0x00,#0x00	; 33792
   BE3C 00 02 10 00        7160 	.byte #0x00,#0x02,#0x10,#0x00	; 1049088
   BE40 01 02 10 00        7161 	.byte #0x01,#0x02,#0x10,#0x00	; 1049089
   BE44 02 02 10 00        7162 	.byte #0x02,#0x02,#0x10,#0x00	; 1049090
   BE48 04 84 00 00        7163 	.byte #0x04,#0x84,#0x00,#0x00	; 33796
   BE4C 20 08 04 00        7164 	.byte #0x20,#0x08,#0x04,#0x00	; 264224
   BE50 80 40 08 00        7165 	.byte #0x80,#0x40,#0x08,#0x00	; 540800
   BE54 10 00 03 00        7166 	.byte #0x10,#0x00,#0x03,#0x00	; 196624
   BE58 08 84 00 00        7167 	.byte #0x08,#0x84,#0x00,#0x00	; 33800
   BE5C 08 02 10 00        7168 	.byte #0x08,#0x02,#0x10,#0x00	; 1049096
   BE60 00 20 42 00        7169 	.byte #0x00,#0x20,#0x42,#0x00	; 4333568
   BE64 40 40 20 00        7170 	.byte #0x40,#0x40,#0x20,#0x00	; 2113600
   BE68 20 11 00 00        7171 	.byte #0x20,#0x11,#0x00,#0x00	; 4384
   BE6C 20 00 48 00        7172 	.byte #0x20,#0x00,#0x48,#0x00	; 4718624
   BE70 10 00 22 00        7173 	.byte #0x10,#0x00,#0x22,#0x00	; 2228240
   BE74 04 88 00 00        7174 	.byte #0x04,#0x88,#0x00,#0x00	; 34820
   BE78 88 20 00 00        7175 	.byte #0x88,#0x20,#0x00,#0x00	; 8328
   BE7C 02 88 00 00        7176 	.byte #0x02,#0x88,#0x00,#0x00	; 34818
   BE80 40 40 01 00        7177 	.byte #0x40,#0x40,#0x01,#0x00	; 81984
   BE84 00 88 00 00        7178 	.byte #0x00,#0x88,#0x00,#0x00	; 34816
   BE88 01 88 00 00        7179 	.byte #0x01,#0x88,#0x00,#0x00	; 34817
   BE8C 00 50 10 00        7180 	.byte #0x00,#0x50,#0x10,#0x00	; 1069056
   BE90 82 20 00 00        7181 	.byte #0x82,#0x20,#0x00,#0x00	; 8322
   BE94 81 20 00 00        7182 	.byte #0x81,#0x20,#0x00,#0x00	; 8321
   BE98 80 20 00 00        7183 	.byte #0x80,#0x20,#0x00,#0x00	; 8320
   BE9C 00 03 02 00        7184 	.byte #0x00,#0x03,#0x02,#0x00	; 131840
   BEA0 20 04 04 00        7185 	.byte #0x20,#0x04,#0x04,#0x00	; 263200
   BEA4 08 88 00 00        7186 	.byte #0x08,#0x88,#0x00,#0x00	; 34824
   BEA8 84 20 00 00        7187 	.byte #0x84,#0x20,#0x00,#0x00	; 8324
   BEAC 01 00 22 00        7188 	.byte #0x01,#0x00,#0x22,#0x00	; 2228225
   BEB0 00 00 22 00        7189 	.byte #0x00,#0x00,#0x22,#0x00	; 2228224
   BEB4 00 01 11 00        7190 	.byte #0x00,#0x01,#0x11,#0x00	; 1114368
   BEB8 02 00 22 00        7191 	.byte #0x02,#0x00,#0x22,#0x00	; 2228226
   BEBC 00 34 00 00        7192 	.byte #0x00,#0x34,#0x00,#0x00	; 13312
   BEC0 04 00 22 00        7193 	.byte #0x04,#0x00,#0x22,#0x00	; 2228228
   BEC4 10 88 00 00        7194 	.byte #0x10,#0x88,#0x00,#0x00	; 34832
   BEC8 00 02 44 00        7195 	.byte #0x00,#0x02,#0x44,#0x00	; 4456960
   BECC 40 08 04 00        7196 	.byte #0x40,#0x08,#0x04,#0x00	; 264256
   BED0 08 00 22 00        7197 	.byte #0x08,#0x00,#0x22,#0x00	; 2228232
   BED4 00 06 08 00        7198 	.byte #0x00,#0x06,#0x08,#0x00	; 525824
   BED8 90 20 00 00        7199 	.byte #0x90,#0x20,#0x00,#0x00	; 8336
   BEDC 80 00 41 00        7200 	.byte #0x80,#0x00,#0x41,#0x00	; 4259968
   BEE0 00 80 18 00        7201 	.byte #0x00,#0x80,#0x18,#0x00	; 1605632
   BEE4 20 40 20 00        7202 	.byte #0x20,#0x40,#0x20,#0x00	; 2113568
   BEE8 40 11 00 00        7203 	.byte #0x40,#0x11,#0x00,#0x00	; 4416
   BEEC 00 00 48 00        7204 	.byte #0x00,#0x00,#0x48,#0x00	; 4718592
   BEF0 01 00 48 00        7205 	.byte #0x01,#0x00,#0x48,#0x00	; 4718593
   BEF4 02 00 48 00        7206 	.byte #0x02,#0x00,#0x48,#0x00	; 4718594
   BEF8 00 43 00 00        7207 	.byte #0x00,#0x43,#0x00,#0x00	; 17152
   BEFC 04 00 48 00        7208 	.byte #0x04,#0x00,#0x48,#0x00	; 4718596
   BF00 08 04 04 00        7209 	.byte #0x08,#0x04,#0x04,#0x00	; 263176
   BF04 20 88 00 00        7210 	.byte #0x20,#0x88,#0x00,#0x00	; 34848
   BF08 00 10 12 00        7211 	.byte #0x00,#0x10,#0x12,#0x00	; 1183744
   BF0C 08 00 48 00        7212 	.byte #0x08,#0x00,#0x48,#0x00	; 4718600
   BF10 04 04 04 00        7213 	.byte #0x04,#0x04,#0x04,#0x00	; 263172
   BF14 40 00 03 00        7214 	.byte #0x40,#0x00,#0x03,#0x00	; 196672
   BF18 A0 20 00 00        7215 	.byte #0xA0,#0x20,#0x00,#0x00	; 8352
   BF1C 01 04 04 00        7216 	.byte #0x01,#0x04,#0x04,#0x00	; 263169
   BF20 00 04 04 00        7217 	.byte #0x00,#0x04,#0x04,#0x00	; 263168
   BF24 10 40 20 00        7218 	.byte #0x10,#0x40,#0x20,#0x00	; 2113552
   BF28 02 04 04 00        7219 	.byte #0x02,#0x04,#0x04,#0x00	; 263170
   BF2C 10 00 48 00        7220 	.byte #0x10,#0x00,#0x48,#0x00	; 4718608
   BF30 20 00 22 00        7221 	.byte #0x20,#0x00,#0x22,#0x00	; 2228256
   BF34 80 10 04 00        7222 	.byte #0x80,#0x10,#0x04,#0x00	; 266368
   BF38 40 84 00 00        7223 	.byte #0x40,#0x84,#0x00,#0x00	; 33856
   BF3C 40 02 10 00        7224 	.byte #0x40,#0x02,#0x10,#0x00	; 1049152
   BF40 80 09 00 00        7225 	.byte #0x80,#0x09,#0x00,#0x00	; 2432
   BF44 08 40 20 00        7226 	.byte #0x08,#0x40,#0x20,#0x00	; 2113544
   BF48 00 20 09 00        7227 	.byte #0x00,#0x20,#0x09,#0x00	; 598016
   BF4C 00 A1 00 00        7228 	.byte #0x00,#0xA1,#0x00,#0x00	; 41216
   BF50 00 12 01 00        7229 	.byte #0x00,#0x12,#0x01,#0x00	; 70144
   BF54 04 40 20 00        7230 	.byte #0x04,#0x40,#0x20,#0x00	; 2113540
   BF58 00 08 50 00        7231 	.byte #0x00,#0x08,#0x50,#0x00	; 5244928
   BF5C 02 40 20 00        7232 	.byte #0x02,#0x40,#0x20,#0x00	; 2113538
   BF60 10 04 04 00        7233 	.byte #0x10,#0x04,#0x04,#0x00	; 263184
   BF64 00 40 20 00        7234 	.byte #0x00,#0x40,#0x20,#0x00	; 2113536
   BF68 01 40 20 00        7235 	.byte #0x01,#0x40,#0x20,#0x00	; 2113537
   BF6C 00 06 00 00        7236 	.byte #0x00,#0x06,#0x00,#0x00	; 1536
   BF70 01 06 00 00        7237 	.byte #0x01,#0x06,#0x00,#0x00	; 1537
   BF74 02 06 00 00        7238 	.byte #0x02,#0x06,#0x00,#0x00	; 1538
   BF78 04 80 10 00        7239 	.byte #0x04,#0x80,#0x10,#0x00	; 1081348
   BF7C 04 06 00 00        7240 	.byte #0x04,#0x06,#0x00,#0x00	; 1540
   BF80 02 80 10 00        7241 	.byte #0x02,#0x80,#0x10,#0x00	; 1081346
   BF84 01 80 10 00        7242 	.byte #0x01,#0x80,#0x10,#0x00	; 1081345
   BF88 00 80 10 00        7243 	.byte #0x00,#0x80,#0x10,#0x00	; 1081344
   BF8C 08 06 00 00        7244 	.byte #0x08,#0x06,#0x00,#0x00	; 1544
   BF90 00 58 00 00        7245 	.byte #0x00,#0x58,#0x00,#0x00	; 22528
   BF94 30 00 40 00        7246 	.byte #0x30,#0x00,#0x40,#0x00	; 4194352
   BF98 00 00 2A 00        7247 	.byte #0x00,#0x00,#0x2A,#0x00	; 2752512
   BF9C C0 00 02 00        7248 	.byte #0xC0,#0x00,#0x02,#0x00	; 131264
   BFA0 20 20 01 00        7249 	.byte #0x20,#0x20,#0x01,#0x00	; 73760
   BFA4 00 41 04 00        7250 	.byte #0x00,#0x41,#0x04,#0x00	; 278784
   BFA8 08 80 10 00        7251 	.byte #0x08,#0x80,#0x10,#0x00	; 1081352
   BFAC 10 06 00 00        7252 	.byte #0x10,#0x06,#0x00,#0x00	; 1552
   BFB0 80 20 08 00        7253 	.byte #0x80,#0x20,#0x08,#0x00	; 532608
   BFB4 28 00 40 00        7254 	.byte #0x28,#0x00,#0x40,#0x00	; 4194344
   BFB8 00 09 01 00        7255 	.byte #0x00,#0x09,#0x01,#0x00	; 67840
   BFBC 00 10 05 00        7256 	.byte #0x00,#0x10,#0x05,#0x00	; 331776
   BFC0 00 40 42 00        7257 	.byte #0x00,#0x40,#0x42,#0x00	; 4341760
   BFC4 40 20 20 00        7258 	.byte #0x40,#0x20,#0x20,#0x00	; 2105408
   BFC8 10 80 10 00        7259 	.byte #0x10,#0x80,#0x10,#0x00	; 1081360
   BFCC 22 00 40 00        7260 	.byte #0x22,#0x00,#0x40,#0x00	; 4194338
   BFD0 40 00 14 00        7261 	.byte #0x40,#0x00,#0x14,#0x00	; 1310784
   BFD4 20 00 40 00        7262 	.byte #0x20,#0x00,#0x40,#0x00	; 4194336
   BFD8 21 00 40 00        7263 	.byte #0x21,#0x00,#0x40,#0x00	; 4194337
   BFDC 00 88 08 00        7264 	.byte #0x00,#0x88,#0x08,#0x00	; 559104
   BFE0 00 05 20 00        7265 	.byte #0x00,#0x05,#0x20,#0x00	; 2098432
   BFE4 24 00 40 00        7266 	.byte #0x24,#0x00,#0x40,#0x00	; 4194340
   BFE8 80 12 00 00        7267 	.byte #0x80,#0x12,#0x00,#0x00	; 4736
   BFEC 20 06 00 00        7268 	.byte #0x20,#0x06,#0x00,#0x00	; 1568
   BFF0 00 01 06 00        7269 	.byte #0x00,#0x01,#0x06,#0x00	; 393472
   BFF4 18 00 40 00        7270 	.byte #0x18,#0x00,#0x40,#0x00	; 4194328
   BFF8 C0 40 00 00        7271 	.byte #0xC0,#0x40,#0x00,#0x00	; 16576
   BFFC 00 40 28 00        7272 	.byte #0x00,#0x40,#0x28,#0x00	; 2637824
   C000 08 20 01 00        7273 	.byte #0x08,#0x20,#0x01,#0x00	; 73736
   C004 00 18 02 00        7274 	.byte #0x00,#0x18,#0x02,#0x00	; 137216
   C008 20 80 10 00        7275 	.byte #0x20,#0x80,#0x10,#0x00	; 1081376
   C00C 12 00 40 00        7276 	.byte #0x12,#0x00,#0x40,#0x00	; 4194322
   C010 04 20 01 00        7277 	.byte #0x04,#0x20,#0x01,#0x00	; 73732
   C014 10 00 40 00        7278 	.byte #0x10,#0x00,#0x40,#0x00	; 4194320
   C018 11 00 40 00        7279 	.byte #0x11,#0x00,#0x40,#0x00	; 4194321
   C01C 01 20 01 00        7280 	.byte #0x01,#0x20,#0x01,#0x00	; 73729
   C020 00 20 01 00        7281 	.byte #0x00,#0x20,#0x01,#0x00	; 73728
   C024 14 00 40 00        7282 	.byte #0x14,#0x00,#0x40,#0x00	; 4194324
   C028 02 20 01 00        7283 	.byte #0x02,#0x20,#0x01,#0x00	; 73730
   C02C 0A 00 40 00        7284 	.byte #0x0A,#0x00,#0x40,#0x00	; 4194314
   C030 00 90 20 00        7285 	.byte #0x00,#0x90,#0x20,#0x00	; 2134016
   C034 08 00 40 00        7286 	.byte #0x08,#0x00,#0x40,#0x00	; 4194312
   C038 09 00 40 00        7287 	.byte #0x09,#0x00,#0x40,#0x00	; 4194313
   C03C 80 01 10 00        7288 	.byte #0x80,#0x01,#0x10,#0x00	; 1048960
   C040 40 0A 00 00        7289 	.byte #0x40,#0x0A,#0x00,#0x00	; 2624
   C044 0C 00 40 00        7290 	.byte #0x0C,#0x00,#0x40,#0x00	; 4194316
   C048 00 04 0C 00        7291 	.byte #0x00,#0x04,#0x0C,#0x00	; 787456
   C04C 02 00 40 00        7292 	.byte #0x02,#0x00,#0x40,#0x00	; 4194306
   C050 03 00 40 00        7293 	.byte #0x03,#0x00,#0x40,#0x00	; 4194307
   C054 00 00 40 00        7294 	.byte #0x00,#0x00,#0x40,#0x00	; 4194304
   C058 01 00 40 00        7295 	.byte #0x01,#0x00,#0x40,#0x00	; 4194305
   C05C 06 00 40 00        7296 	.byte #0x06,#0x00,#0x40,#0x00	; 4194310
   C060 10 20 01 00        7297 	.byte #0x10,#0x20,#0x01,#0x00	; 73744
   C064 04 00 40 00        7298 	.byte #0x04,#0x00,#0x40,#0x00	; 4194308
   C068 05 00 40 00        7299 	.byte #0x05,#0x00,#0x40,#0x00	; 4194309
   C06C 40 06 00 00        7300 	.byte #0x40,#0x06,#0x00,#0x00	; 1600
   C070 00 00 61 00        7301 	.byte #0x00,#0x00,#0x61,#0x00	; 6356992
   C074 00 08 0C 00        7302 	.byte #0x00,#0x08,#0x0C,#0x00	; 788480
   C078 A0 40 00 00        7303 	.byte #0xA0,#0x40,#0x00,#0x00	; 16544
   C07C 88 00 02 00        7304 	.byte #0x88,#0x00,#0x02,#0x00	; 131208
   C080 00 11 08 00        7305 	.byte #0x00,#0x11,#0x08,#0x00	; 528640
   C084 10 20 20 00        7306 	.byte #0x10,#0x20,#0x20,#0x00	; 2105360
   C088 40 80 10 00        7307 	.byte #0x40,#0x80,#0x10,#0x00	; 1081408
   C08C 84 00 02 00        7308 	.byte #0x84,#0x00,#0x02,#0x00	; 131204
   C090 10 00 14 00        7309 	.byte #0x10,#0x00,#0x14,#0x00	; 1310736
   C094 00 90 01 00        7310 	.byte #0x00,#0x90,#0x01,#0x00	; 102400
   C098 00 23 00 00        7311 	.byte #0x00,#0x23,#0x00,#0x00	; 8960
   C09C 80 00 02 00        7312 	.byte #0x80,#0x00,#0x02,#0x00	; 131200
   C0A0 81 00 02 00        7313 	.byte #0x81,#0x00,#0x02,#0x00	; 131201
   C0A4 82 00 02 00        7314 	.byte #0x82,#0x00,#0x02,#0x00	; 131202
   C0A8 00 0C 40 00        7315 	.byte #0x00,#0x0C,#0x40,#0x00	; 4197376
   C0AC 00 C1 00 00        7316 	.byte #0x00,#0xC1,#0x00,#0x00	; 49408
   C0B0 08 00 14 00        7317 	.byte #0x08,#0x00,#0x14,#0x00	; 1310728
   C0B4 04 20 20 00        7318 	.byte #0x04,#0x20,#0x20,#0x00	; 2105348
   C0B8 00 14 02 00        7319 	.byte #0x00,#0x14,#0x02,#0x00	; 136192
   C0BC 02 20 20 00        7320 	.byte #0x02,#0x20,#0x20,#0x00	; 2105346
   C0C0 20 0A 00 00        7321 	.byte #0x20,#0x0A,#0x00,#0x00	; 2592
   C0C4 00 20 20 00        7322 	.byte #0x00,#0x20,#0x20,#0x00	; 2105344
   C0C8 01 20 20 00        7323 	.byte #0x01,#0x20,#0x20,#0x00	; 2105345
   C0CC 01 00 14 00        7324 	.byte #0x01,#0x00,#0x14,#0x00	; 1310721
   C0D0 00 00 14 00        7325 	.byte #0x00,#0x00,#0x14,#0x00	; 1310720
   C0D4 60 00 40 00        7326 	.byte #0x60,#0x00,#0x40,#0x00	; 4194400
   C0D8 02 00 14 00        7327 	.byte #0x02,#0x00,#0x14,#0x00	; 1310722
   C0DC 90 00 02 00        7328 	.byte #0x90,#0x00,#0x02,#0x00	; 131216
   C0E0 04 00 14 00        7329 	.byte #0x04,#0x00,#0x14,#0x00	; 1310724
   C0E4 08 20 20 00        7330 	.byte #0x08,#0x20,#0x20,#0x00	; 2105352
   C0E8 00 40 09 00        7331 	.byte #0x00,#0x40,#0x09,#0x00	; 606208
   C0EC 00 30 10 00        7332 	.byte #0x00,#0x30,#0x10,#0x00	; 1060864
   C0F0 82 40 00 00        7333 	.byte #0x82,#0x40,#0x00,#0x00	; 16514
   C0F4 81 40 00 00        7334 	.byte #0x81,#0x40,#0x00,#0x00	; 16513
   C0F8 80 40 00 00        7335 	.byte #0x80,#0x40,#0x00,#0x00	; 16512
   C0FC 00 80 44 00        7336 	.byte #0x00,#0x80,#0x44,#0x00	; 4489216
   C100 10 0A 00 00        7337 	.byte #0x10,#0x0A,#0x00,#0x00	; 2576
   C104 00 05 01 00        7338 	.byte #0x00,#0x05,#0x01,#0x00	; 66816
   C108 84 40 00 00        7339 	.byte #0x84,#0x40,#0x00,#0x00	; 16516
   C10C 00 09 20 00        7340 	.byte #0x00,#0x09,#0x20,#0x00	; 2099456
   C110 00 84 08 00        7341 	.byte #0x00,#0x84,#0x08,#0x00	; 558080
   C114 50 00 40 00        7342 	.byte #0x50,#0x00,#0x40,#0x00	; 4194384
   C118 88 40 00 00        7343 	.byte #0x88,#0x40,#0x00,#0x00	; 16520
   C11C A0 00 02 00        7344 	.byte #0xA0,#0x00,#0x02,#0x00	; 131232
   C120 40 20 01 00        7345 	.byte #0x40,#0x20,#0x01,#0x00	; 73792
   C124 00 02 18 00        7346 	.byte #0x00,#0x02,#0x18,#0x00	; 1573376
   C128 00 10 24 00        7347 	.byte #0x00,#0x10,#0x24,#0x00	; 2363392
   C12C 00 00 0B 00        7348 	.byte #0x00,#0x00,#0x0B,#0x00	; 720896
   C130 04 0A 00 00        7349 	.byte #0x04,#0x0A,#0x00,#0x00	; 2564
   C134 48 00 40 00        7350 	.byte #0x48,#0x00,#0x40,#0x00	; 4194376
   C138 90 40 00 00        7351 	.byte #0x90,#0x40,#0x00,#0x00	; 16528
   C13C 01 0A 00 00        7352 	.byte #0x01,#0x0A,#0x00,#0x00	; 2561
   C140 00 0A 00 00        7353 	.byte #0x00,#0x0A,#0x00,#0x00	; 2560
   C144 20 20 20 00        7354 	.byte #0x20,#0x20,#0x20,#0x00	; 2105376
   C148 02 0A 00 00        7355 	.byte #0x02,#0x0A,#0x00,#0x00	; 2562
   C14C 42 00 40 00        7356 	.byte #0x42,#0x00,#0x40,#0x00	; 4194370
   C150 20 00 14 00        7357 	.byte #0x20,#0x00,#0x14,#0x00	; 1310752
   C154 40 00 40 00        7358 	.byte #0x40,#0x00,#0x40,#0x00	; 4194368
   C158 41 00 40 00        7359 	.byte #0x41,#0x00,#0x40,#0x00	; 4194369
   C15C 00 54 00 00        7360 	.byte #0x00,#0x54,#0x00,#0x00	; 21504
   C160 08 0A 00 00        7361 	.byte #0x08,#0x0A,#0x00,#0x00	; 2568
   C164 44 00 40 00        7362 	.byte #0x44,#0x00,#0x40,#0x00	; 4194372
   C168 00 81 02 00        7363 	.byte #0x00,#0x81,#0x02,#0x00	; 164096
   C16C 80 06 00 00        7364 	.byte #0x80,#0x06,#0x00,#0x00	; 1664
   C170 10 20 08 00        7365 	.byte #0x10,#0x20,#0x08,#0x00	; 532496
   C174 00 11 20 00        7366 	.byte #0x00,#0x11,#0x20,#0x00	; 2101504
   C178 60 40 00 00        7367 	.byte #0x60,#0x40,#0x00,#0x00	; 16480
   C17C 48 00 02 00        7368 	.byte #0x48,#0x00,#0x02,#0x00	; 131144
   C180 00 08 24 00        7369 	.byte #0x00,#0x08,#0x24,#0x00	; 2361344
   C184 00 00 49 00        7370 	.byte #0x00,#0x00,#0x49,#0x00	; 4784128
   C188 80 80 10 00        7371 	.byte #0x80,#0x80,#0x10,#0x00	; 1081472
   C18C 44 00 02 00        7372 	.byte #0x44,#0x00,#0x02,#0x00	; 131140
   C190 00 81 40 00        7373 	.byte #0x00,#0x81,#0x40,#0x00	; 4227328
   C194 00 28 10 00        7374 	.byte #0x00,#0x28,#0x10,#0x00	; 1058816
   C198 00 04 05 00        7375 	.byte #0x00,#0x04,#0x05,#0x00	; 328704
   C19C 40 00 02 00        7376 	.byte #0x40,#0x00,#0x02,#0x00	; 131136
   C1A0 41 00 02 00        7377 	.byte #0x41,#0x00,#0x02,#0x00	; 131137
   C1A4 42 00 02 00        7378 	.byte #0x42,#0x00,#0x02,#0x00	; 131138
   C1A8 10 12 00 00        7379 	.byte #0x10,#0x12,#0x00,#0x00	; 4624
   C1AC 01 20 08 00        7380 	.byte #0x01,#0x20,#0x08,#0x00	; 532481
   C1B0 00 20 08 00        7381 	.byte #0x00,#0x20,#0x08,#0x00	; 532480
   C1B4 00 80 06 00        7382 	.byte #0x00,#0x80,#0x06,#0x00	; 425984
   C1B8 02 20 08 00        7383 	.byte #0x02,#0x20,#0x08,#0x00	; 532482
   C1BC 20 01 10 00        7384 	.byte #0x20,#0x01,#0x10,#0x00	; 1048864
   C1C0 04 20 08 00        7385 	.byte #0x04,#0x20,#0x08,#0x00	; 532484
   C1C4 00 4C 00 00        7386 	.byte #0x00,#0x4C,#0x00,#0x00	; 19456
   C1C8 08 12 00 00        7387 	.byte #0x08,#0x12,#0x00,#0x00	; 4616
   C1CC 00 40 21 00        7388 	.byte #0x00,#0x40,#0x21,#0x00	; 2179072
   C1D0 08 20 08 00        7389 	.byte #0x08,#0x20,#0x08,#0x00	; 532488
   C1D4 A0 00 40 00        7390 	.byte #0xA0,#0x00,#0x40,#0x00	; 4194464
   C1D8 04 12 00 00        7391 	.byte #0x04,#0x12,#0x00,#0x00	; 4612
   C1DC 50 00 02 00        7392 	.byte #0x50,#0x00,#0x02,#0x00	; 131152
   C1E0 02 12 00 00        7393 	.byte #0x02,#0x12,#0x00,#0x00	; 4610
   C1E4 01 12 00 00        7394 	.byte #0x01,#0x12,#0x00,#0x00	; 4609
   C1E8 00 12 00 00        7395 	.byte #0x00,#0x12,#0x00,#0x00	; 4608
   C1EC 00 88 01 00        7396 	.byte #0x00,#0x88,#0x01,#0x00	; 100352
   C1F0 42 40 00 00        7397 	.byte #0x42,#0x40,#0x00,#0x00	; 16450
   C1F4 41 40 00 00        7398 	.byte #0x41,#0x40,#0x00,#0x00	; 16449
   C1F8 40 40 00 00        7399 	.byte #0x40,#0x40,#0x00,#0x00	; 16448
   C1FC 10 01 10 00        7400 	.byte #0x10,#0x01,#0x10,#0x00	; 1048848
   C200 00 14 40 00        7401 	.byte #0x00,#0x14,#0x40,#0x00	; 4199424
   C204 00 22 04 00        7402 	.byte #0x00,#0x22,#0x04,#0x00	; 270848
   C208 44 40 00 00        7403 	.byte #0x44,#0x40,#0x00,#0x00	; 16452
   C20C 00 10 0C 00        7404 	.byte #0x00,#0x10,#0x0C,#0x00	; 790528
   C210 00 02 30 00        7405 	.byte #0x00,#0x02,#0x30,#0x00	; 3146240
   C214 90 00 40 00        7406 	.byte #0x90,#0x00,#0x40,#0x00	; 4194448
   C218 48 40 00 00        7407 	.byte #0x48,#0x40,#0x00,#0x00	; 16456
   C21C 60 00 02 00        7408 	.byte #0x60,#0x00,#0x02,#0x00	; 131168
   C220 80 20 01 00        7409 	.byte #0x80,#0x20,#0x01,#0x00	; 73856
   C224 00 84 20 00        7410 	.byte #0x00,#0x84,#0x20,#0x00	; 2130944
   C228 00 09 08 00        7411 	.byte #0x00,#0x09,#0x08,#0x00	; 526592
   C22C 04 01 10 00        7412 	.byte #0x04,#0x01,#0x10,#0x00	; 1048836
   C230 20 20 08 00        7413 	.byte #0x20,#0x20,#0x08,#0x00	; 532512
   C234 88 00 40 00        7414 	.byte #0x88,#0x00,#0x40,#0x00	; 4194440
   C238 50 40 00 00        7415 	.byte #0x50,#0x40,#0x00,#0x00	; 16464
   C23C 00 01 10 00        7416 	.byte #0x00,#0x01,#0x10,#0x00	; 1048832
   C240 01 01 10 00        7417 	.byte #0x01,#0x01,#0x10,#0x00	; 1048833
   C244 02 01 10 00        7418 	.byte #0x02,#0x01,#0x10,#0x00	; 1048834
   C248 00 00 23 00        7419 	.byte #0x00,#0x00,#0x23,#0x00	; 2293760
   C24C 82 00 40 00        7420 	.byte #0x82,#0x00,#0x40,#0x00	; 4194434
   C250 00 0C 02 00        7421 	.byte #0x00,#0x0C,#0x02,#0x00	; 134144
   C254 80 00 40 00        7422 	.byte #0x80,#0x00,#0x40,#0x00	; 4194432
   C258 81 00 40 00        7423 	.byte #0x81,#0x00,#0x40,#0x00	; 4194433
   C25C 08 01 10 00        7424 	.byte #0x08,#0x01,#0x10,#0x00	; 1048840
   C260 00 C0 04 00        7425 	.byte #0x00,#0xC0,#0x04,#0x00	; 311296
   C264 84 00 40 00        7426 	.byte #0x84,#0x00,#0x40,#0x00	; 4194436
   C268 20 12 00 00        7427 	.byte #0x20,#0x12,#0x00,#0x00	; 4640
   C26C 0C 00 02 00        7428 	.byte #0x0C,#0x00,#0x02,#0x00	; 131084
   C270 22 40 00 00        7429 	.byte #0x22,#0x40,#0x00,#0x00	; 16418
   C274 21 40 00 00        7430 	.byte #0x21,#0x40,#0x00,#0x00	; 16417
   C278 20 40 00 00        7431 	.byte #0x20,#0x40,#0x00,#0x00	; 16416
   C27C 08 00 02 00        7432 	.byte #0x08,#0x00,#0x02,#0x00	; 131080
   C280 09 00 02 00        7433 	.byte #0x09,#0x00,#0x02,#0x00	; 131081
   C284 0A 00 02 00        7434 	.byte #0x0A,#0x00,#0x02,#0x00	; 131082
   C288 24 40 00 00        7435 	.byte #0x24,#0x40,#0x00,#0x00	; 16420
   C28C 04 00 02 00        7436 	.byte #0x04,#0x00,#0x02,#0x00	; 131076
   C290 05 00 02 00        7437 	.byte #0x05,#0x00,#0x02,#0x00	; 131077
   C294 06 00 02 00        7438 	.byte #0x06,#0x00,#0x02,#0x00	; 131078
   C298 28 40 00 00        7439 	.byte #0x28,#0x40,#0x00,#0x00	; 16424
   C29C 00 00 02 00        7440 	.byte #0x00,#0x00,#0x02,#0x00	; 131072
   C2A0 01 00 02 00        7441 	.byte #0x01,#0x00,#0x02,#0x00	; 131073
   C2A4 02 00 02 00        7442 	.byte #0x02,#0x00,#0x02,#0x00	; 131074
   C2A8 03 00 02 00        7443 	.byte #0x03,#0x00,#0x02,#0x00	; 131075
   C2AC 00 18 40 00        7444 	.byte #0x00,#0x18,#0x40,#0x00	; 4200448
   C2B0 40 20 08 00        7445 	.byte #0x40,#0x20,#0x08,#0x00	; 532544
   C2B4 00 02 11 00        7446 	.byte #0x00,#0x02,#0x11,#0x00	; 1114624
   C2B8 30 40 00 00        7447 	.byte #0x30,#0x40,#0x00,#0x00	; 16432
   C2BC 18 00 02 00        7448 	.byte #0x18,#0x00,#0x02,#0x00	; 131096
   C2C0 00 84 01 00        7449 	.byte #0x00,#0x84,#0x01,#0x00	; 99328
   C2C4 80 20 20 00        7450 	.byte #0x80,#0x20,#0x20,#0x00	; 2105472
   C2C8 00 01 44 00        7451 	.byte #0x00,#0x01,#0x44,#0x00	; 4456704
   C2CC 14 00 02 00        7452 	.byte #0x14,#0x00,#0x02,#0x00	; 131092
   C2D0 80 00 14 00        7453 	.byte #0x80,#0x00,#0x14,#0x00	; 1310848
   C2D4 00 05 08 00        7454 	.byte #0x00,#0x05,#0x08,#0x00	; 525568
   C2D8 00 88 20 00        7455 	.byte #0x00,#0x88,#0x20,#0x00	; 2131968
   C2DC 10 00 02 00        7456 	.byte #0x10,#0x00,#0x02,#0x00	; 131088
   C2E0 11 00 02 00        7457 	.byte #0x11,#0x00,#0x02,#0x00	; 131089
   C2E4 12 00 02 00        7458 	.byte #0x12,#0x00,#0x02,#0x00	; 131090
   C2E8 40 12 00 00        7459 	.byte #0x40,#0x12,#0x00,#0x00	; 4672
   C2EC 03 40 00 00        7460 	.byte #0x03,#0x40,#0x00,#0x00	; 16387
   C2F0 02 40 00 00        7461 	.byte #0x02,#0x40,#0x00,#0x00	; 16386
   C2F4 01 40 00 00        7462 	.byte #0x01,#0x40,#0x00,#0x00	; 16385
   C2F8 00 40 00 00        7463 	.byte #0x00,#0x40,#0x00,#0x00	; 16384
   C2FC 28 00 02 00        7464 	.byte #0x28,#0x00,#0x02,#0x00	; 131112
   C300 06 40 00 00        7465 	.byte #0x06,#0x40,#0x00,#0x00	; 16390
   C304 05 40 00 00        7466 	.byte #0x05,#0x40,#0x00,#0x00	; 16389
   C308 04 40 00 00        7467 	.byte #0x04,#0x40,#0x00,#0x00	; 16388
   C30C 24 00 02 00        7468 	.byte #0x24,#0x00,#0x02,#0x00	; 131108
   C310 0A 40 00 00        7469 	.byte #0x0A,#0x40,#0x00,#0x00	; 16394
   C314 09 40 00 00        7470 	.byte #0x09,#0x40,#0x00,#0x00	; 16393
   C318 08 40 00 00        7471 	.byte #0x08,#0x40,#0x00,#0x00	; 16392
   C31C 20 00 02 00        7472 	.byte #0x20,#0x00,#0x02,#0x00	; 131104
   C320 21 00 02 00        7473 	.byte #0x21,#0x00,#0x02,#0x00	; 131105
   C324 22 00 02 00        7474 	.byte #0x22,#0x00,#0x02,#0x00	; 131106
   C328 0C 40 00 00        7475 	.byte #0x0C,#0x40,#0x00,#0x00	; 16396
   C32C 00 04 24 00        7476 	.byte #0x00,#0x04,#0x24,#0x00	; 2360320
   C330 12 40 00 00        7477 	.byte #0x12,#0x40,#0x00,#0x00	; 16402
   C334 11 40 00 00        7478 	.byte #0x11,#0x40,#0x00,#0x00	; 16401
   C338 10 40 00 00        7479 	.byte #0x10,#0x40,#0x00,#0x00	; 16400
   C33C 40 01 10 00        7480 	.byte #0x40,#0x01,#0x10,#0x00	; 1048896
   C340 80 0A 00 00        7481 	.byte #0x80,#0x0A,#0x00,#0x00	; 2688
   C344 00 90 08 00        7482 	.byte #0x00,#0x90,#0x08,#0x00	; 561152
   C348 14 40 00 00        7483 	.byte #0x14,#0x40,#0x00,#0x00	; 16404
   C34C 00 A2 00 00        7484 	.byte #0x00,#0xA2,#0x00,#0x00	; 41472
   C350 00 11 01 00        7485 	.byte #0x00,#0x11,#0x01,#0x00	; 69888
   C354 C0 00 40 00        7486 	.byte #0xC0,#0x00,#0x40,#0x00	; 4194496
   C358 18 40 00 00        7487 	.byte #0x18,#0x40,#0x00,#0x00	; 16408
   C35C 30 00 02 00        7488 	.byte #0x30,#0x00,#0x02,#0x00	; 131120
   C360 00 00 68 00        7489 	.byte #0x00,#0x00,#0x68,#0x00	; 6815744
   C364 00 08 05 00        7490 	.byte #0x00,#0x08,#0x05,#0x00	; 329728
   C368 00 24 10 00        7491 	.byte #0x00,#0x24,#0x10,#0x00	; 1057792
   C36C 00 07 00 00        7492 	.byte #0x00,#0x07,#0x00,#0x00	; 1792
   C370 20 00 06 00        7493 	.byte #0x20,#0x00,#0x06,#0x00	; 393248
   C374 80 10 20 00        7494 	.byte #0x80,#0x10,#0x20,#0x00	; 2101376
   C378 10 08 01 00        7495 	.byte #0x10,#0x08,#0x01,#0x00	; 67600
   C37C 00 28 40 00        7496 	.byte #0x00,#0x28,#0x40,#0x00	; 4204544
   C380 40 10 08 00        7497 	.byte #0x40,#0x10,#0x08,#0x00	; 528448
   C384 08 40 04 00        7498 	.byte #0x08,#0x40,#0x04,#0x00	; 278536
   C388 00 81 10 00        7499 	.byte #0x00,#0x81,#0x10,#0x00	; 1081600
   C38C 00 00 19 00        7500 	.byte #0x00,#0x00,#0x19,#0x00	; 1638400
   C390 80 80 40 00        7501 	.byte #0x80,#0x80,#0x40,#0x00	; 4227200
   C394 04 40 04 00        7502 	.byte #0x04,#0x40,#0x04,#0x00	; 278532
   C398 40 22 00 00        7503 	.byte #0x40,#0x22,#0x00,#0x00	; 8768
   C39C 02 40 04 00        7504 	.byte #0x02,#0x40,#0x04,#0x00	; 278530
   C3A0 10 04 20 00        7505 	.byte #0x10,#0x04,#0x20,#0x00	; 2098192
   C3A4 00 40 04 00        7506 	.byte #0x00,#0x40,#0x04,#0x00	; 278528
   C3A8 01 40 04 00        7507 	.byte #0x01,#0x40,#0x04,#0x00	; 278529
   C3AC 40 C0 00 00        7508 	.byte #0x40,#0xC0,#0x00,#0x00	; 49216
   C3B0 02 08 01 00        7509 	.byte #0x02,#0x08,#0x01,#0x00	; 67586
   C3B4 01 08 01 00        7510 	.byte #0x01,#0x08,#0x01,#0x00	; 67585
   C3B8 00 08 01 00        7511 	.byte #0x00,#0x08,#0x01,#0x00	; 67584
   C3BC A0 00 10 00        7512 	.byte #0xA0,#0x00,#0x10,#0x00	; 1048736
   C3C0 08 04 20 00        7513 	.byte #0x08,#0x04,#0x20,#0x00	; 2098184
   C3C4 00 02 0A 00        7514 	.byte #0x00,#0x02,#0x0A,#0x00	; 655872
   C3C8 04 08 01 00        7515 	.byte #0x04,#0x08,#0x01,#0x00	; 67588
   C3CC 00 30 02 00        7516 	.byte #0x00,#0x30,#0x02,#0x00	; 143360
   C3D0 04 04 20 00        7517 	.byte #0x04,#0x04,#0x20,#0x00	; 2098180
   C3D4 20 01 40 00        7518 	.byte #0x20,#0x01,#0x40,#0x00	; 4194592
   C3D8 08 08 01 00        7519 	.byte #0x08,#0x08,#0x01,#0x00	; 67592
   C3DC 01 04 20 00        7520 	.byte #0x01,#0x04,#0x20,#0x00	; 2098177
   C3E0 00 04 20 00        7521 	.byte #0x00,#0x04,#0x20,#0x00	; 2098176
   C3E4 10 40 04 00        7522 	.byte #0x10,#0x40,#0x04,#0x00	; 278544
   C3E8 02 04 20 00        7523 	.byte #0x02,#0x04,#0x20,#0x00	; 2098178
   C3EC 01 00 06 00        7524 	.byte #0x01,#0x00,#0x06,#0x00	; 393217
   C3F0 00 00 06 00        7525 	.byte #0x00,#0x00,#0x06,#0x00	; 393216
   C3F4 00 A0 08 00        7526 	.byte #0x00,#0xA0,#0x08,#0x00	; 565248
   C3F8 02 00 06 00        7527 	.byte #0x02,#0x00,#0x06,#0x00	; 393218
   C3FC 90 00 10 00        7528 	.byte #0x90,#0x00,#0x10,#0x00	; 1048720
   C400 04 00 06 00        7529 	.byte #0x04,#0x00,#0x06,#0x00	; 393220
   C404 40 04 01 00        7530 	.byte #0x40,#0x04,#0x01,#0x00	; 66624
   C408 00 02 60 00        7531 	.byte #0x00,#0x02,#0x60,#0x00	; 6291968
   C40C 40 08 20 00        7532 	.byte #0x40,#0x08,#0x20,#0x00	; 2099264
   C410 08 00 06 00        7533 	.byte #0x08,#0x00,#0x06,#0x00	; 393224
   C414 10 01 40 00        7534 	.byte #0x10,#0x01,#0x40,#0x00	; 4194576
   C418 00 14 10 00        7535 	.byte #0x00,#0x14,#0x10,#0x00	; 1053696
   C41C 00 92 00 00        7536 	.byte #0x00,#0x92,#0x00,#0x00	; 37376
   C420 00 21 01 00        7537 	.byte #0x00,#0x21,#0x01,#0x00	; 73984
   C424 20 40 04 00        7538 	.byte #0x20,#0x40,#0x04,#0x00	; 278560
   C428 80 08 08 00        7539 	.byte #0x80,#0x08,#0x08,#0x00	; 526464
   C42C 84 00 10 00        7540 	.byte #0x84,#0x00,#0x10,#0x00	; 1048708
   C430 10 00 06 00        7541 	.byte #0x10,#0x00,#0x06,#0x00	; 393232
   C434 08 01 40 00        7542 	.byte #0x08,#0x01,#0x40,#0x00	; 4194568
   C438 20 08 01 00        7543 	.byte #0x20,#0x08,#0x01,#0x00	; 67616
   C43C 80 00 10 00        7544 	.byte #0x80,#0x00,#0x10,#0x00	; 1048704
   C440 81 00 10 00        7545 	.byte #0x81,#0x00,#0x10,#0x00	; 1048705
   C444 82 00 10 00        7546 	.byte #0x82,#0x00,#0x10,#0x00	; 1048706
   C448 00 70 00 00        7547 	.byte #0x00,#0x70,#0x00,#0x00	; 28672
   C44C 02 01 40 00        7548 	.byte #0x02,#0x01,#0x40,#0x00	; 4194562
   C450 00 42 08 00        7549 	.byte #0x00,#0x42,#0x08,#0x00	; 541184
   C454 00 01 40 00        7550 	.byte #0x00,#0x01,#0x40,#0x00	; 4194560
   C458 01 01 40 00        7551 	.byte #0x01,#0x01,#0x40,#0x00	; 4194561
   C45C 88 00 10 00        7552 	.byte #0x88,#0x00,#0x10,#0x00	; 1048712
   C460 20 04 20 00        7553 	.byte #0x20,#0x04,#0x20,#0x00	; 2098208
   C464 04 01 40 00        7554 	.byte #0x04,#0x01,#0x40,#0x00	; 4194564
   C468 40 80 02 00        7555 	.byte #0x40,#0x80,#0x02,#0x00	; 163904
   C46C 10 C0 00 00        7556 	.byte #0x10,#0xC0,#0x00,#0x00	; 49168
   C470 04 10 08 00        7557 	.byte #0x04,#0x10,#0x08,#0x00	; 528388
   C474 00 00 52 00        7558 	.byte #0x00,#0x00,#0x52,#0x00	; 5373952
   C478 08 22 00 00        7559 	.byte #0x08,#0x22,#0x00,#0x00	; 8712
   C47C 01 10 08 00        7560 	.byte #0x01,#0x10,#0x08,#0x00	; 528385
   C480 00 10 08 00        7561 	.byte #0x00,#0x10,#0x08,#0x00	; 528384
   C484 20 04 01 00        7562 	.byte #0x20,#0x04,#0x01,#0x00	; 66592
   C488 02 10 08 00        7563 	.byte #0x02,#0x10,#0x08,#0x00	; 528386
   C48C 20 08 20 00        7564 	.byte #0x20,#0x08,#0x20,#0x00	; 2099232
   C490 02 22 00 00        7565 	.byte #0x02,#0x22,#0x00,#0x00	; 8706
   C494 01 22 00 00        7566 	.byte #0x01,#0x22,#0x00,#0x00	; 8705
   C498 00 22 00 00        7567 	.byte #0x00,#0x22,#0x00,#0x00	; 8704
   C49C 80 01 02 00        7568 	.byte #0x80,#0x01,#0x02,#0x00	; 131456
   C4A0 08 10 08 00        7569 	.byte #0x08,#0x10,#0x08,#0x00	; 528392
   C4A4 40 40 04 00        7570 	.byte #0x40,#0x40,#0x04,#0x00	; 278592
   C4A8 04 22 00 00        7571 	.byte #0x04,#0x22,#0x00,#0x00	; 8708
   C4AC 00 C0 00 00        7572 	.byte #0x00,#0xC0,#0x00,#0x00	; 49152
   C4B0 01 C0 00 00        7573 	.byte #0x01,#0xC0,#0x00,#0x00	; 49153
   C4B4 02 C0 00 00        7574 	.byte #0x02,#0xC0,#0x00,#0x00	; 49154
   C4B8 40 08 01 00        7575 	.byte #0x40,#0x08,#0x01,#0x00	; 67648
   C4BC 04 C0 00 00        7576 	.byte #0x04,#0xC0,#0x00,#0x00	; 49156
   C4C0 10 10 08 00        7577 	.byte #0x10,#0x10,#0x08,#0x00	; 528400
   C4C4 00 21 20 00        7578 	.byte #0x00,#0x21,#0x20,#0x00	; 2105600
   C4C8 80 00 44 00        7579 	.byte #0x80,#0x00,#0x44,#0x00	; 4456576
   C4CC 08 C0 00 00        7580 	.byte #0x08,#0xC0,#0x00,#0x00	; 49160
   C4D0 00 01 14 00        7581 	.byte #0x00,#0x01,#0x14,#0x00	; 1310976
   C4D4 80 04 08 00        7582 	.byte #0x80,#0x04,#0x08,#0x00	; 525440
   C4D8 10 22 00 00        7583 	.byte #0x10,#0x22,#0x00,#0x00	; 8720
   C4DC 00 02 41 00        7584 	.byte #0x00,#0x02,#0x41,#0x00	; 4260352
   C4E0 40 04 20 00        7585 	.byte #0x40,#0x04,#0x20,#0x00	; 2098240
   C4E4 00 18 10 00        7586 	.byte #0x00,#0x18,#0x10,#0x00	; 1054720
   C4E8 20 80 02 00        7587 	.byte #0x20,#0x80,#0x02,#0x00	; 163872
   C4EC 08 08 20 00        7588 	.byte #0x08,#0x08,#0x20,#0x00	; 2099208
   C4F0 40 00 06 00        7589 	.byte #0x40,#0x00,#0x06,#0x00	; 393280
   C4F4 04 04 01 00        7590 	.byte #0x04,#0x04,#0x01,#0x00	; 66564
   C4F8 80 41 00 00        7591 	.byte #0x80,#0x41,#0x00,#0x00	; 16768
   C4FC 02 04 01 00        7592 	.byte #0x02,#0x04,#0x01,#0x00	; 66562
   C500 20 10 08 00        7593 	.byte #0x20,#0x10,#0x08,#0x00	; 528416
   C504 00 04 01 00        7594 	.byte #0x00,#0x04,#0x01,#0x00	; 66560
   C508 01 04 01 00        7595 	.byte #0x01,#0x04,#0x01,#0x00	; 66561
   C50C 00 08 20 00        7596 	.byte #0x00,#0x08,#0x20,#0x00	; 2099200
   C510 01 08 20 00        7597 	.byte #0x01,#0x08,#0x20,#0x00	; 2099201
   C514 02 08 20 00        7598 	.byte #0x02,#0x08,#0x20,#0x00	; 2099202
   C518 20 22 00 00        7599 	.byte #0x20,#0x22,#0x00,#0x00	; 8736
   C51C 04 08 20 00        7600 	.byte #0x04,#0x08,#0x20,#0x00	; 2099204
   C520 00 40 50 00        7601 	.byte #0x00,#0x40,#0x50,#0x00	; 5259264
   C524 08 04 01 00        7602 	.byte #0x08,#0x04,#0x01,#0x00	; 66568
   C528 10 80 02 00        7603 	.byte #0x10,#0x80,#0x02,#0x00	; 163856
   C52C 20 C0 00 00        7604 	.byte #0x20,#0xC0,#0x00,#0x00	; 49184
   C530 00 24 40 00        7605 	.byte #0x00,#0x24,#0x40,#0x00	; 4203520
   C534 00 12 04 00        7606 	.byte #0x00,#0x12,#0x04,#0x00	; 266752
   C538 00 00 38 00        7607 	.byte #0x00,#0x00,#0x38,#0x00	; 3670016
   C53C C0 00 10 00        7608 	.byte #0xC0,#0x00,#0x10,#0x00	; 1048768
   C540 00 0B 00 00        7609 	.byte #0x00,#0x0B,#0x00,#0x00	; 2816
   C544 10 04 01 00        7610 	.byte #0x10,#0x04,#0x01,#0x00	; 66576
   C548 08 80 02 00        7611 	.byte #0x08,#0x80,#0x02,#0x00	; 163848
   C54C 10 08 20 00        7612 	.byte #0x10,#0x08,#0x20,#0x00	; 2099216
   C550 80 10 01 00        7613 	.byte #0x80,#0x10,#0x01,#0x00	; 69760
   C554 40 01 40 00        7614 	.byte #0x40,#0x01,#0x40,#0x00	; 4194624
   C558 04 80 02 00        7615 	.byte #0x04,#0x80,#0x02,#0x00	; 163844
   C55C 00 20 0C 00        7616 	.byte #0x00,#0x20,#0x0C,#0x00	; 794624
   C560 02 80 02 00        7617 	.byte #0x02,#0x80,#0x02,#0x00	; 163842
   C564 01 80 02 00        7618 	.byte #0x01,#0x80,#0x02,#0x00	; 163841
   C568 00 80 02 00        7619 	.byte #0x00,#0x80,#0x02,#0x00	; 163840
   C56C 02 10 20 00        7620 	.byte #0x02,#0x10,#0x20,#0x00	; 2101250
   C570 08 80 40 00        7621 	.byte #0x08,#0x80,#0x40,#0x00	; 4227080
   C574 00 10 20 00        7622 	.byte #0x00,#0x10,#0x20,#0x00	; 2101248
   C578 01 10 20 00        7623 	.byte #0x01,#0x10,#0x20,#0x00	; 2101249
   C57C 30 00 10 00        7624 	.byte #0x30,#0x00,#0x10,#0x00	; 1048624
   C580 00 42 01 00        7625 	.byte #0x00,#0x42,#0x01,#0x00	; 82432
   C584 04 10 20 00        7626 	.byte #0x04,#0x10,#0x20,#0x00	; 2101252
   C588 00 24 02 00        7627 	.byte #0x00,#0x24,#0x02,#0x00	; 140288
   C58C 01 80 40 00        7628 	.byte #0x01,#0x80,#0x40,#0x00	; 4227073
   C590 00 80 40 00        7629 	.byte #0x00,#0x80,#0x40,#0x00	; 4227072
   C594 08 10 20 00        7630 	.byte #0x08,#0x10,#0x20,#0x00	; 2101256
   C598 02 80 40 00        7631 	.byte #0x02,#0x80,#0x40,#0x00	; 4227074
   C59C 40 01 02 00        7632 	.byte #0x40,#0x01,#0x02,#0x00	; 131392
   C5A0 04 80 40 00        7633 	.byte #0x04,#0x80,#0x40,#0x00	; 4227076
   C5A4 80 40 04 00        7634 	.byte #0x80,#0x40,#0x04,#0x00	; 278656
   C5A8 20 08 08 00        7635 	.byte #0x20,#0x08,#0x08,#0x00	; 526368
   C5AC 24 00 10 00        7636 	.byte #0x24,#0x00,#0x10,#0x00	; 1048612
   C5B0 00 21 08 00        7637 	.byte #0x00,#0x21,#0x08,#0x00	; 532736
   C5B4 10 10 20 00        7638 	.byte #0x10,#0x10,#0x20,#0x00	; 2101264
   C5B8 80 08 01 00        7639 	.byte #0x80,#0x08,#0x01,#0x00	; 67712
   C5BC 20 00 10 00        7640 	.byte #0x20,#0x00,#0x10,#0x00	; 1048608
   C5C0 21 00 10 00        7641 	.byte #0x21,#0x00,#0x10,#0x00	; 1048609
   C5C4 22 00 10 00        7642 	.byte #0x22,#0x00,#0x10,#0x00	; 1048610
   C5C8 40 00 44 00        7643 	.byte #0x40,#0x00,#0x44,#0x00	; 4456512
   C5CC 00 0A 04 00        7644 	.byte #0x00,#0x0A,#0x04,#0x00	; 264704
   C5D0 10 80 40 00        7645 	.byte #0x10,#0x80,#0x40,#0x00	; 4227088
   C5D4 40 04 08 00        7646 	.byte #0x40,#0x04,#0x08,#0x00	; 525376
   C5D8 00 40 12 00        7647 	.byte #0x00,#0x40,#0x12,#0x00	; 1196032
   C5DC 28 00 10 00        7648 	.byte #0x28,#0x00,#0x10,#0x00	; 1048616
   C5E0 80 04 20 00        7649 	.byte #0x80,#0x04,#0x20,#0x00	; 2098304
   C5E4 00 A0 01 00        7650 	.byte #0x00,#0xA0,#0x01,#0x00	; 106496
   C5E8 00 13 00 00        7651 	.byte #0x00,#0x13,#0x00,#0x00	; 4864
   C5EC 14 00 10 00        7652 	.byte #0x14,#0x00,#0x10,#0x00	; 1048596
   C5F0 80 00 06 00        7653 	.byte #0x80,#0x00,#0x06,#0x00	; 393344
   C5F4 20 10 20 00        7654 	.byte #0x20,#0x10,#0x20,#0x00	; 2101280
   C5F8 40 41 00 00        7655 	.byte #0x40,#0x41,#0x00,#0x00	; 16704
   C5FC 10 00 10 00        7656 	.byte #0x10,#0x00,#0x10,#0x00	; 1048592
   C600 11 00 10 00        7657 	.byte #0x11,#0x00,#0x10,#0x00	; 1048593
   C604 12 00 10 00        7658 	.byte #0x12,#0x00,#0x10,#0x00	; 1048594
   C608 08 08 08 00        7659 	.byte #0x08,#0x08,#0x08,#0x00	; 526344
   C60C 00 64 00 00        7660 	.byte #0x00,#0x64,#0x00,#0x00	; 25600
   C610 20 80 40 00        7661 	.byte #0x20,#0x80,#0x40,#0x00	; 4227104
   C614 00 02 03 00        7662 	.byte #0x00,#0x02,#0x03,#0x00	; 197120
   C618 04 08 08 00        7663 	.byte #0x04,#0x08,#0x08,#0x00	; 526340
   C61C 18 00 10 00        7664 	.byte #0x18,#0x00,#0x10,#0x00	; 1048600
   C620 02 08 08 00        7665 	.byte #0x02,#0x08,#0x08,#0x00	; 526338
   C624 01 08 08 00        7666 	.byte #0x01,#0x08,#0x08,#0x00	; 526337
   C628 00 08 08 00        7667 	.byte #0x00,#0x08,#0x08,#0x00	; 526336
   C62C 04 00 10 00        7668 	.byte #0x04,#0x00,#0x10,#0x00	; 1048580
   C630 05 00 10 00        7669 	.byte #0x05,#0x00,#0x10,#0x00	; 1048581
   C634 06 00 10 00        7670 	.byte #0x06,#0x00,#0x10,#0x00	; 1048582
   C638 00 86 00 00        7671 	.byte #0x00,#0x86,#0x00,#0x00	; 34304
   C63C 00 00 10 00        7672 	.byte #0x00,#0x00,#0x10,#0x00	; 1048576
   C640 01 00 10 00        7673 	.byte #0x01,#0x00,#0x10,#0x00	; 1048577
   C644 02 00 10 00        7674 	.byte #0x02,#0x00,#0x10,#0x00	; 1048578
   C648 03 00 10 00        7675 	.byte #0x03,#0x00,#0x10,#0x00	; 1048579
   C64C 0C 00 10 00        7676 	.byte #0x0C,#0x00,#0x10,#0x00	; 1048588
   C650 40 10 01 00        7677 	.byte #0x40,#0x10,#0x01,#0x00	; 69696
   C654 80 01 40 00        7678 	.byte #0x80,#0x01,#0x40,#0x00	; 4194688
   C658 00 20 24 00        7679 	.byte #0x00,#0x20,#0x24,#0x00	; 2367488
   C65C 08 00 10 00        7680 	.byte #0x08,#0x00,#0x10,#0x00	; 1048584
   C660 09 00 10 00        7681 	.byte #0x09,#0x00,#0x10,#0x00	; 1048585
   C664 0A 00 10 00        7682 	.byte #0x0A,#0x00,#0x10,#0x00	; 1048586
   C668 10 08 08 00        7683 	.byte #0x10,#0x08,#0x08,#0x00	; 526352
   C66C 00 20 05 00        7684 	.byte #0x00,#0x20,#0x05,#0x00	; 335872
   C670 00 0C 10 00        7685 	.byte #0x00,#0x0C,#0x10,#0x00	; 1051648
   C674 40 10 20 00        7686 	.byte #0x40,#0x10,#0x20,#0x00	; 2101312
   C678 20 41 00 00        7687 	.byte #0x20,#0x41,#0x00,#0x00	; 16672
   C67C 08 01 02 00        7688 	.byte #0x08,#0x01,#0x02,#0x00	; 131336
   C680 80 10 08 00        7689 	.byte #0x80,#0x10,#0x08,#0x00	; 528512
   C684 00 8A 00 00        7690 	.byte #0x00,#0x8A,#0x00,#0x00	; 35328
   C688 10 00 44 00        7691 	.byte #0x10,#0x00,#0x44,#0x00	; 4456464
   C68C 04 01 02 00        7692 	.byte #0x04,#0x01,#0x02,#0x00	; 131332
   C690 40 80 40 00        7693 	.byte #0x40,#0x80,#0x40,#0x00	; 4227136
   C694 10 04 08 00        7694 	.byte #0x10,#0x04,#0x08,#0x00	; 525328
   C698 80 22 00 00        7695 	.byte #0x80,#0x22,#0x00,#0x00	; 8832
   C69C 00 01 02 00        7696 	.byte #0x00,#0x01,#0x02,#0x00	; 131328
   C6A0 01 01 02 00        7697 	.byte #0x01,#0x01,#0x02,#0x00	; 131329
   C6A4 02 01 02 00        7698 	.byte #0x02,#0x01,#0x02,#0x00	; 131330
   C6A8 00 00 31 00        7699 	.byte #0x00,#0x00,#0x31,#0x00	; 3211264
   C6AC 80 C0 00 00        7700 	.byte #0x80,#0xC0,#0x00,#0x00	; 49280
   C6B0 00 02 22 00        7701 	.byte #0x00,#0x02,#0x22,#0x00	; 2228736
   C6B4 08 04 08 00        7702 	.byte #0x08,#0x04,#0x08,#0x00	; 525320
   C6B8 04 00 44 00        7703 	.byte #0x04,#0x00,#0x44,#0x00	; 4456452
   C6BC 60 00 10 00        7704 	.byte #0x60,#0x00,#0x10,#0x00	; 1048672
   C6C0 02 00 44 00        7705 	.byte #0x02,#0x00,#0x44,#0x00	; 4456450
   C6C4 01 00 44 00        7706 	.byte #0x01,#0x00,#0x44,#0x00	; 4456449
   C6C8 00 00 44 00        7707 	.byte #0x00,#0x00,#0x44,#0x00	; 4456448
   C6CC 02 04 08 00        7708 	.byte #0x02,#0x04,#0x08,#0x00	; 525314
   C6D0 20 10 01 00        7709 	.byte #0x20,#0x10,#0x01,#0x00	; 69664
   C6D4 00 04 08 00        7710 	.byte #0x00,#0x04,#0x08,#0x00	; 525312
   C6D8 01 04 08 00        7711 	.byte #0x01,#0x04,#0x08,#0x00	; 525313
   C6DC 10 01 02 00        7712 	.byte #0x10,#0x01,#0x02,#0x00	; 131344
   C6E0 00 68 00 00        7713 	.byte #0x00,#0x68,#0x00,#0x00	; 26624
   C6E4 04 04 08 00        7714 	.byte #0x04,#0x04,#0x08,#0x00	; 525316
   C6E8 08 00 44 00        7715 	.byte #0x08,#0x00,#0x44,#0x00	; 4456456
   C6EC 00 02 48 00        7716 	.byte #0x00,#0x02,#0x48,#0x00	; 4719104
   C6F0 02 41 00 00        7717 	.byte #0x02,#0x41,#0x00,#0x00	; 16642
   C6F4 01 41 00 00        7718 	.byte #0x01,#0x41,#0x00,#0x00	; 16641
   C6F8 00 41 00 00        7719 	.byte #0x00,#0x41,#0x00,#0x00	; 16640
   C6FC 50 00 10 00        7720 	.byte #0x50,#0x00,#0x10,#0x00	; 1048656
   C700 00 A0 20 00        7721 	.byte #0x00,#0xA0,#0x20,#0x00	; 2138112
   C704 80 04 01 00        7722 	.byte #0x80,#0x04,#0x01,#0x00	; 66688
   C708 04 41 00 00        7723 	.byte #0x04,#0x41,#0x00,#0x00	; 16644
   C70C 80 08 20 00        7724 	.byte #0x80,#0x08,#0x20,#0x00	; 2099328
   C710 10 10 01 00        7725 	.byte #0x10,#0x10,#0x01,#0x00	; 69648
   C714 00 80 14 00        7726 	.byte #0x00,#0x80,#0x14,#0x00	; 1343488
   C718 08 41 00 00        7727 	.byte #0x08,#0x41,#0x00,#0x00	; 16648
   C71C 20 01 02 00        7728 	.byte #0x20,#0x01,#0x02,#0x00	; 131360
   C720 00 06 04 00        7729 	.byte #0x00,#0x06,#0x04,#0x00	; 263680
   C724 00 30 40 00        7730 	.byte #0x00,#0x30,#0x40,#0x00	; 4206592
   C728 40 08 08 00        7731 	.byte #0x40,#0x08,#0x08,#0x00	; 526400
   C72C 44 00 10 00        7732 	.byte #0x44,#0x00,#0x10,#0x00	; 1048644
   C730 08 10 01 00        7733 	.byte #0x08,#0x10,#0x01,#0x00	; 69640
   C734 00 28 02 00        7734 	.byte #0x00,#0x28,#0x02,#0x00	; 141312
   C738 10 41 00 00        7735 	.byte #0x10,#0x41,#0x00,#0x00	; 16656
   C73C 40 00 10 00        7736 	.byte #0x40,#0x00,#0x10,#0x00	; 1048640
   C740 41 00 10 00        7737 	.byte #0x41,#0x00,#0x10,#0x00	; 1048641
   C744 42 00 10 00        7738 	.byte #0x42,#0x00,#0x10,#0x00	; 1048642
   C748 20 00 44 00        7739 	.byte #0x20,#0x00,#0x44,#0x00	; 4456480
   C74C 01 10 01 00        7740 	.byte #0x01,#0x10,#0x01,#0x00	; 69633
   C750 00 10 01 00        7741 	.byte #0x00,#0x10,#0x01,#0x00	; 69632
   C754 20 04 08 00        7742 	.byte #0x20,#0x04,#0x08,#0x00	; 525344
   C758 02 10 01 00        7743 	.byte #0x02,#0x10,#0x01,#0x00	; 69634
   C75C 48 00 10 00        7744 	.byte #0x48,#0x00,#0x10,#0x00	; 1048648
   C760 04 10 01 00        7745 	.byte #0x04,#0x10,#0x01,#0x00	; 69636
   C764 00 42 20 00        7746 	.byte #0x00,#0x42,#0x20,#0x00	; 2114048
   C768 80 80 02 00        7747 	.byte #0x80,#0x80,#0x02,#0x00	; 163968
   C76C                    7748 _shift_table:
   C76C 75 0C 00 00        7749 	.byte #0x75,#0x0C,#0x00,#0x00	; 3189
   C770 EA 18 00 00        7750 	.byte #0xEA,#0x18,#0x00,#0x00	; 6378
   C774 D4 31 00 00        7751 	.byte #0xD4,#0x31,#0x00,#0x00	; 12756
   C778 A8 63 00 00        7752 	.byte #0xA8,#0x63,#0x00,#0x00	; 25512
   C77C 50 C7 00 00        7753 	.byte #0x50,#0xC7,#0x00,#0x00	; 51024
   C780 A0 8E 01 00        7754 	.byte #0xA0,#0x8E,#0x01,#0x00	; 102048
   C784 40 1D 03 00        7755 	.byte #0x40,#0x1D,#0x03,#0x00	; 204096
   C788 80 3A 06 00        7756 	.byte #0x80,#0x3A,#0x06,#0x00	; 408192
   C78C 00 75 0C 00        7757 	.byte #0x00,#0x75,#0x0C,#0x00	; 816384
   C790 00 EA 18 00        7758 	.byte #0x00,#0xEA,#0x18,#0x00	; 1632768
   C794 00 D4 31 00        7759 	.byte #0x00,#0xD4,#0x31,#0x00	; 3265536
   C798 00 A8 63 00        7760 	.byte #0x00,#0xA8,#0x63,#0x00	; 6531072
                           7761 	.area XINIT   (CODE)
                           7762 	.area CABS    (ABS,CODE)
